 DNAPragram

 Timestamp is 672f63c3 (Sat Nov  9 21:29:39 2024)

 Preferred load address is 0000000140000000

 Start         Length     Name                   Class
 0001:00000000 00000100H .text$di                CODE
 0001:00000100 0006de10H .text$mn                CODE
 0001:0006df10 00000040H .text$mn$00             CODE
 0001:0006df50 00009dd0H .text$x                 CODE
 0001:00077d20 00000135H .text$yd                CODE
 0002:00000000 000028f8H .idata$5                DATA
 0002:000028f8 00000038H .00cfg                  DATA
 0002:00002930 00000008H .CRT$XCA                DATA
 0002:00002938 00000008H .CRT$XCAA               DATA
 0002:00002940 00000030H .CRT$XCU                DATA
 0002:00002970 00000008H .CRT$XCZ                DATA
 0002:00002978 00000008H .CRT$XIA                DATA
 0002:00002980 00000008H .CRT$XIAA               DATA
 0002:00002988 00000008H .CRT$XIAC               DATA
 0002:00002990 00000008H .CRT$XIC                DATA
 0002:00002998 00000008H .CRT$XIZ                DATA
 0002:000029a0 00000008H .CRT$XLA                DATA
 0002:000029a8 00000008H .CRT$XLZ                DATA
 0002:000029b0 00000008H .CRT$XPA                DATA
 0002:000029b8 00000008H .CRT$XPZ                DATA
 0002:000029c0 00000008H .CRT$XTA                DATA
 0002:000029c8 00000008H .CRT$XTZ                DATA
 0002:000029d0 00000000H .gehcont$y              DATA
 0002:000029d0 00000000H .gfids$y                DATA
 0002:000029d0 0029f330H .rdata                  DATA
 0002:002a1d00 00000000H .rdata$CastGuardVftablesA DATA
 0002:002a1d00 00000000H .rdata$CastGuardVftablesC DATA
 0002:002a1d00 00000028H .rdata$T                DATA
 0002:002a1d28 00003b9cH .rdata$r                DATA
 0002:002a58c4 000003d0H .rdata$voltmd           DATA
 0002:002a5c94 00000434H .rdata$zzzdbg           DATA
 0002:002a60c8 00000008H .rtc$IAA                DATA
 0002:002a60d0 00000008H .rtc$IZZ                DATA
 0002:002a60d8 00000008H .rtc$TAA                DATA
 0002:002a60e0 00000008H .rtc$TZZ                DATA
 0002:002a60e8 00000008H .tls                    DATA
 0002:002a60f0 00000034H .tls$                   DATA
 0002:002a6124 00000004H .tls$ZZZ                DATA
 0002:002a6128 000099b8H .xdata                  DATA
 0002:002afae0 000000f0H .xdata$x                DATA
 0002:002afbd0 00000438H .edata                  DATA
 0002:002b0008 000001e0H .idata$2                DATA
 0002:002b01e8 00000018H .idata$3                DATA
 0002:002b0200 000028f8H .idata$4                DATA
 0002:002b2af8 0000dffeH .idata$6                DATA
 0003:00000000 00001520H .data                   DATA
 0003:00001520 00000240H .data$r                 DATA
 0003:00001760 00001160H .data$rs                DATA
 0003:000028c0 00001a88H .bss                    DATA
 0004:00000000 0000a848H .pdata                  DATA
 0005:00000000 00000150H .rsrc$01                DATA
 0005:00000150 00010ce8H .rsrc$02                DATA

  Address         Publics by Value              Rva+Base               Lib:Object

 0000:00000000       __AbsoluteZero             0000000000000000     <absolute>
 0000:00000000       ___safe_se_handler_count   0000000000000000     <absolute>
 0000:00000000       ___safe_se_handler_table   0000000000000000     <absolute>
 0000:00000000       __arm64x_extra_rfe_table   0000000000000000     <absolute>
 0000:00000000       __arm64x_extra_rfe_table_size 0000000000000000     <absolute>
 0000:00000000       __arm64x_native_entrypoint 0000000000000000     <absolute>
 0000:00000000       __arm64x_redirection_metadata 0000000000000000     <absolute>
 0000:00000000       __arm64x_redirection_metadata_count 0000000000000000     <absolute>
 0000:00000000       __dynamic_value_reloc_table 0000000000000000     <absolute>
 0000:00000000       __enclave_config           0000000000000000     <absolute>
 0000:00000000       __guard_check_icall_a64n_fptr 0000000000000000     <absolute>
 0000:00000000       __guard_eh_cont_count      0000000000000000     <absolute>
 0000:00000000       __guard_eh_cont_table      0000000000000000     <absolute>
 0000:00000000       __guard_fids_count         0000000000000000     <absolute>
 0000:00000000       __guard_fids_table         0000000000000000     <absolute>
 0000:00000000       __guard_iat_count          0000000000000000     <absolute>
 0000:00000000       __guard_iat_table          0000000000000000     <absolute>
 0000:00000000       __guard_longjmp_count      0000000000000000     <absolute>
 0000:00000000       __guard_longjmp_table      0000000000000000     <absolute>
 0000:00000000       __hybrid_auxiliary_iat     0000000000000000     <absolute>
 0000:00000000       __hybrid_auxiliary_iat_copy 0000000000000000     <absolute>
 0000:00000000       __hybrid_code_map          0000000000000000     <absolute>
 0000:00000000       __hybrid_code_map_count    0000000000000000     <absolute>
 0000:00000000       __x64_code_ranges_to_entry_points 0000000000000000     <absolute>
 0000:00000000       __x64_code_ranges_to_entry_points_count 0000000000000000     <absolute>
 0000:00000100       __guard_flags              0000000000000100     <absolute>
 0000:00000000       __ImageBase                0000000140000000     <linker-defined>
 0001:00000100       main                       0000000140001100 f   main.obj
 0001:00000220       ??0Reconstruction@@QEAA@PEAVQWidget@@@Z 0000000140001220 f   Reconstruction.obj
 0001:000005a0       ??1Reconstruction@@UEAA@XZ 00000001400015a0 f   Reconstruction.obj
 0001:000005f0       ?InitCtrl@Reconstruction@@AEAAXXZ 00000001400015f0 f   Reconstruction.obj
 0001:00001d30       ?isPositiveDecimal@Reconstruction@@AEAA_NAEBV?$basic_string@DU?$char_traits@D@std@@V?$allocator@D@2@@std@@@Z 0000000140002d30 f   Reconstruction.obj
 0001:00001e80       ?isInteger@Reconstruction@@AEAA_NAEBV?$basic_string@DU?$char_traits@D@std@@V?$allocator@D@2@@std@@@Z 0000000140002e80 f   Reconstruction.obj
 0001:00001fd0       ?on_begin_slots@Reconstruction@@AEAAXXZ 0000000140002fd0 f   Reconstruction.obj
 0001:00003ec0       ?on_flush_slots@Reconstruction@@AEAAXXZ 0000000140004ec0 f   Reconstruction.obj
 0001:00004030       ?CreateCfgItem@@YAPEAVQWidget@@VQString@@00@Z 0000000140005030 f   Reconstruction.obj
 0001:00004cd0       ?CreateLineEditBoxItem@@YAPEAVQWidget@@VQString@@0PEAVQLineEdit@@@Z 0000000140005cd0 f   Reconstruction.obj
 0001:000052f0       ??$?0$$BY09D$00@QAnyStringView@@QEAA@AEAY09$$CBD@Z 00000001400062f0 f i Reconstruction.obj
 0001:00005340       ??$?0$$BY0P@D$00@QAnyStringView@@QEAA@AEAY0P@$$CBD@Z 0000000140006340 f i Reconstruction.obj
 0001:00005390       ??$?0$$V@?$_Compressed_pair@V?$allocator@D@std@@V?$_String_val@U?$_Simple_types@D@std@@@2@$00@std@@QEAA@U_Zero_then_variadic_args_t@1@@Z 0000000140006390 f i Reconstruction.obj
 0001:00005390       ??$?0$$V@?$_Compressed_pair@V?$allocator@_W@std@@V?$_String_val@U?$_Simple_types@_W@std@@@2@$00@std@@QEAA@U_Zero_then_variadic_args_t@1@@Z 0000000140006390 f i qt_breakpad.obj
 0001:000053c0       ??$?0D$00@?$QBasicUtf8StringView@$0A@@@QEAA@PEBD_J@Z 00000001400063c0 f i Reconstruction.obj
 0001:00005400       ??$?0D$00@QAnyStringView@@QEAA@PEBD_J@Z 0000000140006400 f i Reconstruction.obj
 0001:00005450       ??$?0D$00@QByteArrayView@@QEAA@PEBD_J@Z 0000000140006450 f i Reconstruction.obj
 0001:00005490       ??$?0PEBD$00@QByteArrayView@@QEAA@AEBQEBD@Z 0000000140006490 f i Reconstruction.obj
 0001:000054f0       ??$?0V?$basic_string@DU?$char_traits@D@std@@V?$allocator@D@2@@std@@$00@?$QBasicUtf8StringView@$0A@@@QEAA@AEBV?$basic_string@DU?$char_traits@D@std@@V?$allocator@D@2@@std@@@Z 00000001400064f0 f i Reconstruction.obj
 0001:00005540       ??$?6U?$char_traits@D@std@@V?$allocator@D@1@@QDebug@@QEAAAEAV0@AEBV?$basic_string@DU?$char_traits@D@std@@V?$allocator@D@2@@std@@@Z 0000000140006540 f i Reconstruction.obj
 0001:00005590       ??$?8DU?$char_traits@D@std@@V?$allocator@D@1@@std@@YA_NAEBV?$basic_string@DU?$char_traits@D@std@@V?$allocator@D@2@@0@QEBD@Z 0000000140006590 f i Reconstruction.obj
 0001:000055c0       ??$?9DU?$char_traits@D@std@@V?$allocator@D@1@@std@@YA_NAEBV?$basic_string@DU?$char_traits@D@std@@V?$allocator@D@2@@0@QEBD@Z 00000001400065c0 f i Reconstruction.obj
 0001:00005600       ??$_Allocate@$0BA@U_Default_allocate_traits@std@@$0A@@std@@YAPEAX_K@Z 0000000140006600 f i Reconstruction.obj
 0001:00005640       ??$_Allocate_manually_vector_aligned@U_Default_allocate_traits@std@@@std@@YAPEAX_K@Z 0000000140006640 f i Reconstruction.obj
 0001:000056d0       ??$_Construct@$00PEBD@?$basic_string@DU?$char_traits@D@std@@V?$allocator@D@2@@std@@AEAAXQEBD_K@Z 00000001400066d0 f i Reconstruction.obj
 0001:00005860       ??$_Construct_in_place@PEADAEAPEAD@std@@YAXAEAPEAD0@Z 0000000140006860 f i log4z.obj
 0001:00005860       ??$_Construct_in_place@PEADAEBQEAD@std@@YAXAEAPEADAEBQEAD@Z 0000000140006860 f i Reconstruction.obj
 0001:00005860       ??$_Construct_in_place@PEAPEAULogData@log4z@zsummer@@AEAPEAPEAU123@@std@@YAXAEAPEAPEAULogData@log4z@zsummer@@0@Z 0000000140006860 f i log4z.obj
 0001:00005860       ??$_Construct_in_place@PEAU?$_List_node@U?$pair@_JV?$basic_string@DU?$char_traits@D@std@@V?$allocator@D@2@@std@@@std@@PEAX@std@@AEAPEAU12@@std@@YAXAEAPEAU?$_List_node@U?$pair@_JV?$basic_string@DU?$char_traits@D@std@@V?$allocator@D@2@@std@@@std@@PEAX@0@0@Z 0000000140006860 f i log4z.obj
 0001:00005860       ??$_Construct_in_place@PEAU?$_List_node@U?$pair@_JV?$basic_string@DU?$char_traits@D@std@@V?$allocator@D@2@@std@@@std@@PEAX@std@@AEBQEAU12@@std@@YAXAEAPEAU?$_List_node@U?$pair@_JV?$basic_string@DU?$char_traits@D@std@@V?$allocator@D@2@@std@@@std@@PEAX@0@AEBQEAU10@@Z 0000000140006860 f i log4z.obj
 0001:00005860       ??$_Construct_in_place@PEAU?$_List_node@U?$pair@_JV?$basic_string@DU?$char_traits@D@std@@V?$allocator@D@2@@std@@@std@@PEAX@std@@PEAU12@@std@@YAXAEAPEAU?$_List_node@U?$pair@_JV?$basic_string@DU?$char_traits@D@std@@V?$allocator@D@2@@std@@@std@@PEAX@0@$$QEAPEAU10@@Z 0000000140006860 f i log4z.obj
 0001:00005860       ??$_Construct_in_place@PEAU?$_List_node@UAppMemory@google_breakpad@@PEAX@std@@AEAPEAU12@@std@@YAXAEAPEAU?$_List_node@UAppMemory@google_breakpad@@PEAX@0@0@Z 0000000140006860 f i exception_handler.obj
 0001:00005860       ??$_Construct_in_place@PEAU?$_List_node@UAppMemory@google_breakpad@@PEAX@std@@AEBQEAU12@@std@@YAXAEAPEAU?$_List_node@UAppMemory@google_breakpad@@PEAX@0@AEBQEAU10@@Z 0000000140006860 f i exception_handler.obj
 0001:00005860       ??$_Construct_in_place@PEAU?$_Tree_node@U?$pair@$$CBV?$basic_string@DU?$char_traits@D@std@@V?$allocator@D@2@@std@@H@std@@PEAX@std@@AEAPEAU12@@std@@YAXAEAPEAU?$_Tree_node@U?$pair@$$CBV?$basic_string@DU?$char_traits@D@std@@V?$allocator@D@2@@std@@H@std@@PEAX@0@0@Z 0000000140006860 f i log4z.obj
 0001:00005860       ??$_Construct_in_place@PEAU?$_Tree_node@U?$pair@$$CBV?$basic_string@DU?$char_traits@D@std@@V?$allocator@D@2@@std@@H@std@@PEAX@std@@AEBQEAU12@@std@@YAXAEAPEAU?$_Tree_node@U?$pair@$$CBV?$basic_string@DU?$char_traits@D@std@@V?$allocator@D@2@@std@@H@std@@PEAX@0@AEBQEAU10@@Z 0000000140006860 f i log4z.obj
 0001:00005860       ??$_Construct_in_place@PEAU?$_Tree_node@U?$pair@$$CBV?$basic_string@DU?$char_traits@D@std@@V?$allocator@D@2@@std@@ULoggerInfo@log4z@zsummer@@@std@@PEAX@std@@AEAPEAU12@@std@@YAXAEAPEAU?$_Tree_node@U?$pair@$$CBV?$basic_string@DU?$char_traits@D@std@@V?$allocator@D@2@@std@@ULoggerInfo@log4z@zsummer@@@std@@PEAX@0@0@Z 0000000140006860 f i log4z.obj
 0001:00005860       ??$_Construct_in_place@PEAU?$_Tree_node@U?$pair@$$CBV?$basic_string@DU?$char_traits@D@std@@V?$allocator@D@2@@std@@ULoggerInfo@log4z@zsummer@@@std@@PEAX@std@@AEBQEAU12@@std@@YAXAEAPEAU?$_Tree_node@U?$pair@$$CBV?$basic_string@DU?$char_traits@D@std@@V?$allocator@D@2@@std@@ULoggerInfo@log4z@zsummer@@@std@@PEAX@0@AEBQEAU10@@Z 0000000140006860 f i log4z.obj
 0001:00005860       ??$_Construct_in_place@PEAU?$_Tree_node@U?$pair@$$CBVQString@@V1@@std@@PEAX@std@@AEAPEAU12@@std@@YAXAEAPEAU?$_Tree_node@U?$pair@$$CBVQString@@V1@@std@@PEAX@0@0@Z 0000000140006860 f i httpdownloader.obj
 0001:00005860       ??$_Construct_in_place@PEAU?$_Tree_node@U?$pair@$$CBVQString@@V1@@std@@PEAX@std@@AEBQEAU12@@std@@YAXAEAPEAU?$_Tree_node@U?$pair@$$CBVQString@@V1@@std@@PEAX@0@AEBQEAU10@@Z 0000000140006860 f i httpdownloader.obj
 0001:00005860       ??$_Construct_in_place@PEAU?$_Tree_node@U?$pair@$$CBVQString@@_N@std@@PEAX@std@@AEAPEAU12@@std@@YAXAEAPEAU?$_Tree_node@U?$pair@$$CBVQString@@_N@std@@PEAX@0@0@Z 0000000140006860 f i httpdownloader.obj
 0001:00005860       ??$_Construct_in_place@PEAU?$_Tree_node@U?$pair@$$CBVQString@@_N@std@@PEAX@std@@AEBQEAU12@@std@@YAXAEAPEAU?$_Tree_node@U?$pair@$$CBVQString@@_N@std@@PEAX@0@AEBQEAU10@@Z 0000000140006860 f i httpdownloader.obj
 0001:00005860       ??$_Construct_in_place@PEAULogData@log4z@zsummer@@AEBQEAU123@@std@@YAXAEAPEAULogData@log4z@zsummer@@AEBQEAU123@@Z 0000000140006860 f i log4z.obj
 0001:00005860       ??$_Construct_in_place@PEAVExceptionHandler@google_breakpad@@PEAV12@@std@@YAXAEAPEAVExceptionHandler@google_breakpad@@$$QEAPEAV12@@Z 0000000140006860 f i exception_handler.obj
 0001:00005860       ??$_Construct_in_place@PEA_WAEAPEA_W@std@@YAXAEAPEA_W0@Z 0000000140006860 f i exception_handler.obj
 0001:00005860       ??$_Construct_in_place@PEA_WAEBQEA_W@std@@YAXAEAPEA_WAEBQEA_W@Z 0000000140006860 f i qt_breakpad.obj
 0001:000058b0       ??$<move>@AEAU?$pair@PEAU?$QTypedArrayData@PEAVQWidget@@@@PEAPEAVQWidget@@@std@@@@YA$$QEAU?$pair@PEAU?$QTypedArrayData@PEAVQWidget@@@@PEAPEAVQWidget@@@std@@AEAU01@@Z 00000001400068b0 f i FramelessHelper.obj
 0001:000058b0       ??$<move>@AEAU?$pair@PEAU?$QTypedArrayData@UTItemRect@CSlider@@@@PEAUTItemRect@CSlider@@@std@@@@YA$$QEAU?$pair@PEAU?$QTypedArrayData@UTItemRect@CSlider@@@@PEAUTItemRect@CSlider@@@std@@AEAU01@@Z 00000001400068b0 f i slider.obj
 0001:000058b0       ??$<move>@AEAU?$pair@PEAU?$QTypedArrayData@UTNoteItem@NotificationMgr@@@@PEAUTNoteItem@NotificationMgr@@@std@@@@YA$$QEAU?$pair@PEAU?$QTypedArrayData@UTNoteItem@NotificationMgr@@@@PEAUTNoteItem@NotificationMgr@@@std@@AEAU01@@Z 00000001400068b0 f i notificationpane.obj
 0001:000058b0       ??$<move>@AEAU?$pair@PEAU?$QTypedArrayData@VQPixmap@@@@PEAVQPixmap@@@std@@@@YA$$QEAU?$pair@PEAU?$QTypedArrayData@VQPixmap@@@@PEAVQPixmap@@@std@@AEAU01@@Z 00000001400068b0 f i moviepicwidget.obj
 0001:000058b0       ??$<move>@AEAU?$pair@PEAU?$QTypedArrayData@VQPoint@@@@PEAVQPoint@@@std@@@@YA$$QEAU?$pair@PEAU?$QTypedArrayData@VQPoint@@@@PEAVQPoint@@@std@@AEAU01@@Z 00000001400068b0 f i slider.obj
 0001:000058b0       ??$<move>@AEAU?$pair@PEAU?$QTypedArrayData@VQString@@@@PEAVQString@@@std@@@@YA$$QEAU?$pair@PEAU?$QTypedArrayData@VQString@@@@PEAVQString@@@std@@AEAU01@@Z 00000001400068b0 f i keyhelper.obj
 0001:000058b0       ??$<move>@AEAU?$pair@PEAU?$QTypedArrayData@_K@@PEA_K@std@@@@YA$$QEAU?$pair@PEAU?$QTypedArrayData@_K@@PEA_K@std@@AEAU01@@Z 00000001400068b0 f i qxtwindowsystem_win.obj
 0001:000058b0       ??$_Atomic_address_as@HU?$_Atomic_padded@H@std@@@std@@YAPECHAEAU?$_Atomic_padded@H@0@@Z 00000001400068b0 f i moc_httpdownloader.obj
 0001:000058b0       ??$_Atomic_address_as@HU?$_Atomic_padded@H@std@@@std@@YAPEDHAEBU?$_Atomic_padded@H@0@@Z 00000001400068b0 f i sysprotect.obj
 0001:000058b0       ??$_Atomic_address_as@JU?$_Atomic_padded@H@std@@@std@@YAPECJAEAU?$_Atomic_padded@H@0@@Z 00000001400068b0 f i configlist.obj
 0001:000058b0       ??$_Convert_size@_K_K@std@@YA_K_K@Z 00000001400068b0 f i Reconstruction.obj
 0001:000058b0       ??$_Get_unwrapped@AEAV?$_Tree_unchecked_const_iterator@V?$_Tree_val@U?$_Tree_simple_types@U?$pair@$$CBVQString@@V1@@std@@@std@@@std@@U_Iterator_base0@2@@std@@@std@@YA?A_TAEAV?$_Tree_unchecked_const_iterator@V?$_Tree_val@U?$_Tree_simple_types@U?$pair@$$CBVQString@@V1@@std@@@std@@@std@@U_Iterator_base0@2@@0@@Z 00000001400068b0 f i httpdownloader.obj
 0001:000058b0       ??$_Get_unwrapped@AEAV?$_Tree_unchecked_const_iterator@V?$_Tree_val@U?$_Tree_simple_types@U?$pair@$$CBVQString@@_N@std@@@std@@@std@@U_Iterator_base0@2@@std@@@std@@YA?A_TAEAV?$_Tree_unchecked_const_iterator@V?$_Tree_val@U?$_Tree_simple_types@U?$pair@$$CBVQString@@_N@std@@@std@@@std@@U_Iterator_base0@2@@0@@Z 00000001400068b0 f i httpdownloader.obj
 0001:000058b0       ??$_Get_unwrapped@AEAVconst_iterator@?$QHash@PEAVQWidget@@PEAVWidgetData@@@@@std@@YA?A_TAEAVconst_iterator@?$QHash@PEAVQWidget@@PEAVWidgetData@@@@@Z 00000001400068b0 f i FramelessHelper.obj
 0001:000058b0       ??$_Get_unwrapped@AEAVkey_iterator@?$QHash@PEAVQWidget@@PEAVWidgetData@@@@@std@@YA?A_TAEAVkey_iterator@?$QHash@PEAVQWidget@@PEAVWidgetData@@@@@Z 00000001400068b0 f i FramelessHelper.obj
 0001:000058b0       ??$_Get_unwrapped_unverified@AEAV?$insert_iterator@V?$map@VQString@@V1@U?$less@VQString@@@std@@V?$allocator@U?$pair@$$CBVQString@@V1@@std@@@3@@std@@@std@@@std@@YA?A_TAEAV?$insert_iterator@V?$map@VQString@@V1@U?$less@VQString@@@std@@V?$allocator@U?$pair@$$CBVQString@@V1@@std@@@3@@std@@@0@@Z 00000001400068b0 f i httpdownloader.obj
 0001:000058b0       ??$_Get_unwrapped_unverified@AEAV?$insert_iterator@V?$map@VQString@@_NU?$less@VQString@@@std@@V?$allocator@U?$pair@$$CBVQString@@_N@std@@@3@@std@@@std@@@std@@YA?A_TAEAV?$insert_iterator@V?$map@VQString@@_NU?$less@VQString@@@std@@V?$allocator@U?$pair@$$CBVQString@@_N@std@@@3@@std@@@0@@Z 00000001400068b0 f i httpdownloader.obj
 0001:000058b0       ??$_Kfn@$$CBV?$basic_string@DU?$char_traits@D@std@@V?$allocator@D@2@@std@@H@?$_Tmap_traits@V?$basic_string@DU?$char_traits@D@std@@V?$allocator@D@2@@std@@HU?$less@V?$basic_string@DU?$char_traits@D@std@@V?$allocator@D@2@@std@@@2@V?$allocator@U?$pair@$$CBV?$basic_string@DU?$char_traits@D@std@@V?$allocator@D@2@@std@@H@std@@@2@$0A@@std@@SAAEBV?$basic_string@DU?$char_traits@D@std@@V?$allocator@D@2@@1@AEBU?$pair@$$CBV?$basic_string@DU?$char_traits@D@std@@V?$allocator@D@2@@std@@H@1@@Z 00000001400068b0 f i log4z.obj
 0001:000058b0       ??$_Kfn@$$CBV?$basic_string@DU?$char_traits@D@std@@V?$allocator@D@2@@std@@ULoggerInfo@log4z@zsummer@@@?$_Tmap_traits@V?$basic_string@DU?$char_traits@D@std@@V?$allocator@D@2@@std@@ULoggerInfo@log4z@zsummer@@U?$less@V?$basic_string@DU?$char_traits@D@std@@V?$allocator@D@2@@std@@@2@V?$allocator@U?$pair@$$CBV?$basic_string@DU?$char_traits@D@std@@V?$allocator@D@2@@std@@ULoggerInfo@log4z@zsummer@@@std@@@2@$0A@@std@@SAAEBV?$basic_string@DU?$char_traits@D@std@@V?$allocator@D@2@@1@AEBU?$pair@$$CBV?$basic_string@DU?$char_traits@D@std@@V?$allocator@D@2@@std@@ULoggerInfo@log4z@zsummer@@@1@@Z 00000001400068b0 f i log4z.obj
 0001:000058b0       ??$_Kfn@$$CBVQString@@V1@@?$_Tmap_traits@VQString@@V1@U?$less@VQString@@@std@@V?$allocator@U?$pair@$$CBVQString@@V1@@std@@@3@$0A@@std@@SAAEBVQString@@AEBU?$pair@$$CBVQString@@V1@@1@@Z 00000001400068b0 f i httpdownloader.obj
 0001:000058b0       ??$_Kfn@$$CBVQString@@_N@?$_Tmap_traits@VQString@@_NU?$less@VQString@@@std@@V?$allocator@U?$pair@$$CBVQString@@_N@std@@@3@$0A@@std@@SAAEBVQString@@AEBU?$pair@$$CBVQString@@_N@1@@Z 00000001400068b0 f i httpdownloader.obj
 0001:000058b0       ??$_Refancy@PEAD$0A@@std@@YAPEADPEAD@Z 00000001400068b0 f i log4z.obj
 0001:000058b0       ??$_Refancy@PEBD$0A@@std@@YAPEBDPEBD@Z 00000001400068b0 f i log4z.obj
 0001:000058b0       ??$_Unfancy@$$CBD@std@@YAPEBDPEBD@Z 00000001400068b0 f i log4z.obj
 0001:000058b0       ??$_Unfancy@D@std@@YAPEADPEAD@Z 00000001400068b0 f i Reconstruction.obj
 0001:000058b0       ??$_Unfancy@PEAULogData@log4z@zsummer@@@std@@YAPEAPEAULogData@log4z@zsummer@@PEAPEAU123@@Z 00000001400068b0 f i log4z.obj
 0001:000058b0       ??$_Unfancy@PEAVExceptionHandler@google_breakpad@@@std@@YAPEAPEAVExceptionHandler@google_breakpad@@PEAPEAV12@@Z 00000001400068b0 f i exception_handler.obj
 0001:000058b0       ??$_Unfancy@U_Container_proxy@std@@@std@@YAPEAU_Container_proxy@0@PEAU10@@Z 00000001400068b0 f i log4z.obj
 0001:000058b0       ??$_Unfancy@_W@std@@YAPEA_WPEA_W@Z 00000001400068b0 f i qt_breakpad.obj
 0001:000058b0       ??$_Voidify_iter@PEAD@std@@YAPEAXPEAD@Z 00000001400068b0 f i string_utils.obj
 0001:000058b0       ??$_Voidify_iter@PEAPEAD@std@@YAPEAXPEAPEAD@Z 00000001400068b0 f i Reconstruction.obj
 0001:000058b0       ??$_Voidify_iter@PEAPEAPEAULogData@log4z@zsummer@@@std@@YAPEAXPEAPEAPEAULogData@log4z@zsummer@@@Z 00000001400068b0 f i log4z.obj
 0001:000058b0       ??$_Voidify_iter@PEAPEAU?$_List_node@U?$pair@_JV?$basic_string@DU?$char_traits@D@std@@V?$allocator@D@2@@std@@@std@@PEAX@std@@@std@@YAPEAXPEAPEAU?$_List_node@U?$pair@_JV?$basic_string@DU?$char_traits@D@std@@V?$allocator@D@2@@std@@@std@@PEAX@0@@Z 00000001400068b0 f i log4z.obj
 0001:000058b0       ??$_Voidify_iter@PEAPEAU?$_List_node@UAppMemory@google_breakpad@@PEAX@std@@@std@@YAPEAXPEAPEAU?$_List_node@UAppMemory@google_breakpad@@PEAX@0@@Z 00000001400068b0 f i exception_handler.obj
 0001:000058b0       ??$_Voidify_iter@PEAPEAU?$_Tree_node@U?$pair@$$CBV?$basic_string@DU?$char_traits@D@std@@V?$allocator@D@2@@std@@H@std@@PEAX@std@@@std@@YAPEAXPEAPEAU?$_Tree_node@U?$pair@$$CBV?$basic_string@DU?$char_traits@D@std@@V?$allocator@D@2@@std@@H@std@@PEAX@0@@Z 00000001400068b0 f i log4z.obj
 0001:000058b0       ??$_Voidify_iter@PEAPEAU?$_Tree_node@U?$pair@$$CBV?$basic_string@DU?$char_traits@D@std@@V?$allocator@D@2@@std@@ULoggerInfo@log4z@zsummer@@@std@@PEAX@std@@@std@@YAPEAXPEAPEAU?$_Tree_node@U?$pair@$$CBV?$basic_string@DU?$char_traits@D@std@@V?$allocator@D@2@@std@@ULoggerInfo@log4z@zsummer@@@std@@PEAX@0@@Z 00000001400068b0 f i log4z.obj
 0001:000058b0       ??$_Voidify_iter@PEAPEAU?$_Tree_node@U?$pair@$$CBVQString@@V1@@std@@PEAX@std@@@std@@YAPEAXPEAPEAU?$_Tree_node@U?$pair@$$CBVQString@@V1@@std@@PEAX@0@@Z 00000001400068b0 f i httpdownloader.obj
 0001:000058b0       ??$_Voidify_iter@PEAPEAU?$_Tree_node@U?$pair@$$CBVQString@@_N@std@@PEAX@std@@@std@@YAPEAXPEAPEAU?$_Tree_node@U?$pair@$$CBVQString@@_N@std@@PEAX@0@@Z 00000001400068b0 f i httpdownloader.obj
 0001:000058b0       ??$_Voidify_iter@PEAPEAULogData@log4z@zsummer@@@std@@YAPEAXPEAPEAULogData@log4z@zsummer@@@Z 00000001400068b0 f i log4z.obj
 0001:000058b0       ??$_Voidify_iter@PEAPEAVExceptionHandler@google_breakpad@@@std@@YAPEAXPEAPEAVExceptionHandler@google_breakpad@@@Z 00000001400068b0 f i exception_handler.obj
 0001:000058b0       ??$_Voidify_iter@PEAPEA_W@std@@YAPEAXPEAPEA_W@Z 00000001400068b0 f i qt_breakpad.obj
 0001:000058b0       ??$_Voidify_iter@PEAU?$pair@$$CBV?$basic_string@DU?$char_traits@D@std@@V?$allocator@D@2@@std@@H@std@@@std@@YAPEAXPEAU?$pair@$$CBV?$basic_string@DU?$char_traits@D@std@@V?$allocator@D@2@@std@@H@0@@Z 00000001400068b0 f i log4z.obj
 0001:000058b0       ??$_Voidify_iter@PEAU?$pair@$$CBV?$basic_string@DU?$char_traits@D@std@@V?$allocator@D@2@@std@@ULoggerInfo@log4z@zsummer@@@std@@@std@@YAPEAXPEAU?$pair@$$CBV?$basic_string@DU?$char_traits@D@std@@V?$allocator@D@2@@std@@ULoggerInfo@log4z@zsummer@@@0@@Z 00000001400068b0 f i log4z.obj
 0001:000058b0       ??$_Voidify_iter@PEAU?$pair@$$CBVQString@@V1@@std@@@std@@YAPEAXPEAU?$pair@$$CBVQString@@V1@@0@@Z 00000001400068b0 f i httpdownloader.obj
 0001:000058b0       ??$_Voidify_iter@PEAU?$pair@$$CBVQString@@_N@std@@@std@@YAPEAXPEAU?$pair@$$CBVQString@@_N@0@@Z 00000001400068b0 f i httpdownloader.obj
 0001:000058b0       ??$_Voidify_iter@PEAU?$pair@_JV?$basic_string@DU?$char_traits@D@std@@V?$allocator@D@2@@std@@@std@@@std@@YAPEAXPEAU?$pair@_JV?$basic_string@DU?$char_traits@D@std@@V?$allocator@D@2@@std@@@0@@Z 00000001400068b0 f i log4z.obj
 0001:000058b0       ??$_Voidify_iter@PEAUAppMemory@google_breakpad@@@std@@YAPEAXPEAUAppMemory@google_breakpad@@@Z 00000001400068b0 f i exception_handler.obj
 0001:000058b0       ??$_Voidify_iter@PEAU_Container_proxy@std@@@std@@YAPEAXPEAU_Container_proxy@0@@Z 00000001400068b0 f i log4z.obj
 0001:000058b0       ??$_Voidify_iter@PEA_W@std@@YAPEAXPEA_W@Z 00000001400068b0 f i string_utils.obj
 0001:000058b0       ??$addressof@$$CBU?$pair@$$CBVQString@@_N@std@@@std@@YAPEBU?$pair@$$CBVQString@@_N@0@AEBU10@@Z 00000001400068b0 f i httpdownloader.obj
 0001:000058b0       ??$addressof@$$CBUAppMemory@google_breakpad@@@std@@YAPEBUAppMemory@google_breakpad@@AEBU12@@Z 00000001400068b0 f i exception_handler.obj
 0001:000058b0       ??$addressof@$$CBV?$_List_val@U?$_List_simple_types@UAppMemory@google_breakpad@@@std@@@std@@@std@@YAPEBV?$_List_val@U?$_List_simple_types@UAppMemory@google_breakpad@@@std@@@0@AEBV10@@Z 00000001400068b0 f i exception_handler.obj
 0001:000058b0       ??$addressof@$$CBV?$_String_val@U?$_Simple_types@D@std@@@std@@@std@@YAPEBV?$_String_val@U?$_Simple_types@D@std@@@0@AEBV10@@Z 00000001400068b0 f i log4z.obj
 0001:000058b0       ??$addressof@$$CBV?$_String_val@U?$_Simple_types@_W@std@@@std@@@std@@YAPEBV?$_String_val@U?$_Simple_types@_W@std@@@0@AEBV10@@Z 00000001400068b0 f i exception_handler.obj
 0001:000058b0       ??$addressof@$$CBV?$_Tree_val@U?$_Tree_simple_types@U?$pair@$$CBV?$basic_string@DU?$char_traits@D@std@@V?$allocator@D@2@@std@@H@std@@@std@@@std@@@std@@YAPEBV?$_Tree_val@U?$_Tree_simple_types@U?$pair@$$CBV?$basic_string@DU?$char_traits@D@std@@V?$allocator@D@2@@std@@H@std@@@std@@@0@AEBV10@@Z 00000001400068b0 f i log4z.obj
 0001:000058b0       ??$addressof@$$CBV?$_Tree_val@U?$_Tree_simple_types@U?$pair@$$CBV?$basic_string@DU?$char_traits@D@std@@V?$allocator@D@2@@std@@ULoggerInfo@log4z@zsummer@@@std@@@std@@@std@@@std@@YAPEBV?$_Tree_val@U?$_Tree_simple_types@U?$pair@$$CBV?$basic_string@DU?$char_traits@D@std@@V?$allocator@D@2@@std@@ULoggerInfo@log4z@zsummer@@@std@@@std@@@0@AEBV10@@Z 00000001400068b0 f i log4z.obj
 0001:000058b0       ??$addressof@$$CBV?$_Tree_val@U?$_Tree_simple_types@U?$pair@$$CBVQString@@V1@@std@@@std@@@std@@@std@@YAPEBV?$_Tree_val@U?$_Tree_simple_types@U?$pair@$$CBVQString@@V1@@std@@@std@@@0@AEBV10@@Z 00000001400068b0 f i httpdownloader.obj
 0001:000058b0       ??$addressof@$$CBV?$_Tree_val@U?$_Tree_simple_types@U?$pair@$$CBVQString@@_N@std@@@std@@@std@@@std@@YAPEBV?$_Tree_val@U?$_Tree_simple_types@U?$pair@$$CBVQString@@_N@std@@@std@@@0@AEBV10@@Z 00000001400068b0 f i httpdownloader.obj
 0001:000058b0       ??$addressof@$$CBV?$basic_string@DU?$char_traits@D@std@@V?$allocator@D@2@@std@@@std@@YAPEBV?$basic_string@DU?$char_traits@D@std@@V?$allocator@D@2@@0@AEBV10@@Z 00000001400068b0 f i log4z.obj
 0001:000058b0       ??$addressof@$$CBV?$basic_string@_WU?$char_traits@_W@std@@V?$allocator@_W@2@@std@@@std@@YAPEBV?$basic_string@_WU?$char_traits@_W@std@@V?$allocator@_W@2@@0@AEBV10@@Z 00000001400068b0 f i exception_handler.obj
 0001:000058b0       ??$addressof@H@std@@YAPEAHAEAH@Z 00000001400068b0 f i moc_notificationpane.obj
 0001:000058b0       ??$addressof@N@std@@YAPEANAEAN@Z 00000001400068b0 f i moc_monitorthread.obj
 0001:000058b0       ??$addressof@PEAD@std@@YAPEAPEADAEAPEAD@Z 00000001400068b0 f i Reconstruction.obj
 0001:000058b0       ??$addressof@PEAPEAULogData@log4z@zsummer@@@std@@YAPEAPEAPEAULogData@log4z@zsummer@@AEAPEAPEAU123@@Z 00000001400068b0 f i log4z.obj
 0001:000058b0       ??$addressof@PEAU?$_List_node@U?$pair@_JV?$basic_string@DU?$char_traits@D@std@@V?$allocator@D@2@@std@@@std@@PEAX@std@@@std@@YAPEAPEAU?$_List_node@U?$pair@_JV?$basic_string@DU?$char_traits@D@std@@V?$allocator@D@2@@std@@@std@@PEAX@0@AEAPEAU10@@Z 00000001400068b0 f i log4z.obj
 0001:000058b0       ??$addressof@PEAU?$_List_node@UAppMemory@google_breakpad@@PEAX@std@@@std@@YAPEAPEAU?$_List_node@UAppMemory@google_breakpad@@PEAX@0@AEAPEAU10@@Z 00000001400068b0 f i exception_handler.obj
 0001:000058b0       ??$addressof@PEAU?$_Tree_node@U?$pair@$$CBV?$basic_string@DU?$char_traits@D@std@@V?$allocator@D@2@@std@@H@std@@PEAX@std@@@std@@YAPEAPEAU?$_Tree_node@U?$pair@$$CBV?$basic_string@DU?$char_traits@D@std@@V?$allocator@D@2@@std@@H@std@@PEAX@0@AEAPEAU10@@Z 00000001400068b0 f i log4z.obj
 0001:000058b0       ??$addressof@PEAU?$_Tree_node@U?$pair@$$CBV?$basic_string@DU?$char_traits@D@std@@V?$allocator@D@2@@std@@ULoggerInfo@log4z@zsummer@@@std@@PEAX@std@@@std@@YAPEAPEAU?$_Tree_node@U?$pair@$$CBV?$basic_string@DU?$char_traits@D@std@@V?$allocator@D@2@@std@@ULoggerInfo@log4z@zsummer@@@std@@PEAX@0@AEAPEAU10@@Z 00000001400068b0 f i log4z.obj
 0001:000058b0       ??$addressof@PEAU?$_Tree_node@U?$pair@$$CBVQString@@V1@@std@@PEAX@std@@@std@@YAPEAPEAU?$_Tree_node@U?$pair@$$CBVQString@@V1@@std@@PEAX@0@AEAPEAU10@@Z 00000001400068b0 f i httpdownloader.obj
 0001:000058b0       ??$addressof@PEAU?$_Tree_node@U?$pair@$$CBVQString@@_N@std@@PEAX@std@@@std@@YAPEAPEAU?$_Tree_node@U?$pair@$$CBVQString@@_N@std@@PEAX@0@AEAPEAU10@@Z 00000001400068b0 f i httpdownloader.obj
 0001:000058b0       ??$addressof@PEAULogData@log4z@zsummer@@@std@@YAPEAPEAULogData@log4z@zsummer@@AEAPEAU123@@Z 00000001400068b0 f i log4z.obj
 0001:000058b0       ??$addressof@PEAVExceptionHandler@google_breakpad@@@std@@YAPEAPEAVExceptionHandler@google_breakpad@@AEAPEAV12@@Z 00000001400068b0 f i exception_handler.obj
 0001:000058b0       ??$addressof@PEA_W@std@@YAPEAPEA_WAEAPEA_W@Z 00000001400068b0 f i qt_breakpad.obj
 0001:000058b0       ??$addressof@U?$pair@$$CBV?$basic_string@DU?$char_traits@D@std@@V?$allocator@D@2@@std@@H@std@@@std@@YAPEAU?$pair@$$CBV?$basic_string@DU?$char_traits@D@std@@V?$allocator@D@2@@std@@H@0@AEAU10@@Z 00000001400068b0 f i log4z.obj
 0001:000058b0       ??$addressof@U?$pair@$$CBV?$basic_string@DU?$char_traits@D@std@@V?$allocator@D@2@@std@@ULoggerInfo@log4z@zsummer@@@std@@@std@@YAPEAU?$pair@$$CBV?$basic_string@DU?$char_traits@D@std@@V?$allocator@D@2@@std@@ULoggerInfo@log4z@zsummer@@@0@AEAU10@@Z 00000001400068b0 f i log4z.obj
 0001:000058b0       ??$addressof@U?$pair@$$CBVQString@@V1@@std@@@std@@YAPEAU?$pair@$$CBVQString@@V1@@0@AEAU10@@Z 00000001400068b0 f i httpdownloader.obj
 0001:000058b0       ??$addressof@U?$pair@$$CBVQString@@_N@std@@@std@@YAPEAU?$pair@$$CBVQString@@_N@0@AEAU10@@Z 00000001400068b0 f i httpdownloader.obj
 0001:000058b0       ??$addressof@U?$pair@_JV?$basic_string@DU?$char_traits@D@std@@V?$allocator@D@2@@std@@@std@@@std@@YAPEAU?$pair@_JV?$basic_string@DU?$char_traits@D@std@@V?$allocator@D@2@@std@@@0@AEAU10@@Z 00000001400068b0 f i log4z.obj
 0001:000058b0       ??$addressof@UAppMemory@google_breakpad@@@std@@YAPEAUAppMemory@google_breakpad@@AEAU12@@Z 00000001400068b0 f i exception_handler.obj
 0001:000058b0       ??$addressof@U_Container_proxy@std@@@std@@YAPEAU_Container_proxy@0@AEAU10@@Z 00000001400068b0 f i log4z.obj
 0001:000058b0       ??$addressof@V?$QList@VQString@@@@@std@@YAPEAV?$QList@VQString@@@@AEAV1@@Z 00000001400068b0 f i httpdownloader.obj
 0001:000058b0       ??$addressof@V?$_Deque_val@U?$_Deque_simple_types@PEAULogData@log4z@zsummer@@@std@@@std@@@std@@YAPEAV?$_Deque_val@U?$_Deque_simple_types@PEAULogData@log4z@zsummer@@@std@@@0@AEAV10@@Z 00000001400068b0 f i log4z.obj
 0001:000058b0       ??$addressof@V?$_List_val@U?$_List_simple_types@UAppMemory@google_breakpad@@@std@@@std@@@std@@YAPEAV?$_List_val@U?$_List_simple_types@UAppMemory@google_breakpad@@@std@@@0@AEAV10@@Z 00000001400068b0 f i exception_handler.obj
 0001:000058b0       ??$addressof@V?$_String_val@U?$_Simple_types@D@std@@@std@@@std@@YAPEAV?$_String_val@U?$_Simple_types@D@std@@@0@AEAV10@@Z 00000001400068b0 f i log4z.obj
 0001:000058b0       ??$addressof@V?$_String_val@U?$_Simple_types@_W@std@@@std@@@std@@YAPEAV?$_String_val@U?$_Simple_types@_W@std@@@0@AEAV10@@Z 00000001400068b0 f i exception_handler.obj
 0001:000058b0       ??$addressof@V?$_Tree_val@U?$_Tree_simple_types@U?$pair@$$CBV?$basic_string@DU?$char_traits@D@std@@V?$allocator@D@2@@std@@H@std@@@std@@@std@@@std@@YAPEAV?$_Tree_val@U?$_Tree_simple_types@U?$pair@$$CBV?$basic_string@DU?$char_traits@D@std@@V?$allocator@D@2@@std@@H@std@@@std@@@0@AEAV10@@Z 00000001400068b0 f i log4z.obj
 0001:000058b0       ??$addressof@V?$_Tree_val@U?$_Tree_simple_types@U?$pair@$$CBV?$basic_string@DU?$char_traits@D@std@@V?$allocator@D@2@@std@@ULoggerInfo@log4z@zsummer@@@std@@@std@@@std@@@std@@YAPEAV?$_Tree_val@U?$_Tree_simple_types@U?$pair@$$CBV?$basic_string@DU?$char_traits@D@std@@V?$allocator@D@2@@std@@ULoggerInfo@log4z@zsummer@@@std@@@std@@@0@AEAV10@@Z 00000001400068b0 f i log4z.obj
 0001:000058b0       ??$addressof@V?$_Tree_val@U?$_Tree_simple_types@U?$pair@$$CBVQString@@V1@@std@@@std@@@std@@@std@@YAPEAV?$_Tree_val@U?$_Tree_simple_types@U?$pair@$$CBVQString@@V1@@std@@@std@@@0@AEAV10@@Z 00000001400068b0 f i httpdownloader.obj
 0001:000058b0       ??$addressof@V?$_Tree_val@U?$_Tree_simple_types@U?$pair@$$CBVQString@@_N@std@@@std@@@std@@@std@@YAPEAV?$_Tree_val@U?$_Tree_simple_types@U?$pair@$$CBVQString@@_N@std@@@std@@@0@AEAV10@@Z 00000001400068b0 f i httpdownloader.obj
 0001:000058b0       ??$addressof@V?$_Vector_val@U?$_Simple_types@PEAVExceptionHandler@google_breakpad@@@std@@@std@@@std@@YAPEAV?$_Vector_val@U?$_Simple_types@PEAVExceptionHandler@google_breakpad@@@std@@@0@AEAV10@@Z 00000001400068b0 f i exception_handler.obj
 0001:000058b0       ??$addressof@V?$basic_string@DU?$char_traits@D@std@@V?$allocator@D@2@@std@@@std@@YAPEAV?$basic_string@DU?$char_traits@D@std@@V?$allocator@D@2@@0@AEAV10@@Z 00000001400068b0 f i log4z.obj
 0001:000058b0       ??$addressof@V?$basic_string@_WU?$char_traits@_W@std@@V?$allocator@_W@2@@std@@@std@@YAPEAV?$basic_string@_WU?$char_traits@_W@std@@V?$allocator@_W@2@@0@AEAV10@@Z 00000001400068b0 f i exception_handler.obj
 0001:000058b0       ??$addressof@V?$deque@PEAULogData@log4z@zsummer@@V?$allocator@PEAULogData@log4z@zsummer@@@std@@@std@@@std@@YAPEAV?$deque@PEAULogData@log4z@zsummer@@V?$allocator@PEAULogData@log4z@zsummer@@@std@@@0@AEAV10@@Z 00000001400068b0 f i log4z.obj
 0001:000058b0       ??$addressof@V?$map@VQString@@V1@U?$less@VQString@@@std@@V?$allocator@U?$pair@$$CBVQString@@V1@@std@@@3@@std@@@std@@YAPEAV?$map@VQString@@V1@U?$less@VQString@@@std@@V?$allocator@U?$pair@$$CBVQString@@V1@@std@@@3@@0@AEAV10@@Z 00000001400068b0 f i httpdownloader.obj
 0001:000058b0       ??$addressof@V?$map@VQString@@_NU?$less@VQString@@@std@@V?$allocator@U?$pair@$$CBVQString@@_N@std@@@3@@std@@@std@@YAPEAV?$map@VQString@@_NU?$less@VQString@@@std@@V?$allocator@U?$pair@$$CBVQString@@_N@std@@@3@@0@AEAV10@@Z 00000001400068b0 f i httpdownloader.obj
 0001:000058b0       ??$addressof@VQPoint@@@std@@YAPEAVQPoint@@AEAV1@@Z 00000001400068b0 f i moc_slider.obj
 0001:000058b0       ??$addressof@VQString@@@std@@YAPEAVQString@@AEAV1@@Z 00000001400068b0 f i moc_monitorthread.obj
 0001:000058b0       ??$addressof@_J@std@@YAPEA_JAEA_J@Z 00000001400068b0 f i moc_httpdownloader.obj
 0001:000058b0       ??$addressof@_N@std@@YAPEA_NAEA_N@Z 00000001400068b0 f i moc_monitorthread.obj
 0001:000058b0       ??$as_const@V?$QList@PEAVBaseChildPane@@@@@std@@YAAEBV?$QList@PEAVBaseChildPane@@@@AEAV1@@Z 00000001400068b0 f i mainwnd.obj
 0001:000058b0       ??$as_const@V?$QList@PEAVDynamicBtn@@@@@std@@YAAEBV?$QList@PEAVDynamicBtn@@@@AEAV1@@Z 00000001400068b0 f i textshow.obj
 0001:000058b0       ??$as_const@V?$QList@PEAVWidgetData@@@@@std@@YAAEBV?$QList@PEAVWidgetData@@@@AEAV1@@Z 00000001400068b0 f i FramelessHelper.obj
 0001:000058b0       ??$as_const@V?$QList@UTItemRect@CSlider@@@@@std@@YAAEBV?$QList@UTItemRect@CSlider@@@@AEAV1@@Z 00000001400068b0 f i slider.obj
 0001:000058b0       ??$as_const@V?$QList@VQString@@@@@std@@YAAEBV?$QList@VQString@@@@AEAV1@@Z 00000001400068b0 f i utils.obj
 0001:000058b0       ??$castHelper@VQChar@@@QStringView@@CAPEB_SPEBVQChar@@@Z 00000001400068b0 f i keyhelper.obj
 0001:000058b0       ??$data@$$CBD$05@std@@YAPEBDAEAY05$$CBD@Z 00000001400068b0 f i SequenceReconstructionForm.obj
 0001:000058b0       ??$data@$$CBD$06@std@@YAPEBDAEAY06$$CBD@Z 00000001400068b0 f i SequenceReconstructionForm.obj
 0001:000058b0       ??$data@$$CBD$07@std@@YAPEBDAEAY07$$CBD@Z 00000001400068b0 f i SequenceReconstructionForm.obj
 0001:000058b0       ??$data@$$CBD$08@std@@YAPEBDAEAY08$$CBD@Z 00000001400068b0 f i SequenceReconstructionForm.obj
 0001:000058b0       ??$data@$$CBD$09@std@@YAPEBDAEAY09$$CBD@Z 00000001400068b0 f i Reconstruction.obj
 0001:000058b0       ??$data@$$CBD$0BB@@std@@YAPEBDAEAY0BB@$$CBD@Z 00000001400068b0 f i SequenceReconstructionForm.obj
 0001:000058b0       ??$data@$$CBD$0BD@@std@@YAPEBDAEAY0BD@$$CBD@Z 00000001400068b0 f i SequenceReconstructionForm.obj
 0001:000058b0       ??$data@$$CBD$0BL@@std@@YAPEBDAEAY0BL@$$CBD@Z 00000001400068b0 f i SequenceReconstructionForm.obj
 0001:000058b0       ??$data@$$CBD$0BN@@std@@YAPEBDAEAY0BN@$$CBD@Z 00000001400068b0 f i SequenceReconstructionDialog.obj
 0001:000058b0       ??$data@$$CBD$0L@@std@@YAPEBDAEAY0L@$$CBD@Z 00000001400068b0 f i SequenceReconstructionForm.obj
 0001:000058b0       ??$data@$$CBD$0M@@std@@YAPEBDAEAY0M@$$CBD@Z 00000001400068b0 f i mainwnd.obj
 0001:000058b0       ??$data@$$CBD$0N@@std@@YAPEBDAEAY0N@$$CBD@Z 00000001400068b0 f i SequenceReconstructionForm.obj
 0001:000058b0       ??$data@$$CBD$0P@@std@@YAPEBDAEAY0P@$$CBD@Z 00000001400068b0 f i Reconstruction.obj
 0001:000058b0       ??$forward@AEAI@std@@YAAEAIAEAI@Z 00000001400068b0 f i qxtglobalshortcut.obj
 0001:000058b0       ??$forward@AEAPEAD@std@@YAAEAPEADAEAPEAD@Z 00000001400068b0 f i log4z.obj
 0001:000058b0       ??$forward@AEAPEAPEAULogData@log4z@zsummer@@@std@@YAAEAPEAPEAULogData@log4z@zsummer@@AEAPEAPEAU123@@Z 00000001400068b0 f i log4z.obj
 0001:000058b0       ??$forward@AEAPEAU?$_List_node@U?$pair@_JV?$basic_string@DU?$char_traits@D@std@@V?$allocator@D@2@@std@@@std@@PEAX@std@@@std@@YAAEAPEAU?$_List_node@U?$pair@_JV?$basic_string@DU?$char_traits@D@std@@V?$allocator@D@2@@std@@@std@@PEAX@0@AEAPEAU10@@Z 00000001400068b0 f i log4z.obj
 0001:000058b0       ??$forward@AEAPEAU?$_List_node@UAppMemory@google_breakpad@@PEAX@std@@@std@@YAAEAPEAU?$_List_node@UAppMemory@google_breakpad@@PEAX@0@AEAPEAU10@@Z 00000001400068b0 f i exception_handler.obj
 0001:000058b0       ??$forward@AEAPEAU?$_Tree_node@U?$pair@$$CBV?$basic_string@DU?$char_traits@D@std@@V?$allocator@D@2@@std@@H@std@@PEAX@std@@@std@@YAAEAPEAU?$_Tree_node@U?$pair@$$CBV?$basic_string@DU?$char_traits@D@std@@V?$allocator@D@2@@std@@H@std@@PEAX@0@AEAPEAU10@@Z 00000001400068b0 f i log4z.obj
 0001:000058b0       ??$forward@AEAPEAU?$_Tree_node@U?$pair@$$CBV?$basic_string@DU?$char_traits@D@std@@V?$allocator@D@2@@std@@ULoggerInfo@log4z@zsummer@@@std@@PEAX@std@@@std@@YAAEAPEAU?$_Tree_node@U?$pair@$$CBV?$basic_string@DU?$char_traits@D@std@@V?$allocator@D@2@@std@@ULoggerInfo@log4z@zsummer@@@std@@PEAX@0@AEAPEAU10@@Z 00000001400068b0 f i log4z.obj
 0001:000058b0       ??$forward@AEAPEAU?$_Tree_node@U?$pair@$$CBVQString@@V1@@std@@PEAX@std@@@std@@YAAEAPEAU?$_Tree_node@U?$pair@$$CBVQString@@V1@@std@@PEAX@0@AEAPEAU10@@Z 00000001400068b0 f i httpdownloader.obj
 0001:000058b0       ??$forward@AEAPEAU?$_Tree_node@U?$pair@$$CBVQString@@_N@std@@PEAX@std@@@std@@YAAEAPEAU?$_Tree_node@U?$pair@$$CBVQString@@_N@std@@PEAX@0@AEAPEAU10@@Z 00000001400068b0 f i httpdownloader.obj
 0001:000058b0       ??$forward@AEAPEA_W@std@@YAAEAPEA_WAEAPEA_W@Z 00000001400068b0 f i exception_handler.obj
 0001:000058b0       ??$forward@AEAU?$pair@$$CBVQString@@V1@@std@@@std@@YAAEAU?$pair@$$CBVQString@@V1@@0@AEAU10@@Z 00000001400068b0 f i httpdownloader.obj
 0001:000058b0       ??$forward@AEAU?$pair@$$CBVQString@@_N@std@@@std@@YAAEAU?$pair@$$CBVQString@@_N@0@AEAU10@@Z 00000001400068b0 f i httpdownloader.obj
 0001:000058b0       ??$forward@AEAULoggerInfo@log4z@zsummer@@@std@@YAAEAULoggerInfo@log4z@zsummer@@AEAU123@@Z 00000001400068b0 f i log4z.obj
 0001:000058b0       ??$forward@AEAV?$QList@PEAVBaseChildPane@@@@@std@@YAAEAV?$QList@PEAVBaseChildPane@@@@AEAV1@@Z 00000001400068b0 f i mainwnd.obj
 0001:000058b0       ??$forward@AEAV?$QList@PEAVDynamicBtn@@@@@std@@YAAEAV?$QList@PEAVDynamicBtn@@@@AEAV1@@Z 00000001400068b0 f i textshow.obj
 0001:000058b0       ??$forward@AEAV?$QList@PEAVWidgetData@@@@@std@@YAAEAV?$QList@PEAVWidgetData@@@@AEAV1@@Z 00000001400068b0 f i FramelessHelper.obj
 0001:000058b0       ??$forward@AEAV?$QList@UTItemRect@CSlider@@@@@std@@YAAEAV?$QList@UTItemRect@CSlider@@@@AEAV1@@Z 00000001400068b0 f i slider.obj
 0001:000058b0       ??$forward@AEAV?$QList@VQString@@@@@std@@YAAEAV?$QList@VQString@@@@AEAV1@@Z 00000001400068b0 f i utils.obj
 0001:000058b0       ??$forward@AEAV?$back_insert_iterator@V?$QList@VQString@@@@@std@@@std@@YAAEAV?$back_insert_iterator@V?$QList@VQString@@@@@0@AEAV10@@Z 00000001400068b0 f i httpdownloader.obj
 0001:000058b0       ??$forward@AEAV?$basic_string@DU?$char_traits@D@std@@V?$allocator@D@2@@std@@@std@@YAAEAV?$basic_string@DU?$char_traits@D@std@@V?$allocator@D@2@@0@AEAV10@@Z 00000001400068b0 f i log4z.obj
 0001:000058b0       ??$forward@AEAV?$insert_iterator@V?$map@VQString@@V1@U?$less@VQString@@@std@@V?$allocator@U?$pair@$$CBVQString@@V1@@std@@@3@@std@@@std@@@std@@YAAEAV?$insert_iterator@V?$map@VQString@@V1@U?$less@VQString@@@std@@V?$allocator@U?$pair@$$CBVQString@@V1@@std@@@3@@std@@@0@AEAV10@@Z 00000001400068b0 f i httpdownloader.obj
 0001:000058b0       ??$forward@AEAV?$insert_iterator@V?$map@VQString@@_NU?$less@VQString@@@std@@V?$allocator@U?$pair@$$CBVQString@@_N@std@@@3@@std@@@std@@@std@@YAAEAV?$insert_iterator@V?$map@VQString@@_NU?$less@VQString@@@std@@V?$allocator@U?$pair@$$CBVQString@@_N@std@@@3@@std@@@0@AEAV10@@Z 00000001400068b0 f i httpdownloader.obj
 0001:000058b0       ??$forward@AEAY00$$CBD@std@@YAAEAY00$$CBDAEAY00$$CBD@Z 00000001400068b0 f i log4z.obj
 0001:000058b0       ??$forward@AEA_K@std@@YAAEA_KAEA_K@Z 00000001400068b0 f i qxtwindowsystem_win.obj
 0001:000058b0       ??$forward@AEBI@std@@YAAEBIAEBI@Z 00000001400068b0 f i qxtglobalshortcut.obj
 0001:000058b0       ??$forward@AEBQEAD@std@@YAAEBQEADAEBQEAD@Z 00000001400068b0 f i Reconstruction.obj
 0001:000058b0       ??$forward@AEBQEAU?$_List_node@U?$pair@_JV?$basic_string@DU?$char_traits@D@std@@V?$allocator@D@2@@std@@@std@@PEAX@std@@@std@@YAAEBQEAU?$_List_node@U?$pair@_JV?$basic_string@DU?$char_traits@D@std@@V?$allocator@D@2@@std@@@std@@PEAX@0@AEBQEAU10@@Z 00000001400068b0 f i log4z.obj
 0001:000058b0       ??$forward@AEBQEAU?$_List_node@UAppMemory@google_breakpad@@PEAX@std@@@std@@YAAEBQEAU?$_List_node@UAppMemory@google_breakpad@@PEAX@0@AEBQEAU10@@Z 00000001400068b0 f i exception_handler.obj
 0001:000058b0       ??$forward@AEBQEAU?$_Tree_node@U?$pair@$$CBV?$basic_string@DU?$char_traits@D@std@@V?$allocator@D@2@@std@@H@std@@PEAX@std@@@std@@YAAEBQEAU?$_Tree_node@U?$pair@$$CBV?$basic_string@DU?$char_traits@D@std@@V?$allocator@D@2@@std@@H@std@@PEAX@0@AEBQEAU10@@Z 00000001400068b0 f i log4z.obj
 0001:000058b0       ??$forward@AEBQEAU?$_Tree_node@U?$pair@$$CBV?$basic_string@DU?$char_traits@D@std@@V?$allocator@D@2@@std@@ULoggerInfo@log4z@zsummer@@@std@@PEAX@std@@@std@@YAAEBQEAU?$_Tree_node@U?$pair@$$CBV?$basic_string@DU?$char_traits@D@std@@V?$allocator@D@2@@std@@ULoggerInfo@log4z@zsummer@@@std@@PEAX@0@AEBQEAU10@@Z 00000001400068b0 f i log4z.obj
 0001:000058b0       ??$forward@AEBQEAU?$_Tree_node@U?$pair@$$CBVQString@@V1@@std@@PEAX@std@@@std@@YAAEBQEAU?$_Tree_node@U?$pair@$$CBVQString@@V1@@std@@PEAX@0@AEBQEAU10@@Z 00000001400068b0 f i httpdownloader.obj
 0001:000058b0       ??$forward@AEBQEAU?$_Tree_node@U?$pair@$$CBVQString@@_N@std@@PEAX@std@@@std@@YAAEBQEAU?$_Tree_node@U?$pair@$$CBVQString@@_N@std@@PEAX@0@AEBQEAU10@@Z 00000001400068b0 f i httpdownloader.obj
 0001:000058b0       ??$forward@AEBQEAULogData@log4z@zsummer@@@std@@YAAEBQEAULogData@log4z@zsummer@@AEBQEAU123@@Z 00000001400068b0 f i log4z.obj
 0001:000058b0       ??$forward@AEBQEAVQxtGlobalShortcut@@@std@@YAAEBQEAVQxtGlobalShortcut@@AEBQEAV1@@Z 00000001400068b0 f i qxtglobalshortcut.obj
 0001:000058b0       ??$forward@AEBQEAVWidgetData@@@std@@YAAEBQEAVWidgetData@@AEBQEAV1@@Z 00000001400068b0 f i FramelessHelper.obj
 0001:000058b0       ??$forward@AEBQEA_W@std@@YAAEBQEA_WAEBQEA_W@Z 00000001400068b0 f i qt_breakpad.obj
 0001:000058b0       ??$forward@AEBU?$less@V?$basic_string@DU?$char_traits@D@std@@V?$allocator@D@2@@std@@@std@@@std@@YAAEBU?$less@V?$basic_string@DU?$char_traits@D@std@@V?$allocator@D@2@@std@@@0@AEBU10@@Z 00000001400068b0 f i log4z.obj
 0001:000058b0       ??$forward@AEBU?$less@VQString@@@std@@@std@@YAAEBU?$less@VQString@@@0@AEBU10@@Z 00000001400068b0 f i httpdownloader.obj
 0001:000058b0       ??$forward@AEBU?$pair@$$CBVQString@@V1@@std@@@std@@YAAEBU?$pair@$$CBVQString@@V1@@0@AEBU10@@Z 00000001400068b0 f i httpdownloader.obj
 0001:000058b0       ??$forward@AEBU?$pair@$$CBVQString@@_N@std@@@std@@YAAEBU?$pair@$$CBVQString@@_N@0@AEBU10@@Z 00000001400068b0 f i httpdownloader.obj
 0001:000058b0       ??$forward@AEBU?$pair@_JV?$basic_string@DU?$char_traits@D@std@@V?$allocator@D@2@@std@@@std@@@std@@YAAEBU?$pair@_JV?$basic_string@DU?$char_traits@D@std@@V?$allocator@D@2@@std@@@0@AEBU10@@Z 00000001400068b0 f i log4z.obj
 0001:000058b0       ??$forward@AEBUAppMemory@google_breakpad@@@std@@YAAEBUAppMemory@google_breakpad@@AEBU12@@Z 00000001400068b0 f i exception_handler.obj
 0001:000058b0       ??$forward@AEBUTItemRect@CSlider@@@std@@YAAEBUTItemRect@CSlider@@AEBU12@@Z 00000001400068b0 f i slider.obj
 0001:000058b0       ??$forward@AEBUTNoteItem@NotificationMgr@@@std@@YAAEBUTNoteItem@NotificationMgr@@AEBU12@@Z 00000001400068b0 f i notificationpane.obj
 0001:000058b0       ??$forward@AEBUpiecewise_construct_t@std@@@std@@YAAEBUpiecewise_construct_t@0@AEBU10@@Z 00000001400068b0 f i log4z.obj
 0001:000058b0       ??$forward@AEBV?$allocator@D@std@@@std@@YAAEBV?$allocator@D@0@AEBV10@@Z 00000001400068b0 f i log4z.obj
 0001:000058b0       ??$forward@AEBV?$allocator@_W@std@@@std@@YAAEBV?$allocator@_W@0@AEBV10@@Z 00000001400068b0 f i string_utils.obj
 0001:000058b0       ??$forward@AEBV?$basic_string@DU?$char_traits@D@std@@V?$allocator@D@2@@std@@@std@@YAAEBV?$basic_string@DU?$char_traits@D@std@@V?$allocator@D@2@@0@AEBV10@@Z 00000001400068b0 f i log4z.obj
 0001:000058b0       ??$forward@AEBVQString@@@std@@YAAEBVQString@@AEBV1@@Z 00000001400068b0 f i httpdownloader.obj
 0001:000058b0       ??$forward@AEB_N@std@@YAAEB_NAEB_N@Z 00000001400068b0 f i log4z.obj
 0001:000058b0       ??$forward@PEAPEAPEAULogData@log4z@zsummer@@@std@@YA$$QEAPEAPEAPEAULogData@log4z@zsummer@@AEAPEAPEAPEAU123@@Z 00000001400068b0 f i log4z.obj
 0001:000058b0       ??$forward@PEAPEAVQWidget@@@std@@YA$$QEAPEAPEAVQWidget@@AEAPEAPEAV1@@Z 00000001400068b0 f i FramelessHelper.obj
 0001:000058b0       ??$forward@PEAPEAVWidgetData@@@std@@YA$$QEAPEAPEAVWidgetData@@AEAPEAPEAV1@@Z 00000001400068b0 f i FramelessHelper.obj
 0001:000058b0       ??$forward@PEAU?$QTypedArrayData@PEAVQWidget@@@@@std@@YA$$QEAPEAU?$QTypedArrayData@PEAVQWidget@@@@AEAPEAU1@@Z 00000001400068b0 f i FramelessHelper.obj
 0001:000058b0       ??$forward@PEAU?$QTypedArrayData@PEAVWidgetData@@@@@std@@YA$$QEAPEAU?$QTypedArrayData@PEAVWidgetData@@@@AEAPEAU1@@Z 00000001400068b0 f i FramelessHelper.obj
 0001:000058b0       ??$forward@PEAU?$QTypedArrayData@UTItemRect@CSlider@@@@@std@@YA$$QEAPEAU?$QTypedArrayData@UTItemRect@CSlider@@@@AEAPEAU1@@Z 00000001400068b0 f i slider.obj
 0001:000058b0       ??$forward@PEAU?$QTypedArrayData@UTNoteItem@NotificationMgr@@@@@std@@YA$$QEAPEAU?$QTypedArrayData@UTNoteItem@NotificationMgr@@@@AEAPEAU1@@Z 00000001400068b0 f i notificationpane.obj
 0001:000058b0       ??$forward@PEAU?$QTypedArrayData@VQPixmap@@@@@std@@YA$$QEAPEAU?$QTypedArrayData@VQPixmap@@@@AEAPEAU1@@Z 00000001400068b0 f i moviepicwidget.obj
 0001:000058b0       ??$forward@PEAU?$QTypedArrayData@VQPoint@@@@@std@@YA$$QEAPEAU?$QTypedArrayData@VQPoint@@@@AEAPEAU1@@Z 00000001400068b0 f i slider.obj
 0001:000058b0       ??$forward@PEAU?$QTypedArrayData@VQString@@@@@std@@YA$$QEAPEAU?$QTypedArrayData@VQString@@@@AEAPEAU1@@Z 00000001400068b0 f i keyhelper.obj
 0001:000058b0       ??$forward@PEAU?$QTypedArrayData@_K@@@std@@YA$$QEAPEAU?$QTypedArrayData@_K@@AEAPEAU1@@Z 00000001400068b0 f i qxtwindowsystem_win.obj
 0001:000058b0       ??$forward@PEAU?$_List_node@U?$pair@_JV?$basic_string@DU?$char_traits@D@std@@V?$allocator@D@2@@std@@@std@@PEAX@std@@@std@@YA$$QEAPEAU?$_List_node@U?$pair@_JV?$basic_string@DU?$char_traits@D@std@@V?$allocator@D@2@@std@@@std@@PEAX@0@AEAPEAU10@@Z 00000001400068b0 f i log4z.obj
 0001:000058b0       ??$forward@PEAU?$_Tree_node@U?$pair@$$CBV?$basic_string@DU?$char_traits@D@std@@V?$allocator@D@2@@std@@H@std@@PEAX@std@@@std@@YA$$QEAPEAU?$_Tree_node@U?$pair@$$CBV?$basic_string@DU?$char_traits@D@std@@V?$allocator@D@2@@std@@H@std@@PEAX@0@AEAPEAU10@@Z 00000001400068b0 f i log4z.obj
 0001:000058b0       ??$forward@PEAU?$_Tree_node@U?$pair@$$CBV?$basic_string@DU?$char_traits@D@std@@V?$allocator@D@2@@std@@ULoggerInfo@log4z@zsummer@@@std@@PEAX@std@@@std@@YA$$QEAPEAU?$_Tree_node@U?$pair@$$CBV?$basic_string@DU?$char_traits@D@std@@V?$allocator@D@2@@std@@ULoggerInfo@log4z@zsummer@@@std@@PEAX@0@AEAPEAU10@@Z 00000001400068b0 f i log4z.obj
 0001:000058b0       ??$forward@PEAU?$_Tree_node@U?$pair@$$CBVQString@@V1@@std@@PEAX@std@@@std@@YA$$QEAPEAU?$_Tree_node@U?$pair@$$CBVQString@@V1@@std@@PEAX@0@AEAPEAU10@@Z 00000001400068b0 f i httpdownloader.obj
 0001:000058b0       ??$forward@PEAU?$_Tree_node@U?$pair@$$CBVQString@@_N@std@@PEAX@std@@@std@@YA$$QEAPEAU?$_Tree_node@U?$pair@$$CBVQString@@_N@std@@PEAX@0@AEAPEAU10@@Z 00000001400068b0 f i httpdownloader.obj
 0001:000058b0       ??$forward@PEAULogData@log4z@zsummer@@@std@@YA$$QEAPEAULogData@log4z@zsummer@@AEAPEAU123@@Z 00000001400068b0 f i log4z.obj
 0001:000058b0       ??$forward@PEAUTItemRect@CSlider@@@std@@YA$$QEAPEAUTItemRect@CSlider@@AEAPEAU12@@Z 00000001400068b0 f i slider.obj
 0001:000058b0       ??$forward@PEAUTNoteItem@NotificationMgr@@@std@@YA$$QEAPEAUTNoteItem@NotificationMgr@@AEAPEAU12@@Z 00000001400068b0 f i notificationpane.obj
 0001:000058b0       ??$forward@PEAU_Container_base12@std@@@std@@YA$$QEAPEAU_Container_base12@0@AEAPEAU10@@Z 00000001400068b0 f i log4z.obj
 0001:000058b0       ??$forward@PEAVExceptionHandler@google_breakpad@@@std@@YA$$QEAPEAVExceptionHandler@google_breakpad@@AEAPEAV12@@Z 00000001400068b0 f i exception_handler.obj
 0001:000058b0       ??$forward@PEAVQPixmap@@@std@@YA$$QEAPEAVQPixmap@@AEAPEAV1@@Z 00000001400068b0 f i moviepicwidget.obj
 0001:000058b0       ??$forward@PEAVQPoint@@@std@@YA$$QEAPEAVQPoint@@AEAPEAV1@@Z 00000001400068b0 f i slider.obj
 0001:000058b0       ??$forward@PEAVQString@@@std@@YA$$QEAPEAVQString@@AEAPEAV1@@Z 00000001400068b0 f i keyhelper.obj
 0001:000058b0       ??$forward@PEAVQxtGlobalShortcut@@@std@@YA$$QEAPEAVQxtGlobalShortcut@@AEAPEAV1@@Z 00000001400068b0 f i qxtglobalshortcut.obj
 0001:000058b0       ??$forward@PEAVWidgetData@@@std@@YA$$QEAPEAVWidgetData@@AEAPEAV1@@Z 00000001400068b0 f i FramelessHelper.obj
 0001:000058b0       ??$forward@PEA_K@std@@YA$$QEAPEA_KAEAPEA_K@Z 00000001400068b0 f i qxtwindowsystem_win.obj
 0001:000058b0       ??$forward@PEBD@std@@YA$$QEAPEBDAEAPEBD@Z 00000001400068b0 f i log4z.obj
 0001:000058b0       ??$forward@U?$less@VQString@@@std@@@std@@YA$$QEAU?$less@VQString@@@0@AEAU10@@Z 00000001400068b0 f i httpdownloader.obj
 0001:000058b0       ??$forward@U?$pair@$$CBVQString@@V1@@std@@@std@@YA$$QEAU?$pair@$$CBVQString@@V1@@0@AEAU10@@Z 00000001400068b0 f i httpdownloader.obj
 0001:000058b0       ??$forward@U?$pair@V?$basic_string@DU?$char_traits@D@std@@V?$allocator@D@2@@std@@ULoggerInfo@log4z@zsummer@@@std@@@std@@YA$$QEAU?$pair@V?$basic_string@DU?$char_traits@D@std@@V?$allocator@D@2@@std@@ULoggerInfo@log4z@zsummer@@@0@AEAU10@@Z 00000001400068b0 f i log4z.obj
 0001:000058b0       ??$forward@U?$pair@_JV?$basic_string@DU?$char_traits@D@std@@V?$allocator@D@2@@std@@@std@@@std@@YA$$QEAU?$pair@_JV?$basic_string@DU?$char_traits@D@std@@V?$allocator@D@2@@std@@@0@AEAU10@@Z 00000001400068b0 f i log4z.obj
 0001:000058b0       ??$forward@ULoggerInfo@log4z@zsummer@@@std@@YA$$QEAULoggerInfo@log4z@zsummer@@AEAU123@@Z 00000001400068b0 f i log4z.obj
 0001:000058b0       ??$forward@U_One_then_variadic_args_t@std@@@std@@YA$$QEAU_One_then_variadic_args_t@0@AEAU10@@Z 00000001400068b0 f i httpdownloader.obj
 0001:000058b0       ??$forward@U_Zero_then_variadic_args_t@std@@@std@@YA$$QEAU_Zero_then_variadic_args_t@0@AEAU10@@Z 00000001400068b0 f i log4z.obj
 0001:000058b0       ??$forward@V?$_List_unchecked_iterator@V?$_List_val@U?$_List_simple_types@UAppMemory@google_breakpad@@@std@@@std@@@std@@@std@@YA$$QEAV?$_List_unchecked_iterator@V?$_List_val@U?$_List_simple_types@UAppMemory@google_breakpad@@@std@@@std@@@0@AEAV10@@Z 00000001400068b0 f i exception_handler.obj
 0001:000058b0       ??$forward@V?$_Tree_iterator@V?$_Tree_val@U?$_Tree_simple_types@U?$pair@$$CBV?$basic_string@DU?$char_traits@D@std@@V?$allocator@D@2@@std@@ULoggerInfo@log4z@zsummer@@@std@@@std@@@std@@@std@@@std@@YA$$QEAV?$_Tree_iterator@V?$_Tree_val@U?$_Tree_simple_types@U?$pair@$$CBV?$basic_string@DU?$char_traits@D@std@@V?$allocator@D@2@@std@@ULoggerInfo@log4z@zsummer@@@std@@@std@@@std@@@0@AEAV10@@Z 00000001400068b0 f i log4z.obj
 0001:000058b0       ??$forward@V?$_Tree_iterator@V?$_Tree_val@U?$_Tree_simple_types@U?$pair@$$CBVQString@@V1@@std@@@std@@@std@@@std@@@std@@YA$$QEAV?$_Tree_iterator@V?$_Tree_val@U?$_Tree_simple_types@U?$pair@$$CBVQString@@V1@@std@@@std@@@std@@@0@AEAV10@@Z 00000001400068b0 f i httpdownloader.obj
 0001:000058b0       ??$forward@V?$_Tree_iterator@V?$_Tree_val@U?$_Tree_simple_types@U?$pair@$$CBVQString@@_N@std@@@std@@@std@@@std@@@std@@YA$$QEAV?$_Tree_iterator@V?$_Tree_val@U?$_Tree_simple_types@U?$pair@$$CBVQString@@_N@std@@@std@@@std@@@0@AEAV10@@Z 00000001400068b0 f i httpdownloader.obj
 0001:000058b0       ??$forward@V?$allocator@D@std@@@std@@YA$$QEAV?$allocator@D@0@AEAV10@@Z 00000001400068b0 f i log4z.obj
 0001:000058b0       ??$forward@V?$allocator@U?$_List_node@U?$pair@_JV?$basic_string@DU?$char_traits@D@std@@V?$allocator@D@2@@std@@@std@@PEAX@std@@@std@@@std@@YA$$QEAV?$allocator@U?$_List_node@U?$pair@_JV?$basic_string@DU?$char_traits@D@std@@V?$allocator@D@2@@std@@@std@@PEAX@std@@@0@AEAV10@@Z 00000001400068b0 f i log4z.obj
 0001:000058b0       ??$forward@V?$allocator@U?$_Tree_node@U?$pair@$$CBVQString@@V1@@std@@PEAX@std@@@std@@@std@@YA$$QEAV?$allocator@U?$_Tree_node@U?$pair@$$CBVQString@@V1@@std@@PEAX@std@@@0@AEAV10@@Z 00000001400068b0 f i httpdownloader.obj
 0001:000058b0       ??$forward@V?$allocator@U?$_Tree_node@U?$pair@$$CBVQString@@_N@std@@PEAX@std@@@std@@@std@@YA$$QEAV?$allocator@U?$_Tree_node@U?$pair@$$CBVQString@@_N@std@@PEAX@std@@@0@AEAV10@@Z 00000001400068b0 f i httpdownloader.obj
 0001:000058b0       ??$forward@V?$allocator@_W@std@@@std@@YA$$QEAV?$allocator@_W@0@AEAV10@@Z 00000001400068b0 f i string_utils.obj
 0001:000058b0       ??$forward@V?$basic_string@DU?$char_traits@D@std@@V?$allocator@D@2@@std@@@std@@YA$$QEAV?$basic_string@DU?$char_traits@D@std@@V?$allocator@D@2@@0@AEAV10@@Z 00000001400068b0 f i log4z.obj
 0001:000058b0       ??$forward@V?$tuple@$$QEAV?$basic_string@DU?$char_traits@D@std@@V?$allocator@D@2@@std@@@std@@@std@@YA$$QEAV?$tuple@$$QEAV?$basic_string@DU?$char_traits@D@std@@V?$allocator@D@2@@std@@@0@AEAV10@@Z 00000001400068b0 f i log4z.obj
 0001:000058b0       ??$forward@V?$tuple@$$V@std@@@std@@YA$$QEAV?$tuple@$$V@0@AEAV10@@Z 00000001400068b0 f i log4z.obj
 0001:000058b0       ??$forward@V?$tuple@AEBV?$basic_string@DU?$char_traits@D@std@@V?$allocator@D@2@@std@@@std@@@std@@YA$$QEAV?$tuple@AEBV?$basic_string@DU?$char_traits@D@std@@V?$allocator@D@2@@std@@@0@AEAV10@@Z 00000001400068b0 f i log4z.obj
 0001:000058b0       ??$forward@VQPoint@@@std@@YA$$QEAVQPoint@@AEAV1@@Z 00000001400068b0 f i slider.obj
 0001:000058b0       ??$forward@VQString@@@std@@YA$$QEAVQString@@AEAV1@@Z 00000001400068b0 f i httpdownloader.obj
 0001:000058b0       ??$forward@_J@std@@YA$$QEA_JAEA_J@Z 00000001400068b0 f i log4z.obj
 0001:000058b0       ??$forward@_N@std@@YA$$QEA_NAEA_N@Z 00000001400068b0 f i log4z.obj
 0001:000058b0       ??$forward_as_tuple@$$V@std@@YA?AV?$tuple@$$V@0@XZ 00000001400068b0 f i log4z.obj
 0001:000058b0       ??$move@AEAD@std@@YA$$QEADAEAD@Z 00000001400068b0 f i httpdownloader.obj
 0001:000058b0       ??$move@AEAH@std@@YA$$QEAHAEAH@Z 00000001400068b0 f i moc_liquidplot.obj
 0001:000058b0       ??$move@AEAPEAPEAPEAULogData@log4z@zsummer@@@std@@YA$$QEAPEAPEAPEAULogData@log4z@zsummer@@AEAPEAPEAPEAU123@@Z 00000001400068b0 f i log4z.obj
 0001:000058b0       ??$move@AEAPEAU?$_List_node@U?$pair@_JV?$basic_string@DU?$char_traits@D@std@@V?$allocator@D@2@@std@@@std@@PEAX@std@@@std@@YA$$QEAPEAU?$_List_node@U?$pair@_JV?$basic_string@DU?$char_traits@D@std@@V?$allocator@D@2@@std@@@std@@PEAX@0@AEAPEAU10@@Z 00000001400068b0 f i log4z.obj
 0001:000058b0       ??$move@AEAPEAULogData@log4z@zsummer@@@std@@YA$$QEAPEAULogData@log4z@zsummer@@AEAPEAU123@@Z 00000001400068b0 f i log4z.obj
 0001:000058b0       ??$move@AEAPEAVExceptionHandler@google_breakpad@@@std@@YA$$QEAPEAVExceptionHandler@google_breakpad@@AEAPEAV12@@Z 00000001400068b0 f i exception_handler.obj
 0001:000058b0       ??$move@AEAPEAVQWidget@@@std@@YA$$QEAPEAVQWidget@@AEAPEAV1@@Z 00000001400068b0 f i FramelessHelper.obj
 0001:000058b0       ??$move@AEAPEAVWidgetData@@@std@@YA$$QEAPEAVWidgetData@@AEAPEAV1@@Z 00000001400068b0 f i FramelessHelper.obj
 0001:000058b0       ??$move@AEAU?$Node@PEAVQWidget@@PEAVWidgetData@@@QHashPrivate@@@std@@YA$$QEAU?$Node@PEAVQWidget@@PEAVWidgetData@@@QHashPrivate@@AEAU12@@Z 00000001400068b0 f i FramelessHelper.obj
 0001:000058b0       ??$move@AEAU?$Node@U?$pair@II@std@@PEAVQxtGlobalShortcut@@@QHashPrivate@@@std@@YA$$QEAU?$Node@U?$pair@II@std@@PEAVQxtGlobalShortcut@@@QHashPrivate@@AEAU12@@Z 00000001400068b0 f i qxtglobalshortcut.obj
 0001:000058b0       ??$move@AEAU?$QArrayDataPointer@PEAVQWidget@@@@@std@@YA$$QEAU?$QArrayDataPointer@PEAVQWidget@@@@AEAU1@@Z 00000001400068b0 f i FramelessHelper.obj
 0001:000058b0       ??$move@AEAU?$QArrayDataPointer@PEAVWidgetData@@@@@std@@YA$$QEAU?$QArrayDataPointer@PEAVWidgetData@@@@AEAU1@@Z 00000001400068b0 f i FramelessHelper.obj
 0001:000058b0       ??$move@AEAU?$pair@$$CBVQString@@V1@@std@@@std@@YA$$QEAU?$pair@$$CBVQString@@V1@@0@AEAU10@@Z 00000001400068b0 f i httpdownloader.obj
 0001:000058b0       ??$move@AEAU?$pair@II@std@@@std@@YA$$QEAU?$pair@II@0@AEAU10@@Z 00000001400068b0 f i qxtglobalshortcut.obj
 0001:000058b0       ??$move@AEAU?$pair@_JV?$basic_string@DU?$char_traits@D@std@@V?$allocator@D@2@@std@@@std@@@std@@YA$$QEAU?$pair@_JV?$basic_string@DU?$char_traits@D@std@@V?$allocator@D@2@@std@@@0@AEAU10@@Z 00000001400068b0 f i log4z.obj
 0001:000058b0       ??$move@AEAUTItemRect@CSlider@@@std@@YA$$QEAUTItemRect@CSlider@@AEAU12@@Z 00000001400068b0 f i slider.obj
 0001:000058b0       ??$move@AEAUTNoteItem@NotificationMgr@@@std@@YA$$QEAUTNoteItem@NotificationMgr@@AEAU12@@Z 00000001400068b0 f i notificationpane.obj
 0001:000058b0       ??$move@AEAV?$_List_unchecked_const_iterator@V?$_List_val@U?$_List_simple_types@U?$pair@_JV?$basic_string@DU?$char_traits@D@std@@V?$allocator@D@2@@std@@@std@@@std@@@std@@U_Iterator_base0@2@@std@@@std@@YA$$QEAV?$_List_unchecked_const_iterator@V?$_List_val@U?$_List_simple_types@U?$pair@_JV?$basic_string@DU?$char_traits@D@std@@V?$allocator@D@2@@std@@@std@@@std@@@std@@U_Iterator_base0@2@@0@AEAV10@@Z 00000001400068b0 f i log4z.obj
 0001:000058b0       ??$move@AEAV?$_Tree_iterator@V?$_Tree_val@U?$_Tree_simple_types@U?$pair@$$CBVQString@@V1@@std@@@std@@@std@@@std@@@std@@YA$$QEAV?$_Tree_iterator@V?$_Tree_val@U?$_Tree_simple_types@U?$pair@$$CBVQString@@V1@@std@@@std@@@std@@@0@AEAV10@@Z 00000001400068b0 f i httpdownloader.obj
 0001:000058b0       ??$move@AEAV?$_Tree_iterator@V?$_Tree_val@U?$_Tree_simple_types@U?$pair@$$CBVQString@@_N@std@@@std@@@std@@@std@@@std@@YA$$QEAV?$_Tree_iterator@V?$_Tree_val@U?$_Tree_simple_types@U?$pair@$$CBVQString@@_N@std@@@std@@@std@@@0@AEAV10@@Z 00000001400068b0 f i httpdownloader.obj
 0001:000058b0       ??$move@AEAV?$allocator@D@std@@@std@@YA$$QEAV?$allocator@D@0@AEAV10@@Z 00000001400068b0 f i log4z.obj
 0001:000058b0       ??$move@AEAV?$allocator@U?$_List_node@U?$pair@_JV?$basic_string@DU?$char_traits@D@std@@V?$allocator@D@2@@std@@@std@@PEAX@std@@@std@@@std@@YA$$QEAV?$allocator@U?$_List_node@U?$pair@_JV?$basic_string@DU?$char_traits@D@std@@V?$allocator@D@2@@std@@@std@@PEAX@std@@@0@AEAV10@@Z 00000001400068b0 f i log4z.obj
 0001:000058b0       ??$move@AEAV?$allocator@_W@std@@@std@@YA$$QEAV?$allocator@_W@0@AEAV10@@Z 00000001400068b0 f i exception_handler.obj
 0001:000058b0       ??$move@AEAV?$basic_string@DU?$char_traits@D@std@@V?$allocator@D@2@@std@@@std@@YA$$QEAV?$basic_string@DU?$char_traits@D@std@@V?$allocator@D@2@@0@AEAV10@@Z 00000001400068b0 f i log4z.obj
 0001:000058b0       ??$move@AEAV?$function@$$A6AXXZ@std@@@std@@YA$$QEAV?$function@$$A6AXXZ@0@AEAV10@@Z 00000001400068b0 f i mainwnd.obj
 0001:000058b0       ??$move@AEAV?$tuple@$$QEAV?$basic_string@DU?$char_traits@D@std@@V?$allocator@D@2@@std@@@std@@@std@@YA$$QEAV?$tuple@$$QEAV?$basic_string@DU?$char_traits@D@std@@V?$allocator@D@2@@std@@@0@AEAV10@@Z 00000001400068b0 f i log4z.obj
 0001:000058b0       ??$move@AEAV?$tuple@AEBV?$basic_string@DU?$char_traits@D@std@@V?$allocator@D@2@@std@@@std@@@std@@YA$$QEAV?$tuple@AEBV?$basic_string@DU?$char_traits@D@std@@V?$allocator@D@2@@std@@@0@AEAV10@@Z 00000001400068b0 f i log4z.obj
 0001:000058b0       ??$move@AEAVQColor@@@std@@YA$$QEAVQColor@@AEAV1@@Z 00000001400068b0 f i moc_liquidplot.obj
 0001:000058b0       ??$move@AEAVQKeySequence@@@std@@YA$$QEAVQKeySequence@@AEAV1@@Z 00000001400068b0 f i moc_qxtglobalshortcut.obj
 0001:000058b0       ??$move@AEAVQPixmap@@@std@@YA$$QEAVQPixmap@@AEAV1@@Z 00000001400068b0 f i moviepicwidget.obj
 0001:000058b0       ??$move@AEAVQPoint@@@std@@YA$$QEAVQPoint@@AEAV1@@Z 00000001400068b0 f i slider.obj
 0001:000058b0       ??$move@AEAVQString@@@std@@YA$$QEAVQString@@AEAV1@@Z 00000001400068b0 f i monitorthread.obj
 0001:000058b0       ??$move@AEA_J@std@@YA$$QEA_JAEA_J@Z 00000001400068b0 f i sysprotect.obj
 0001:000058b0       ??$move@AEA_K@std@@YA$$QEA_KAEA_K@Z 00000001400068b0 f i log4z.obj
 0001:000058b0       ??0?$QxtPrivateInterface@VQxtGlobalShortcut@@VQxtGlobalShortcutPrivate@@@@QEAA@XZ 00000001400068b0 f i qxtglobalshortcut.obj
 0001:000058b0       ??0?$_Func_base@X$$V@std@@QEAA@XZ 00000001400068b0 f i mainwnd.obj
 0001:000058b0       ??0?$allocator@D@std@@QEAA@XZ 00000001400068b0 f i Reconstruction.obj
 0001:000058b0       ??0?$allocator@PEAULogData@log4z@zsummer@@@std@@QEAA@XZ 00000001400068b0 f i log4z.obj
 0001:000058b0       ??0?$allocator@PEAVExceptionHandler@google_breakpad@@@std@@QEAA@XZ 00000001400068b0 f i exception_handler.obj
 0001:000058b0       ??0?$allocator@U?$_List_node@U?$pair@_JV?$basic_string@DU?$char_traits@D@std@@V?$allocator@D@2@@std@@@std@@PEAX@std@@@std@@QEAA@XZ 00000001400068b0 f i log4z.obj
 0001:000058b0       ??0?$allocator@U?$_List_node@UAppMemory@google_breakpad@@PEAX@std@@@std@@QEAA@XZ 00000001400068b0 f i exception_handler.obj
 0001:000058b0       ??0?$allocator@U?$_Tree_node@U?$pair@$$CBV?$basic_string@DU?$char_traits@D@std@@V?$allocator@D@2@@std@@H@std@@PEAX@std@@@std@@QEAA@XZ 00000001400068b0 f i log4z.obj
 0001:000058b0       ??0?$allocator@U?$_Tree_node@U?$pair@$$CBV?$basic_string@DU?$char_traits@D@std@@V?$allocator@D@2@@std@@ULoggerInfo@log4z@zsummer@@@std@@PEAX@std@@@std@@QEAA@XZ 00000001400068b0 f i log4z.obj
 0001:000058b0       ??0?$allocator@U?$_Tree_node@U?$pair@$$CBVQString@@V1@@std@@PEAX@std@@@std@@QEAA@XZ 00000001400068b0 f i httpdownloader.obj
 0001:000058b0       ??0?$allocator@U?$_Tree_node@U?$pair@$$CBVQString@@_N@std@@PEAX@std@@@std@@QEAA@XZ 00000001400068b0 f i httpdownloader.obj
 0001:000058b0       ??0?$allocator@_W@std@@QEAA@XZ 00000001400068b0 f i qt_breakpad.obj
 0001:000058b0       ??C?$QArrayDataPointer@H@@QEAAPEAU?$QArrayDataOps@H@@XZ 00000001400068b0 f i configlist.obj
 0001:000058b0       ??C?$QArrayDataPointer@PEAVBaseChildPane@@@@QEAAPEAU?$QArrayDataOps@PEAVBaseChildPane@@@@XZ 00000001400068b0 f i mainwnd.obj
 0001:000058b0       ??C?$QArrayDataPointer@PEAVBaseChildPane@@@@QEBAPEBU?$QArrayDataOps@PEAVBaseChildPane@@@@XZ 00000001400068b0 f i mainwnd.obj
 0001:000058b0       ??C?$QArrayDataPointer@PEAVDynamicBtn@@@@QEAAPEAU?$QArrayDataOps@PEAVDynamicBtn@@@@XZ 00000001400068b0 f i textshow.obj
 0001:000058b0       ??C?$QArrayDataPointer@PEAVDynamicBtn@@@@QEBAPEBU?$QArrayDataOps@PEAVDynamicBtn@@@@XZ 00000001400068b0 f i textshow.obj
 0001:000058b0       ??C?$QArrayDataPointer@PEAVQWidget@@@@QEAAPEAU?$QArrayDataOps@PEAVQWidget@@@@XZ 00000001400068b0 f i FramelessHelper.obj
 0001:000058b0       ??C?$QArrayDataPointer@PEAVQWidget@@@@QEBAPEBU?$QArrayDataOps@PEAVQWidget@@@@XZ 00000001400068b0 f i FramelessHelper.obj
 0001:000058b0       ??C?$QArrayDataPointer@PEAVWidgetData@@@@QEAAPEAU?$QArrayDataOps@PEAVWidgetData@@@@XZ 00000001400068b0 f i FramelessHelper.obj
 0001:000058b0       ??C?$QArrayDataPointer@PEAVWidgetData@@@@QEBAPEBU?$QArrayDataOps@PEAVWidgetData@@@@XZ 00000001400068b0 f i FramelessHelper.obj
 0001:000058b0       ??C?$QArrayDataPointer@UTItemRect@CSlider@@@@QEAAPEAU?$QArrayDataOps@UTItemRect@CSlider@@@@XZ 00000001400068b0 f i slider.obj
 0001:000058b0       ??C?$QArrayDataPointer@UTItemRect@CSlider@@@@QEBAPEBU?$QArrayDataOps@UTItemRect@CSlider@@@@XZ 00000001400068b0 f i slider.obj
 0001:000058b0       ??C?$QArrayDataPointer@UTNoteItem@NotificationMgr@@@@QEAAPEAU?$QArrayDataOps@UTNoteItem@NotificationMgr@@@@XZ 00000001400068b0 f i notificationpane.obj
 0001:000058b0       ??C?$QArrayDataPointer@UTNoteItem@NotificationMgr@@@@QEBAPEBU?$QArrayDataOps@UTNoteItem@NotificationMgr@@@@XZ 00000001400068b0 f i notificationpane.obj
 0001:000058b0       ??C?$QArrayDataPointer@VQPixmap@@@@QEAAPEAU?$QArrayDataOps@VQPixmap@@@@XZ 00000001400068b0 f i moviepicwidget.obj
 0001:000058b0       ??C?$QArrayDataPointer@VQPixmap@@@@QEBAPEBU?$QArrayDataOps@VQPixmap@@@@XZ 00000001400068b0 f i moviepicwidget.obj
 0001:000058b0       ??C?$QArrayDataPointer@VQPoint@@@@QEAAPEAU?$QArrayDataOps@VQPoint@@@@XZ 00000001400068b0 f i slider.obj
 0001:000058b0       ??C?$QArrayDataPointer@VQString@@@@QEAAPEAU?$QArrayDataOps@VQString@@@@XZ 00000001400068b0 f i utils.obj
 0001:000058b0       ??C?$QArrayDataPointer@VQString@@@@QEBAPEBU?$QArrayDataOps@VQString@@@@XZ 00000001400068b0 f i utils.obj
 0001:000058b0       ??C?$QArrayDataPointer@_K@@QEAAPEAU?$QArrayDataOps@_K@@XZ 00000001400068b0 f i qxtwindowsystem_win.obj
 0001:000058b0       ??C?$QArrayDataPointer@_K@@QEBAPEBU?$QArrayDataOps@_K@@XZ 00000001400068b0 f i qxtwindowsystem_win.obj
 0001:000058b0       ??D?$back_insert_iterator@V?$QList@VQString@@@@@std@@QEAAAEAV01@XZ 00000001400068b0 f i httpdownloader.obj
 0001:000058b0       ??D?$insert_iterator@V?$map@VQString@@V1@U?$less@VQString@@@std@@V?$allocator@U?$pair@$$CBVQString@@V1@@std@@@3@@std@@@std@@QEAAAEAV01@XZ 00000001400068b0 f i httpdownloader.obj
 0001:000058b0       ??D?$insert_iterator@V?$map@VQString@@_NU?$less@VQString@@@std@@V?$allocator@U?$pair@$$CBVQString@@_N@std@@@3@@std@@@std@@QEAAAEAV01@XZ 00000001400068b0 f i httpdownloader.obj
 0001:000058b0       ??E?$back_insert_iterator@V?$QList@VQString@@@@@std@@QEAAAEAV01@XZ 00000001400068b0 f i httpdownloader.obj
 0001:000058b0       ??E?$insert_iterator@V?$map@VQString@@V1@U?$less@VQString@@@std@@V?$allocator@U?$pair@$$CBVQString@@V1@@std@@@3@@std@@@std@@QEAAAEAV01@XZ 00000001400068b0 f i httpdownloader.obj
 0001:000058b0       ??E?$insert_iterator@V?$map@VQString@@_NU?$less@VQString@@@std@@V?$allocator@U?$pair@$$CBVQString@@_N@std@@@3@@std@@@std@@QEAAAEAV01@XZ 00000001400068b0 f i httpdownloader.obj
 0001:000058b0       ?_Extract@?$_In_place_key_extract_map@V?$basic_string@DU?$char_traits@D@std@@V?$allocator@D@2@@std@@U?$pair@V?$basic_string@DU?$char_traits@D@std@@V?$allocator@D@2@@std@@ULoggerInfo@log4z@zsummer@@@2@@std@@SAAEBV?$basic_string@DU?$char_traits@D@std@@V?$allocator@D@2@@2@AEBU?$pair@V?$basic_string@DU?$char_traits@D@std@@V?$allocator@D@2@@std@@ULoggerInfo@log4z@zsummer@@@2@@Z 00000001400068b0 f i log4z.obj
 0001:000058b0       ?_Extract@?$_In_place_key_extract_map@VQString@@U?$pair@$$CBVQString@@V1@@std@@@std@@SAAEBVQString@@AEBU?$pair@$$CBVQString@@V1@@2@@Z 00000001400068b0 f i httpdownloader.obj
 0001:000058b0       ?_Extract@?$_In_place_key_extract_map@VQString@@U?$pair@$$CBVQString@@_N@std@@@std@@SAAEBVQString@@AEBU?$pair@$$CBVQString@@_N@2@@Z 00000001400068b0 f i httpdownloader.obj
 0001:000058b0       ?_Get_data@?$deque@PEAULogData@log4z@zsummer@@V?$allocator@PEAULogData@log4z@zsummer@@@std@@@std@@AEAAAEAV?$_Deque_val@U?$_Deque_simple_types@PEAULogData@log4z@zsummer@@@std@@@2@XZ 00000001400068b0 f i log4z.obj
 0001:000058b0       ?_Get_data@?$deque@PEAULogData@log4z@zsummer@@V?$allocator@PEAULogData@log4z@zsummer@@@std@@@std@@AEBAAEBV?$_Deque_val@U?$_Deque_simple_types@PEAULogData@log4z@zsummer@@@std@@@2@XZ 00000001400068b0 f i log4z.obj
 0001:000058b0       ?_Get_first@?$_Compressed_pair@U?$less@V?$basic_string@DU?$char_traits@D@std@@V?$allocator@D@2@@std@@@std@@V?$_Compressed_pair@V?$allocator@U?$_Tree_node@U?$pair@$$CBV?$basic_string@DU?$char_traits@D@std@@V?$allocator@D@2@@std@@H@std@@PEAX@std@@@std@@V?$_Tree_val@U?$_Tree_simple_types@U?$pair@$$CBV?$basic_string@DU?$char_traits@D@std@@V?$allocator@D@2@@std@@H@std@@@std@@@2@$00@2@$00@std@@QEBAAEBU?$less@V?$basic_string@DU?$char_traits@D@std@@V?$allocator@D@2@@std@@@2@XZ 00000001400068b0 f i log4z.obj
 0001:000058b0       ?_Get_first@?$_Compressed_pair@U?$less@V?$basic_string@DU?$char_traits@D@std@@V?$allocator@D@2@@std@@@std@@V?$_Compressed_pair@V?$allocator@U?$_Tree_node@U?$pair@$$CBV?$basic_string@DU?$char_traits@D@std@@V?$allocator@D@2@@std@@ULoggerInfo@log4z@zsummer@@@std@@PEAX@std@@@std@@V?$_Tree_val@U?$_Tree_simple_types@U?$pair@$$CBV?$basic_string@DU?$char_traits@D@std@@V?$allocator@D@2@@std@@ULoggerInfo@log4z@zsummer@@@std@@@std@@@2@$00@2@$00@std@@QEBAAEBU?$less@V?$basic_string@DU?$char_traits@D@std@@V?$allocator@D@2@@std@@@2@XZ 00000001400068b0 f i log4z.obj
 0001:000058b0       ?_Get_first@?$_Compressed_pair@U?$less@VQString@@@std@@V?$_Compressed_pair@V?$allocator@U?$_Tree_node@U?$pair@$$CBVQString@@V1@@std@@PEAX@std@@@std@@V?$_Tree_val@U?$_Tree_simple_types@U?$pair@$$CBVQString@@V1@@std@@@std@@@2@$00@2@$00@std@@QEBAAEBU?$less@VQString@@@2@XZ 00000001400068b0 f i httpdownloader.obj
 0001:000058b0       ?_Get_first@?$_Compressed_pair@U?$less@VQString@@@std@@V?$_Compressed_pair@V?$allocator@U?$_Tree_node@U?$pair@$$CBVQString@@_N@std@@PEAX@std@@@std@@V?$_Tree_val@U?$_Tree_simple_types@U?$pair@$$CBVQString@@_N@std@@@std@@@2@$00@2@$00@std@@QEBAAEBU?$less@VQString@@@2@XZ 00000001400068b0 f i httpdownloader.obj
 0001:000058b0       ?_Get_first@?$_Compressed_pair@V?$allocator@D@std@@V?$_String_val@U?$_Simple_types@D@std@@@2@$00@std@@QEAAAEAV?$allocator@D@2@XZ 00000001400068b0 f i Reconstruction.obj
 0001:000058b0       ?_Get_first@?$_Compressed_pair@V?$allocator@D@std@@V?$_String_val@U?$_Simple_types@D@std@@@2@$00@std@@QEBAAEBV?$allocator@D@2@XZ 00000001400068b0 f i Reconstruction.obj
 0001:000058b0       ?_Get_first@?$_Compressed_pair@V?$allocator@D@std@@V?$_Vector_val@U?$_Simple_types@D@std@@@2@$00@std@@QEAAAEAV?$allocator@D@2@XZ 00000001400068b0 f i string_utils.obj
 0001:000058b0       ?_Get_first@?$_Compressed_pair@V?$allocator@D@std@@V?$_Vector_val@U?$_Simple_types@D@std@@@2@$00@std@@QEBAAEBV?$allocator@D@2@XZ 00000001400068b0 f i string_utils.obj
 0001:000058b0       ?_Get_first@?$_Compressed_pair@V?$allocator@PEAULogData@log4z@zsummer@@@std@@V?$_Deque_val@U?$_Deque_simple_types@PEAULogData@log4z@zsummer@@@std@@@2@$00@std@@QEAAAEAV?$allocator@PEAULogData@log4z@zsummer@@@2@XZ 00000001400068b0 f i log4z.obj
 0001:000058b0       ?_Get_first@?$_Compressed_pair@V?$allocator@PEAULogData@log4z@zsummer@@@std@@V?$_Deque_val@U?$_Deque_simple_types@PEAULogData@log4z@zsummer@@@std@@@2@$00@std@@QEBAAEBV?$allocator@PEAULogData@log4z@zsummer@@@2@XZ 00000001400068b0 f i log4z.obj
 0001:000058b0       ?_Get_first@?$_Compressed_pair@V?$allocator@PEAULogData@log4z@zsummer@@@std@@V?$_Vector_val@U?$_Simple_types@PEAULogData@log4z@zsummer@@@std@@@2@$00@std@@QEAAAEAV?$allocator@PEAULogData@log4z@zsummer@@@2@XZ 00000001400068b0 f i log4z.obj
 0001:000058b0       ?_Get_first@?$_Compressed_pair@V?$allocator@PEAULogData@log4z@zsummer@@@std@@V?$_Vector_val@U?$_Simple_types@PEAULogData@log4z@zsummer@@@std@@@2@$00@std@@QEBAAEBV?$allocator@PEAULogData@log4z@zsummer@@@2@XZ 00000001400068b0 f i log4z.obj
 0001:000058b0       ?_Get_first@?$_Compressed_pair@V?$allocator@PEAVExceptionHandler@google_breakpad@@@std@@V?$_Vector_val@U?$_Simple_types@PEAVExceptionHandler@google_breakpad@@@std@@@2@$00@std@@QEAAAEAV?$allocator@PEAVExceptionHandler@google_breakpad@@@2@XZ 00000001400068b0 f i exception_handler.obj
 0001:000058b0       ?_Get_first@?$_Compressed_pair@V?$allocator@PEAVExceptionHandler@google_breakpad@@@std@@V?$_Vector_val@U?$_Simple_types@PEAVExceptionHandler@google_breakpad@@@std@@@2@$00@std@@QEBAAEBV?$allocator@PEAVExceptionHandler@google_breakpad@@@2@XZ 00000001400068b0 f i exception_handler.obj
 0001:000058b0       ?_Get_first@?$_Compressed_pair@V?$allocator@U?$_List_node@U?$pair@_JV?$basic_string@DU?$char_traits@D@std@@V?$allocator@D@2@@std@@@std@@PEAX@std@@@std@@V?$_List_val@U?$_List_simple_types@U?$pair@_JV?$basic_string@DU?$char_traits@D@std@@V?$allocator@D@2@@std@@@std@@@std@@@2@$00@std@@QEAAAEAV?$allocator@U?$_List_node@U?$pair@_JV?$basic_string@DU?$char_traits@D@std@@V?$allocator@D@2@@std@@@std@@PEAX@std@@@2@XZ 00000001400068b0 f i log4z.obj
 0001:000058b0       ?_Get_first@?$_Compressed_pair@V?$allocator@U?$_List_node@U?$pair@_JV?$basic_string@DU?$char_traits@D@std@@V?$allocator@D@2@@std@@@std@@PEAX@std@@@std@@V?$_List_val@U?$_List_simple_types@U?$pair@_JV?$basic_string@DU?$char_traits@D@std@@V?$allocator@D@2@@std@@@std@@@std@@@2@$00@std@@QEBAAEBV?$allocator@U?$_List_node@U?$pair@_JV?$basic_string@DU?$char_traits@D@std@@V?$allocator@D@2@@std@@@std@@PEAX@std@@@2@XZ 00000001400068b0 f i log4z.obj
 0001:000058b0       ?_Get_first@?$_Compressed_pair@V?$allocator@U?$_List_node@UAppMemory@google_breakpad@@PEAX@std@@@std@@V?$_List_val@U?$_List_simple_types@UAppMemory@google_breakpad@@@std@@@2@$00@std@@QEAAAEAV?$allocator@U?$_List_node@UAppMemory@google_breakpad@@PEAX@std@@@2@XZ 00000001400068b0 f i exception_handler.obj
 0001:000058b0       ?_Get_first@?$_Compressed_pair@V?$allocator@U?$_List_node@UAppMemory@google_breakpad@@PEAX@std@@@std@@V?$_List_val@U?$_List_simple_types@UAppMemory@google_breakpad@@@std@@@2@$00@std@@QEBAAEBV?$allocator@U?$_List_node@UAppMemory@google_breakpad@@PEAX@std@@@2@XZ 00000001400068b0 f i exception_handler.obj
 0001:000058b0       ?_Get_first@?$_Compressed_pair@V?$allocator@U?$_Tree_node@U?$pair@$$CBV?$basic_string@DU?$char_traits@D@std@@V?$allocator@D@2@@std@@H@std@@PEAX@std@@@std@@V?$_Tree_val@U?$_Tree_simple_types@U?$pair@$$CBV?$basic_string@DU?$char_traits@D@std@@V?$allocator@D@2@@std@@H@std@@@std@@@2@$00@std@@QEAAAEAV?$allocator@U?$_Tree_node@U?$pair@$$CBV?$basic_string@DU?$char_traits@D@std@@V?$allocator@D@2@@std@@H@std@@PEAX@std@@@2@XZ 00000001400068b0 f i log4z.obj
 0001:000058b0       ?_Get_first@?$_Compressed_pair@V?$allocator@U?$_Tree_node@U?$pair@$$CBV?$basic_string@DU?$char_traits@D@std@@V?$allocator@D@2@@std@@H@std@@PEAX@std@@@std@@V?$_Tree_val@U?$_Tree_simple_types@U?$pair@$$CBV?$basic_string@DU?$char_traits@D@std@@V?$allocator@D@2@@std@@H@std@@@std@@@2@$00@std@@QEBAAEBV?$allocator@U?$_Tree_node@U?$pair@$$CBV?$basic_string@DU?$char_traits@D@std@@V?$allocator@D@2@@std@@H@std@@PEAX@std@@@2@XZ 00000001400068b0 f i log4z.obj
 0001:000058b0       ?_Get_first@?$_Compressed_pair@V?$allocator@U?$_Tree_node@U?$pair@$$CBV?$basic_string@DU?$char_traits@D@std@@V?$allocator@D@2@@std@@ULoggerInfo@log4z@zsummer@@@std@@PEAX@std@@@std@@V?$_Tree_val@U?$_Tree_simple_types@U?$pair@$$CBV?$basic_string@DU?$char_traits@D@std@@V?$allocator@D@2@@std@@ULoggerInfo@log4z@zsummer@@@std@@@std@@@2@$00@std@@QEAAAEAV?$allocator@U?$_Tree_node@U?$pair@$$CBV?$basic_string@DU?$char_traits@D@std@@V?$allocator@D@2@@std@@ULoggerInfo@log4z@zsummer@@@std@@PEAX@std@@@2@XZ 00000001400068b0 f i log4z.obj
 0001:000058b0       ?_Get_first@?$_Compressed_pair@V?$allocator@U?$_Tree_node@U?$pair@$$CBV?$basic_string@DU?$char_traits@D@std@@V?$allocator@D@2@@std@@ULoggerInfo@log4z@zsummer@@@std@@PEAX@std@@@std@@V?$_Tree_val@U?$_Tree_simple_types@U?$pair@$$CBV?$basic_string@DU?$char_traits@D@std@@V?$allocator@D@2@@std@@ULoggerInfo@log4z@zsummer@@@std@@@std@@@2@$00@std@@QEBAAEBV?$allocator@U?$_Tree_node@U?$pair@$$CBV?$basic_string@DU?$char_traits@D@std@@V?$allocator@D@2@@std@@ULoggerInfo@log4z@zsummer@@@std@@PEAX@std@@@2@XZ 00000001400068b0 f i log4z.obj
 0001:000058b0       ?_Get_first@?$_Compressed_pair@V?$allocator@U?$_Tree_node@U?$pair@$$CBVQString@@V1@@std@@PEAX@std@@@std@@V?$_Tree_val@U?$_Tree_simple_types@U?$pair@$$CBVQString@@V1@@std@@@std@@@2@$00@std@@QEAAAEAV?$allocator@U?$_Tree_node@U?$pair@$$CBVQString@@V1@@std@@PEAX@std@@@2@XZ 00000001400068b0 f i httpdownloader.obj
 0001:000058b0       ?_Get_first@?$_Compressed_pair@V?$allocator@U?$_Tree_node@U?$pair@$$CBVQString@@V1@@std@@PEAX@std@@@std@@V?$_Tree_val@U?$_Tree_simple_types@U?$pair@$$CBVQString@@V1@@std@@@std@@@2@$00@std@@QEBAAEBV?$allocator@U?$_Tree_node@U?$pair@$$CBVQString@@V1@@std@@PEAX@std@@@2@XZ 00000001400068b0 f i httpdownloader.obj
 0001:000058b0       ?_Get_first@?$_Compressed_pair@V?$allocator@U?$_Tree_node@U?$pair@$$CBVQString@@_N@std@@PEAX@std@@@std@@V?$_Tree_val@U?$_Tree_simple_types@U?$pair@$$CBVQString@@_N@std@@@std@@@2@$00@std@@QEAAAEAV?$allocator@U?$_Tree_node@U?$pair@$$CBVQString@@_N@std@@PEAX@std@@@2@XZ 00000001400068b0 f i httpdownloader.obj
 0001:000058b0       ?_Get_first@?$_Compressed_pair@V?$allocator@U?$_Tree_node@U?$pair@$$CBVQString@@_N@std@@PEAX@std@@@std@@V?$_Tree_val@U?$_Tree_simple_types@U?$pair@$$CBVQString@@_N@std@@@std@@@2@$00@std@@QEBAAEBV?$allocator@U?$_Tree_node@U?$pair@$$CBVQString@@_N@std@@PEAX@std@@@2@XZ 00000001400068b0 f i httpdownloader.obj
 0001:000058b0       ?_Get_first@?$_Compressed_pair@V?$allocator@_W@std@@V?$_String_val@U?$_Simple_types@_W@std@@@2@$00@std@@QEAAAEAV?$allocator@_W@2@XZ 00000001400068b0 f i qt_breakpad.obj
 0001:000058b0       ?_Get_first@?$_Compressed_pair@V?$allocator@_W@std@@V?$_String_val@U?$_Simple_types@_W@std@@@2@$00@std@@QEBAAEBV?$allocator@_W@2@XZ 00000001400068b0 f i qt_breakpad.obj
 0001:000058b0       ?_Get_first@?$_Compressed_pair@V?$allocator@_W@std@@V?$_Vector_val@U?$_Simple_types@_W@std@@@2@$00@std@@QEAAAEAV?$allocator@_W@2@XZ 00000001400068b0 f i string_utils.obj
 0001:000058b0       ?_Get_first@?$_Compressed_pair@V?$allocator@_W@std@@V?$_Vector_val@U?$_Simple_types@_W@std@@@2@$00@std@@QEBAAEBV?$allocator@_W@2@XZ 00000001400068b0 f i string_utils.obj
 0001:000058b0       ?castHelper@?$QBasicUtf8StringView@$0A@@@CAPEBDPEBD@Z 00000001400068b0 f i Reconstruction.obj
 0001:000058b0       ?data@?$array@D$0BM@@std@@QEBAPEBDXZ 00000001400068b0 f i moc_httpdownloader.obj
 0001:000058b0       ?nextFree@Entry@?$Span@U?$Node@PEAVQWidget@@PEAVWidgetData@@@QHashPrivate@@@QHashPrivate@@QEAAAEAEXZ 00000001400068b0 f i FramelessHelper.obj
 0001:000058b0       ?nextFree@Entry@?$Span@U?$Node@U?$pair@II@std@@PEAVQxtGlobalShortcut@@@QHashPrivate@@@QHashPrivate@@QEAAAEAEXZ 00000001400068b0 f i qxtglobalshortcut.obj
 0001:000058b0       ?node@Entry@?$Span@U?$Node@PEAVQWidget@@PEAVWidgetData@@@QHashPrivate@@@QHashPrivate@@QEAAAEAU?$Node@PEAVQWidget@@PEAVWidgetData@@@3@XZ 00000001400068b0 f i FramelessHelper.obj
 0001:000058b0       ?node@Entry@?$Span@U?$Node@U?$pair@II@std@@PEAVQxtGlobalShortcut@@@QHashPrivate@@@QHashPrivate@@QEAAAEAU?$Node@U?$pair@II@std@@PEAVQxtGlobalShortcut@@@3@XZ 00000001400068b0 f i qxtglobalshortcut.obj
 0001:000058c0       ??$_Deallocate@$07$0A@@std@@YAXPEAX_K@Z 00000001400068c0 f i mainwnd.obj
 0001:000058c0       ??$_Deallocate@$0BA@$0A@@std@@YAXPEAX_K@Z 00000001400068c0 f i Reconstruction.obj
 0001:00005900       ??$_Destroy_in_place@PEAD@std@@YAXAEAPEAD@Z 0000000140006900 f i Reconstruction.obj
 0001:00005900       ??$_Destroy_in_place@PEAPEAULogData@log4z@zsummer@@@std@@YAXAEAPEAPEAULogData@log4z@zsummer@@@Z 0000000140006900 f i log4z.obj
 0001:00005900       ??$_Destroy_in_place@PEAU?$_List_node@U?$pair@_JV?$basic_string@DU?$char_traits@D@std@@V?$allocator@D@2@@std@@@std@@PEAX@std@@@std@@YAXAEAPEAU?$_List_node@U?$pair@_JV?$basic_string@DU?$char_traits@D@std@@V?$allocator@D@2@@std@@@std@@PEAX@0@@Z 0000000140006900 f i log4z.obj
 0001:00005900       ??$_Destroy_in_place@PEAU?$_List_node@UAppMemory@google_breakpad@@PEAX@std@@@std@@YAXAEAPEAU?$_List_node@UAppMemory@google_breakpad@@PEAX@0@@Z 0000000140006900 f i exception_handler.obj
 0001:00005900       ??$_Destroy_in_place@PEAU?$_Tree_node@U?$pair@$$CBV?$basic_string@DU?$char_traits@D@std@@V?$allocator@D@2@@std@@H@std@@PEAX@std@@@std@@YAXAEAPEAU?$_Tree_node@U?$pair@$$CBV?$basic_string@DU?$char_traits@D@std@@V?$allocator@D@2@@std@@H@std@@PEAX@0@@Z 0000000140006900 f i log4z.obj
 0001:00005900       ??$_Destroy_in_place@PEAU?$_Tree_node@U?$pair@$$CBV?$basic_string@DU?$char_traits@D@std@@V?$allocator@D@2@@std@@ULoggerInfo@log4z@zsummer@@@std@@PEAX@std@@@std@@YAXAEAPEAU?$_Tree_node@U?$pair@$$CBV?$basic_string@DU?$char_traits@D@std@@V?$allocator@D@2@@std@@ULoggerInfo@log4z@zsummer@@@std@@PEAX@0@@Z 0000000140006900 f i log4z.obj
 0001:00005900       ??$_Destroy_in_place@PEAU?$_Tree_node@U?$pair@$$CBVQString@@V1@@std@@PEAX@std@@@std@@YAXAEAPEAU?$_Tree_node@U?$pair@$$CBVQString@@V1@@std@@PEAX@0@@Z 0000000140006900 f i httpdownloader.obj
 0001:00005900       ??$_Destroy_in_place@PEAU?$_Tree_node@U?$pair@$$CBVQString@@_N@std@@PEAX@std@@@std@@YAXAEAPEAU?$_Tree_node@U?$pair@$$CBVQString@@_N@std@@PEAX@0@@Z 0000000140006900 f i httpdownloader.obj
 0001:00005900       ??$_Destroy_in_place@PEA_W@std@@YAXAEAPEA_W@Z 0000000140006900 f i qt_breakpad.obj
 0001:00005900       ??1?$QxtPrivateInterface@VQxtGlobalShortcut@@VQxtGlobalShortcutPrivate@@@@QEAA@XZ 0000000140006900 f i qxtglobalshortcut.obj
 0001:00005900       ??1QMinidumpContextWrapper@QtBreakpad@@QEAA@XZ 0000000140006900 f i qt_breakpad.obj
 0001:00005900       ??1QSlotObjectBase@QtPrivate@@IEAA@XZ 0000000140006900 f i mainwnd.obj
 0001:00005900       ??1_Bxty@?$_String_val@U?$_Simple_types@D@std@@@std@@QEAA@XZ 0000000140006900 f i Reconstruction.obj
 0001:00005900       ??1_Bxty@?$_String_val@U?$_Simple_types@_W@std@@@std@@QEAA@XZ 0000000140006900 f i qt_breakpad.obj
 0001:00005900       ?_Activate_SSO_buffer@?$_String_val@U?$_Simple_types@D@std@@@std@@QEAAXXZ 0000000140006900 f i Reconstruction.obj
 0001:00005900       ?_Activate_SSO_buffer@?$_String_val@U?$_Simple_types@_W@std@@@std@@QEAAXXZ 0000000140006900 f i qt_breakpad.obj
 0001:00005900       ?_Orphan_all@_Container_base0@std@@QEAAXXZ 0000000140006900 f i Reconstruction.obj
 0001:00005900       ?_Orphan_all@_Container_base12@std@@QEAAXXZ 0000000140006900 f i log4z.obj
 0001:00005900       ?_Release@_Fake_proxy_ptr_impl@std@@QEAAXXZ 0000000140006900 f i Reconstruction.obj
 0001:00005900       ?destroyAll@?$QPodArrayOps@H@QtPrivate@@QEAAXXZ 0000000140006900 f i configlist.obj
 0001:00005900       ?destroyAll@?$QPodArrayOps@PEAVBaseChildPane@@@QtPrivate@@QEAAXXZ 0000000140006900 f i mainwnd.obj
 0001:00005900       ?destroyAll@?$QPodArrayOps@PEAVDynamicBtn@@@QtPrivate@@QEAAXXZ 0000000140006900 f i textshow.obj
 0001:00005900       ?destroyAll@?$QPodArrayOps@PEAVQWidget@@@QtPrivate@@QEAAXXZ 0000000140006900 f i FramelessHelper.obj
 0001:00005900       ?destroyAll@?$QPodArrayOps@PEAVWidgetData@@@QtPrivate@@QEAAXXZ 0000000140006900 f i FramelessHelper.obj
 0001:00005900       ?destroyAll@?$QPodArrayOps@VQPoint@@@QtPrivate@@QEAAXXZ 0000000140006900 f i slider.obj
 0001:00005900       ?destroyAll@?$QPodArrayOps@_K@QtPrivate@@QEAAXXZ 0000000140006900 f i qxtwindowsystem_win.obj
 0001:00005910       ??$_Get_size_of_n@$00@std@@YA_K_K@Z 0000000140006910 f i Reconstruction.obj
 0001:00005930       ??$_Traits_equal@U?$char_traits@D@std@@@std@@YA_NQEBD_K01@Z 0000000140006930 f i Reconstruction.obj
 0001:00005990       ??$advance@PEBD_J@std@@YAXAEAPEBD_J@Z 0000000140006990 f i Reconstruction.obj
 0001:000059b0       ??$data@V?$basic_string@DU?$char_traits@D@std@@V?$allocator@D@2@@std@@@std@@YAPEBDAEBV?$basic_string@DU?$char_traits@D@std@@V?$allocator@D@2@@0@@Z 00000001400069b0 f i Reconstruction.obj
 0001:000059d0       ??$distance@PEBD@std@@YA_JPEBD0@Z 00000001400069d0 f i Reconstruction.obj
 0001:000059f0       ??$encodeType@D@QAnyStringView@@CA_KPEBD_J@Z 00000001400069f0 f i Reconstruction.obj
 0001:00005a30       ??$findChild@PEAVQComboBox@@@QObject@@QEBAPEAVQComboBox@@AEBVQString@@V?$QFlags@W4FindChildOption@Qt@@@@@Z 0000000140006a30 f i Reconstruction.obj
 0001:00005a70       ??$isAsciiOnlyCharsAtCompileTime@$$CBD@QAnyStringView@@CA_NPEBD_J@Z 0000000140006a70 f i Reconstruction.obj
 0001:00005a80       ??$lengthHelperContainer@D$09@QAnyStringView@@CA_JAEAY09$$CBD@Z 0000000140006a80 f i Reconstruction.obj
 0001:00005af0       ??$lengthHelperContainer@D$0P@@QAnyStringView@@CA_JAEAY0P@$$CBD@Z 0000000140006af0 f i Reconstruction.obj
 0001:00005b60       ??$lengthHelperContainer@V?$basic_string@DU?$char_traits@D@std@@V?$allocator@D@2@@std@@@?$QBasicUtf8StringView@$0A@@@CA_JAEBV?$basic_string@DU?$char_traits@D@std@@V?$allocator@D@2@@std@@@Z 0000000140006b60 f i Reconstruction.obj
 0001:00005b80       ??$max@_K@std@@YAAEB_KAEB_K0@Z 0000000140006b80 f i Reconstruction.obj
 0001:00005bd0       ??$min@_K@std@@YAAEB_KAEB_K0@Z 0000000140006bd0 f i Reconstruction.obj
 0001:00005c20       ??$next@PEBD@std@@YAPEBDPEBD_J@Z 0000000140006c20 f i Reconstruction.obj
 0001:00005c50       ??$size@V?$basic_string@DU?$char_traits@D@std@@V?$allocator@D@2@@std@@@std@@YA_KAEBV?$basic_string@DU?$char_traits@D@std@@V?$allocator@D@2@@0@@Z 0000000140006c50 f i Reconstruction.obj
 0001:00005c70       ??0?$QFlags@W4AlignmentFlag@Qt@@@@QEAA@XZ 0000000140006c70 f i Reconstruction.obj
 0001:00005c70       ??0?$QFlags@W4WindowType@Qt@@@@QEAA@XZ 0000000140006c70 f i Reconstruction.obj
 0001:00005c90       ??0?$QFlags@W4AlignmentFlag@Qt@@@@QEAA@W4AlignmentFlag@Qt@@@Z 0000000140006c90 f i mainwnd.obj
 0001:00005c90       ??0?$QFlags@W4ArrayOption@QArrayData@@@@QEAA@W4ArrayOption@QArrayData@@@Z 0000000140006c90 f i sysprotect.obj
 0001:00005c90       ??0?$QFlags@W4EditTrigger@QAbstractItemView@@@@QEAA@W4EditTrigger@QAbstractItemView@@@Z 0000000140006c90 f i configlist.obj
 0001:00005c90       ??0?$QFlags@W4FindChildOption@Qt@@@@QEAA@W4FindChildOption@Qt@@@Z 0000000140006c90 f i Reconstruction.obj
 0001:00005c90       ??0?$QFlags@W4ImageConversionFlag@Qt@@@@QEAA@W4ImageConversionFlag@Qt@@@Z 0000000140006c90 f i Reconstruction.obj
 0001:00005c90       ??0?$QFlags@W4KeyboardModifier@Qt@@@@QEAA@W4KeyboardModifier@Qt@@@Z 0000000140006c90 f i qxtglobalshortcut.obj
 0001:00005c90       ??0?$QFlags@W4MatchOption@QRegularExpression@@@@QEAA@W4MatchOption@QRegularExpression@@@Z 0000000140006c90 f i Reconstruction.obj
 0001:00005c90       ??0?$QFlags@W4OpenModeFlag@QIODeviceBase@@@@QEAA@W4OpenModeFlag@QIODeviceBase@@@Z 0000000140006c90 f i monitorthread.obj
 0001:00005c90       ??0?$QFlags@W4PatternOption@QRegularExpression@@@@QEAA@W4PatternOption@QRegularExpression@@@Z 0000000140006c90 f i Reconstruction.obj
 0001:00005c90       ??0?$QFlags@W4RenderHint@QPainter@@@@QEAA@W4RenderHint@QPainter@@@Z 0000000140006c90 f i slider.obj
 0001:00005c90       ??0?$QFlags@W4SplitBehaviorFlags@Qt@@@@QEAA@W4SplitBehaviorFlags@Qt@@@Z 0000000140006c90 f i keyhelper.obj
 0001:00005c90       ??0?$QFlags@W4StandardButton@QMessageBox@@@@QEAA@W4StandardButton@QMessageBox@@@Z 0000000140006c90 f i Reconstruction.obj
 0001:00005c90       ??0?$QFlags@W4StateFlag@QStyle@@@@QEAA@W4StateFlag@QStyle@@@Z 0000000140006c90 f i configlist.obj
 0001:00005c90       ??0?$QFlags@W4WindowState@Qt@@@@QEAA@W4WindowState@Qt@@@Z 0000000140006c90 f i mainwnd.obj
 0001:00005c90       ??0?$QFlags@W4WindowType@Qt@@@@QEAA@W4WindowType@Qt@@@Z 0000000140006c90 f i mainwnd.obj
 0001:00005c90       ??0?$QUrlTwoFlags@W4UrlFormattingOption@QUrl@@W4ComponentFormattingOption@2@@@QEAA@W4ComponentFormattingOption@QUrl@@@Z 0000000140006c90 f i httpdownloader.obj
 0001:00005c90       ??0?$_Atomic_storage@H$03@std@@QEAA@H@Z 0000000140006c90 f i mainwnd.obj
 0001:00005c90       ??0QFlag@@QEAA@H@Z         0000000140006c90 f i configlist.obj
 0001:00005c90       ??0QKeyCombination@@QEAA@W4Key@Qt@@@Z 0000000140006c90 f i qxtglobalshortcut.obj
 0001:00005cb0       ??0?$_String_val@U?$_Simple_types@D@std@@@std@@QEAA@XZ 0000000140006cb0 f i Reconstruction.obj
 0001:00005cb0       ??0?$_String_val@U?$_Simple_types@_W@std@@@std@@QEAA@XZ 0000000140006cb0 f i qt_breakpad.obj
 0001:00005cf0       ??0?$basic_string@DU?$char_traits@D@std@@V?$allocator@D@2@@std@@QEAA@QEBD@Z 0000000140006cf0 f i Reconstruction.obj
 0001:00005d50       ??0_Bxty@?$_String_val@U?$_Simple_types@D@std@@@std@@QEAA@XZ 0000000140006d50 f i Reconstruction.obj
 0001:00005d50       ??0_Bxty@?$_String_val@U?$_Simple_types@_W@std@@@std@@QEAA@XZ 0000000140006d50 f i qt_breakpad.obj
 0001:00005d70       ??0_Fake_proxy_ptr_impl@std@@QEAA@AEBU_Fake_allocator@1@AEBU_Container_base0@1@@Z 0000000140006d70 f i Reconstruction.obj
 0001:00005d90       ??0bad_alloc@std@@AEAA@QEBD@Z 0000000140006d90 f i Reconstruction.obj
 0001:00005dd0       ??0bad_alloc@std@@QEAA@AEBV01@@Z 0000000140006dd0 f i Reconstruction.obj
 0001:00005e10       ??0bad_array_new_length@std@@QEAA@AEBV01@@Z 0000000140006e10 f i Reconstruction.obj
 0001:00005e50       ??0bad_array_new_length@std@@QEAA@XZ 0000000140006e50 f i Reconstruction.obj
 0001:00005e90       ??0exception@std@@QEAA@AEBV01@@Z 0000000140006e90 f i Reconstruction.obj
 0001:00005ef0       ??0exception@std@@QEAA@QEBDH@Z 0000000140006ef0 f i Reconstruction.obj
 0001:00005f40       ??1?$_Compressed_pair@V?$allocator@D@std@@V?$_String_val@U?$_Simple_types@D@std@@@2@$00@std@@QEAA@XZ 0000000140006f40 f i Reconstruction.obj
 0001:00005f40       ??1?$_Compressed_pair@V?$allocator@_W@std@@V?$_String_val@U?$_Simple_types@_W@std@@@2@$00@std@@QEAA@XZ 0000000140006f40 f i qt_breakpad.obj
 0001:00005f60       ??1?$_String_val@U?$_Simple_types@D@std@@@std@@QEAA@XZ 0000000140006f60 f i Reconstruction.obj
 0001:00005f60       ??1?$_String_val@U?$_Simple_types@_W@std@@@std@@QEAA@XZ 0000000140006f60 f i qt_breakpad.obj
 0001:00005f80       ??1?$basic_string@DU?$char_traits@D@std@@V?$allocator@D@2@@std@@QEAA@XZ 0000000140006f80 f i Reconstruction.obj
 0001:00005fb0       ??1BaseChildPane@@UEAA@XZ  0000000140006fb0 f i Reconstruction.obj
 0001:00005fb0       ??1RollTitles@@UEAA@XZ     0000000140006fb0 f i rolltitles.obj
 0001:00005fe0       ??1bad_alloc@std@@UEAA@XZ  0000000140006fe0 f i Reconstruction.obj
 0001:00006000       ??1bad_array_new_length@std@@UEAA@XZ 0000000140007000 f i Reconstruction.obj
 0001:00006020       ??1exception@std@@UEAA@XZ  0000000140007020 f i Reconstruction.obj
 0001:00006050       ??2@YAPEAX_KPEAX@Z         0000000140007050 f i Reconstruction.obj
 0001:00006060       ??H@YA?AVQString@@PEBDAEBV0@@Z 0000000140007060 f i Reconstruction.obj
 0001:000060f4       ??_EQCheckBox@@WBA@EAAPEAXI@Z 00000001400070f4 f i Reconstruction.obj
 0001:00006100       ??_EQComboBox@@WBA@EAAPEAXI@Z 0000000140007100 f i Reconstruction.obj
 0001:0000610c       ??_EQGridLayout@@WBA@EAAPEAXI@Z 000000014000710c f i Reconstruction.obj
 0001:00006118       ??_EQHBoxLayout@@WBA@EAAPEAXI@Z 0000000140007118 f i Reconstruction.obj
 0001:00006124       ??_EQLabel@@WBA@EAAPEAXI@Z 0000000140007124 f i Reconstruction.obj
 0001:00006130       ??_EQLineEdit@@WBA@EAAPEAXI@Z 0000000140007130 f i Reconstruction.obj
 0001:0000613c       ??_EQPushButton@@WBA@EAAPEAXI@Z 000000014000713c f i Reconstruction.obj
 0001:00006148       ??_EQTextEdit@@WBA@EAAPEAXI@Z 0000000140007148 f i Reconstruction.obj
 0001:00006154       ??_EQVBoxLayout@@WBA@EAAPEAXI@Z 0000000140007154 f i Reconstruction.obj
 0001:00006160       ??_EReconstruction@@WBA@EAAPEAXI@Z 0000000140007160 f i Reconstruction.obj
 0001:00006170       ??_EQCheckBox@@UEAAPEAXI@Z 0000000140007170 f i Reconstruction.obj
 0001:00006170       ??_GQCheckBox@@UEAAPEAXI@Z 0000000140007170 f i Reconstruction.obj
 0001:000061b0       ??_EQComboBox@@UEAAPEAXI@Z 00000001400071b0 f i Reconstruction.obj
 0001:000061b0       ??_GQComboBox@@UEAAPEAXI@Z 00000001400071b0 f i Reconstruction.obj
 0001:000061f0       ??_EQGridLayout@@UEAAPEAXI@Z 00000001400071f0 f i Reconstruction.obj
 0001:000061f0       ??_GQGridLayout@@UEAAPEAXI@Z 00000001400071f0 f i Reconstruction.obj
 0001:00006230       ??_EQHBoxLayout@@UEAAPEAXI@Z 0000000140007230 f i Reconstruction.obj
 0001:00006230       ??_GQHBoxLayout@@UEAAPEAXI@Z 0000000140007230 f i Reconstruction.obj
 0001:00006270       ??_EQLabel@@UEAAPEAXI@Z    0000000140007270 f i Reconstruction.obj
 0001:00006270       ??_GQLabel@@UEAAPEAXI@Z    0000000140007270 f i Reconstruction.obj
 0001:000062b0       ??_EQLineEdit@@UEAAPEAXI@Z 00000001400072b0 f i Reconstruction.obj
 0001:000062b0       ??_GQLineEdit@@UEAAPEAXI@Z 00000001400072b0 f i Reconstruction.obj
 0001:000062f0       ??_EQPushButton@@UEAAPEAXI@Z 00000001400072f0 f i Reconstruction.obj
 0001:000062f0       ??_GQPushButton@@UEAAPEAXI@Z 00000001400072f0 f i Reconstruction.obj
 0001:00006330       ??_EQSpacerItem@@UEAAPEAXI@Z 0000000140007330 f i Reconstruction.obj
 0001:00006330       ??_GQSpacerItem@@UEAAPEAXI@Z 0000000140007330 f i Reconstruction.obj
 0001:00006370       ??_EQTextEdit@@UEAAPEAXI@Z 0000000140007370 f i Reconstruction.obj
 0001:00006370       ??_GQTextEdit@@UEAAPEAXI@Z 0000000140007370 f i Reconstruction.obj
 0001:000063b0       ??_EQVBoxLayout@@UEAAPEAXI@Z 00000001400073b0 f i Reconstruction.obj
 0001:000063b0       ??_GQVBoxLayout@@UEAAPEAXI@Z 00000001400073b0 f i Reconstruction.obj
 0001:000063f0       ??_EReconstruction@@UEAAPEAXI@Z 00000001400073f0 f i Reconstruction.obj
 0001:000063f0       ??_GReconstruction@@UEAAPEAXI@Z 00000001400073f0 f i Reconstruction.obj
 0001:00006430       ??_Ebad_alloc@std@@UEAAPEAXI@Z 0000000140007430 f i Reconstruction.obj
 0001:00006430       ??_Gbad_alloc@std@@UEAAPEAXI@Z 0000000140007430 f i Reconstruction.obj
 0001:00006470       ??_Ebad_array_new_length@std@@UEAAPEAXI@Z 0000000140007470 f i Reconstruction.obj
 0001:00006470       ??_Gbad_array_new_length@std@@UEAAPEAXI@Z 0000000140007470 f i Reconstruction.obj
 0001:000064b0       ??_Eexception@std@@UEAAPEAXI@Z 00000001400074b0 f i Reconstruction.obj
 0001:000064b0       ??_Gexception@std@@UEAAPEAXI@Z 00000001400074b0 f i Reconstruction.obj
 0001:000064f0       ?_Adjust_manually_vector_aligned@std@@YAXAEAPEAXAEA_K@Z 00000001400074f0 f i Reconstruction.obj
 0001:00006590       ?_Allocate@_Default_allocate_traits@std@@SAPEAX_K@Z 0000000140007590 f i Reconstruction.obj
 0001:000065b0       ?_Calculate_growth@?$basic_string@DU?$char_traits@D@std@@V?$allocator@D@2@@std@@AEBA_K_K@Z 00000001400075b0 f i Reconstruction.obj
 0001:00006600       ?_Calculate_growth@?$basic_string@DU?$char_traits@D@std@@V?$allocator@D@2@@std@@CA_K_K00@Z 0000000140007600 f i Reconstruction.obj
 0001:000066a0       ?_Equal@?$basic_string@DU?$char_traits@D@std@@V?$allocator@D@2@@std@@QEBA_NQEBD@Z 00000001400076a0 f i Reconstruction.obj
 0001:00006700       ??$get@$0A@PEAU?$QTypedArrayData@PEAVQWidget@@@@PEAPEAVQWidget@@@std@@YA$$QEAPEAU?$QTypedArrayData@PEAVQWidget@@@@$$QEAU?$pair@PEAU?$QTypedArrayData@PEAVQWidget@@@@PEAPEAVQWidget@@@0@@Z 0000000140007700 f i FramelessHelper.obj
 0001:00006700       ??$get@$0A@PEAU?$QTypedArrayData@UTItemRect@CSlider@@@@PEAUTItemRect@CSlider@@@std@@YA$$QEAPEAU?$QTypedArrayData@UTItemRect@CSlider@@@@$$QEAU?$pair@PEAU?$QTypedArrayData@UTItemRect@CSlider@@@@PEAUTItemRect@CSlider@@@0@@Z 0000000140007700 f i slider.obj
 0001:00006700       ??$get@$0A@PEAU?$QTypedArrayData@UTNoteItem@NotificationMgr@@@@PEAUTNoteItem@NotificationMgr@@@std@@YA$$QEAPEAU?$QTypedArrayData@UTNoteItem@NotificationMgr@@@@$$QEAU?$pair@PEAU?$QTypedArrayData@UTNoteItem@NotificationMgr@@@@PEAUTNoteItem@NotificationMgr@@@0@@Z 0000000140007700 f i notificationpane.obj
 0001:00006700       ??$get@$0A@PEAU?$QTypedArrayData@VQPixmap@@@@PEAVQPixmap@@@std@@YA$$QEAPEAU?$QTypedArrayData@VQPixmap@@@@$$QEAU?$pair@PEAU?$QTypedArrayData@VQPixmap@@@@PEAVQPixmap@@@0@@Z 0000000140007700 f i moviepicwidget.obj
 0001:00006700       ??$get@$0A@PEAU?$QTypedArrayData@VQPoint@@@@PEAVQPoint@@@std@@YA$$QEAPEAU?$QTypedArrayData@VQPoint@@@@$$QEAU?$pair@PEAU?$QTypedArrayData@VQPoint@@@@PEAVQPoint@@@0@@Z 0000000140007700 f i slider.obj
 0001:00006700       ??$get@$0A@PEAU?$QTypedArrayData@VQString@@@@PEAVQString@@@std@@YA$$QEAPEAU?$QTypedArrayData@VQString@@@@$$QEAU?$pair@PEAU?$QTypedArrayData@VQString@@@@PEAVQString@@@0@@Z 0000000140007700 f i keyhelper.obj
 0001:00006700       ??$get@$0A@PEAU?$QTypedArrayData@_K@@PEA_K@std@@YA$$QEAPEAU?$QTypedArrayData@_K@@$$QEAU?$pair@PEAU?$QTypedArrayData@_K@@PEA_K@0@@Z 0000000140007700 f i qxtwindowsystem_win.obj
 0001:00006700       ?_Get_scary@?$_Tree@V?$_Tmap_traits@V?$basic_string@DU?$char_traits@D@std@@V?$allocator@D@2@@std@@HU?$less@V?$basic_string@DU?$char_traits@D@std@@V?$allocator@D@2@@std@@@2@V?$allocator@U?$pair@$$CBV?$basic_string@DU?$char_traits@D@std@@V?$allocator@D@2@@std@@H@std@@@2@$0A@@std@@@std@@IEAAPEAV?$_Tree_val@U?$_Tree_simple_types@U?$pair@$$CBV?$basic_string@DU?$char_traits@D@std@@V?$allocator@D@2@@std@@H@std@@@std@@@2@XZ 0000000140007700 f i log4z.obj
 0001:00006700       ?_Get_scary@?$_Tree@V?$_Tmap_traits@V?$basic_string@DU?$char_traits@D@std@@V?$allocator@D@2@@std@@HU?$less@V?$basic_string@DU?$char_traits@D@std@@V?$allocator@D@2@@std@@@2@V?$allocator@U?$pair@$$CBV?$basic_string@DU?$char_traits@D@std@@V?$allocator@D@2@@std@@H@std@@@2@$0A@@std@@@std@@IEBAPEBV?$_Tree_val@U?$_Tree_simple_types@U?$pair@$$CBV?$basic_string@DU?$char_traits@D@std@@V?$allocator@D@2@@std@@H@std@@@std@@@2@XZ 0000000140007700 f i log4z.obj
 0001:00006700       ?_Get_scary@?$_Tree@V?$_Tmap_traits@V?$basic_string@DU?$char_traits@D@std@@V?$allocator@D@2@@std@@ULoggerInfo@log4z@zsummer@@U?$less@V?$basic_string@DU?$char_traits@D@std@@V?$allocator@D@2@@std@@@2@V?$allocator@U?$pair@$$CBV?$basic_string@DU?$char_traits@D@std@@V?$allocator@D@2@@std@@ULoggerInfo@log4z@zsummer@@@std@@@2@$0A@@std@@@std@@IEAAPEAV?$_Tree_val@U?$_Tree_simple_types@U?$pair@$$CBV?$basic_string@DU?$char_traits@D@std@@V?$allocator@D@2@@std@@ULoggerInfo@log4z@zsummer@@@std@@@std@@@2@XZ 0000000140007700 f i log4z.obj
 0001:00006700       ?_Get_scary@?$_Tree@V?$_Tmap_traits@V?$basic_string@DU?$char_traits@D@std@@V?$allocator@D@2@@std@@ULoggerInfo@log4z@zsummer@@U?$less@V?$basic_string@DU?$char_traits@D@std@@V?$allocator@D@2@@std@@@2@V?$allocator@U?$pair@$$CBV?$basic_string@DU?$char_traits@D@std@@V?$allocator@D@2@@std@@ULoggerInfo@log4z@zsummer@@@std@@@2@$0A@@std@@@std@@IEBAPEBV?$_Tree_val@U?$_Tree_simple_types@U?$pair@$$CBV?$basic_string@DU?$char_traits@D@std@@V?$allocator@D@2@@std@@ULoggerInfo@log4z@zsummer@@@std@@@std@@@2@XZ 0000000140007700 f i log4z.obj
 0001:00006700       ?_Get_scary@?$_Tree@V?$_Tmap_traits@VQString@@V1@U?$less@VQString@@@std@@V?$allocator@U?$pair@$$CBVQString@@V1@@std@@@3@$0A@@std@@@std@@IEAAPEAV?$_Tree_val@U?$_Tree_simple_types@U?$pair@$$CBVQString@@V1@@std@@@std@@@2@XZ 0000000140007700 f i httpdownloader.obj
 0001:00006700       ?_Get_scary@?$_Tree@V?$_Tmap_traits@VQString@@V1@U?$less@VQString@@@std@@V?$allocator@U?$pair@$$CBVQString@@V1@@std@@@3@$0A@@std@@@std@@IEBAPEBV?$_Tree_val@U?$_Tree_simple_types@U?$pair@$$CBVQString@@V1@@std@@@std@@@2@XZ 0000000140007700 f i httpdownloader.obj
 0001:00006700       ?_Get_scary@?$_Tree@V?$_Tmap_traits@VQString@@_NU?$less@VQString@@@std@@V?$allocator@U?$pair@$$CBVQString@@_N@std@@@3@$0A@@std@@@std@@IEAAPEAV?$_Tree_val@U?$_Tree_simple_types@U?$pair@$$CBVQString@@_N@std@@@std@@@2@XZ 0000000140007700 f i httpdownloader.obj
 0001:00006700       ?_Get_scary@?$_Tree@V?$_Tmap_traits@VQString@@_NU?$less@VQString@@@std@@V?$allocator@U?$pair@$$CBVQString@@_N@std@@@3@$0A@@std@@@std@@IEBAPEBV?$_Tree_val@U?$_Tree_simple_types@U?$pair@$$CBVQString@@_N@std@@@std@@@2@XZ 0000000140007700 f i httpdownloader.obj
 0001:00006700       ?_Getal@?$_Tree@V?$_Tmap_traits@V?$basic_string@DU?$char_traits@D@std@@V?$allocator@D@2@@std@@HU?$less@V?$basic_string@DU?$char_traits@D@std@@V?$allocator@D@2@@std@@@2@V?$allocator@U?$pair@$$CBV?$basic_string@DU?$char_traits@D@std@@V?$allocator@D@2@@std@@H@std@@@2@$0A@@std@@@std@@IEAAAEAV?$allocator@U?$_Tree_node@U?$pair@$$CBV?$basic_string@DU?$char_traits@D@std@@V?$allocator@D@2@@std@@H@std@@PEAX@std@@@2@XZ 0000000140007700 f i log4z.obj
 0001:00006700       ?_Getal@?$_Tree@V?$_Tmap_traits@V?$basic_string@DU?$char_traits@D@std@@V?$allocator@D@2@@std@@HU?$less@V?$basic_string@DU?$char_traits@D@std@@V?$allocator@D@2@@std@@@2@V?$allocator@U?$pair@$$CBV?$basic_string@DU?$char_traits@D@std@@V?$allocator@D@2@@std@@H@std@@@2@$0A@@std@@@std@@IEBAAEBV?$allocator@U?$_Tree_node@U?$pair@$$CBV?$basic_string@DU?$char_traits@D@std@@V?$allocator@D@2@@std@@H@std@@PEAX@std@@@2@XZ 0000000140007700 f i log4z.obj
 0001:00006700       ?_Getal@?$_Tree@V?$_Tmap_traits@V?$basic_string@DU?$char_traits@D@std@@V?$allocator@D@2@@std@@ULoggerInfo@log4z@zsummer@@U?$less@V?$basic_string@DU?$char_traits@D@std@@V?$allocator@D@2@@std@@@2@V?$allocator@U?$pair@$$CBV?$basic_string@DU?$char_traits@D@std@@V?$allocator@D@2@@std@@ULoggerInfo@log4z@zsummer@@@std@@@2@$0A@@std@@@std@@IEAAAEAV?$allocator@U?$_Tree_node@U?$pair@$$CBV?$basic_string@DU?$char_traits@D@std@@V?$allocator@D@2@@std@@ULoggerInfo@log4z@zsummer@@@std@@PEAX@std@@@2@XZ 0000000140007700 f i log4z.obj
 0001:00006700       ?_Getal@?$_Tree@V?$_Tmap_traits@V?$basic_string@DU?$char_traits@D@std@@V?$allocator@D@2@@std@@ULoggerInfo@log4z@zsummer@@U?$less@V?$basic_string@DU?$char_traits@D@std@@V?$allocator@D@2@@std@@@2@V?$allocator@U?$pair@$$CBV?$basic_string@DU?$char_traits@D@std@@V?$allocator@D@2@@std@@ULoggerInfo@log4z@zsummer@@@std@@@2@$0A@@std@@@std@@IEBAAEBV?$allocator@U?$_Tree_node@U?$pair@$$CBV?$basic_string@DU?$char_traits@D@std@@V?$allocator@D@2@@std@@ULoggerInfo@log4z@zsummer@@@std@@PEAX@std@@@2@XZ 0000000140007700 f i log4z.obj
 0001:00006700       ?_Getal@?$_Tree@V?$_Tmap_traits@VQString@@V1@U?$less@VQString@@@std@@V?$allocator@U?$pair@$$CBVQString@@V1@@std@@@3@$0A@@std@@@std@@IEAAAEAV?$allocator@U?$_Tree_node@U?$pair@$$CBVQString@@V1@@std@@PEAX@std@@@2@XZ 0000000140007700 f i httpdownloader.obj
 0001:00006700       ?_Getal@?$_Tree@V?$_Tmap_traits@VQString@@V1@U?$less@VQString@@@std@@V?$allocator@U?$pair@$$CBVQString@@V1@@std@@@3@$0A@@std@@@std@@IEBAAEBV?$allocator@U?$_Tree_node@U?$pair@$$CBVQString@@V1@@std@@PEAX@std@@@2@XZ 0000000140007700 f i httpdownloader.obj
 0001:00006700       ?_Getal@?$_Tree@V?$_Tmap_traits@VQString@@_NU?$less@VQString@@@std@@V?$allocator@U?$pair@$$CBVQString@@_N@std@@@3@$0A@@std@@@std@@IEAAAEAV?$allocator@U?$_Tree_node@U?$pair@$$CBVQString@@_N@std@@PEAX@std@@@2@XZ 0000000140007700 f i httpdownloader.obj
 0001:00006700       ?_Getal@?$_Tree@V?$_Tmap_traits@VQString@@_NU?$less@VQString@@@std@@V?$allocator@U?$pair@$$CBVQString@@_N@std@@@3@$0A@@std@@@std@@IEBAAEBV?$allocator@U?$_Tree_node@U?$pair@$$CBVQString@@_N@std@@PEAX@std@@@2@XZ 0000000140007700 f i httpdownloader.obj
 0001:00006700       ?_Getal@?$basic_string@DU?$char_traits@D@std@@V?$allocator@D@2@@std@@AEAAAEAV?$allocator@D@2@XZ 0000000140007700 f i Reconstruction.obj
 0001:00006700       ?_Getal@?$basic_string@DU?$char_traits@D@std@@V?$allocator@D@2@@std@@AEBAAEBV?$allocator@D@2@XZ 0000000140007700 f i Reconstruction.obj
 0001:00006700       ?_Getal@?$basic_string@_WU?$char_traits@_W@std@@V?$allocator@_W@2@@std@@AEAAAEAV?$allocator@_W@2@XZ 0000000140007700 f i qt_breakpad.obj
 0001:00006700       ?_Getal@?$basic_string@_WU?$char_traits@_W@std@@V?$allocator@_W@2@@std@@AEBAAEBV?$allocator@_W@2@XZ 0000000140007700 f i qt_breakpad.obj
 0001:00006700       ?_Getal@?$deque@PEAULogData@log4z@zsummer@@V?$allocator@PEAULogData@log4z@zsummer@@@std@@@std@@AEAAAEAV?$allocator@PEAULogData@log4z@zsummer@@@2@XZ 0000000140007700 f i log4z.obj
 0001:00006700       ?_Getal@?$deque@PEAULogData@log4z@zsummer@@V?$allocator@PEAULogData@log4z@zsummer@@@std@@@std@@AEBAAEBV?$allocator@PEAULogData@log4z@zsummer@@@2@XZ 0000000140007700 f i log4z.obj
 0001:00006700       ?_Getal@?$list@U?$pair@_JV?$basic_string@DU?$char_traits@D@std@@V?$allocator@D@2@@std@@@std@@V?$allocator@U?$pair@_JV?$basic_string@DU?$char_traits@D@std@@V?$allocator@D@2@@std@@@std@@@2@@std@@AEAAAEAV?$allocator@U?$_List_node@U?$pair@_JV?$basic_string@DU?$char_traits@D@std@@V?$allocator@D@2@@std@@@std@@PEAX@std@@@2@XZ 0000000140007700 f i log4z.obj
 0001:00006700       ?_Getal@?$list@U?$pair@_JV?$basic_string@DU?$char_traits@D@std@@V?$allocator@D@2@@std@@@std@@V?$allocator@U?$pair@_JV?$basic_string@DU?$char_traits@D@std@@V?$allocator@D@2@@std@@@std@@@2@@std@@AEBAAEBV?$allocator@U?$_List_node@U?$pair@_JV?$basic_string@DU?$char_traits@D@std@@V?$allocator@D@2@@std@@@std@@PEAX@std@@@2@XZ 0000000140007700 f i log4z.obj
 0001:00006700       ?_Getal@?$list@UAppMemory@google_breakpad@@V?$allocator@UAppMemory@google_breakpad@@@std@@@std@@AEAAAEAV?$allocator@U?$_List_node@UAppMemory@google_breakpad@@PEAX@std@@@2@XZ 0000000140007700 f i exception_handler.obj
 0001:00006700       ?_Getal@?$list@UAppMemory@google_breakpad@@V?$allocator@UAppMemory@google_breakpad@@@std@@@std@@AEBAAEBV?$allocator@U?$_List_node@UAppMemory@google_breakpad@@PEAX@std@@@2@XZ 0000000140007700 f i exception_handler.obj
 0001:00006700       ?_Getal@?$vector@DV?$allocator@D@std@@@std@@AEAAAEAV?$allocator@D@2@XZ 0000000140007700 f i string_utils.obj
 0001:00006700       ?_Getal@?$vector@DV?$allocator@D@std@@@std@@AEBAAEBV?$allocator@D@2@XZ 0000000140007700 f i string_utils.obj
 0001:00006700       ?_Getal@?$vector@PEAULogData@log4z@zsummer@@V?$allocator@PEAULogData@log4z@zsummer@@@std@@@std@@AEAAAEAV?$allocator@PEAULogData@log4z@zsummer@@@2@XZ 0000000140007700 f i log4z.obj
 0001:00006700       ?_Getal@?$vector@PEAULogData@log4z@zsummer@@V?$allocator@PEAULogData@log4z@zsummer@@@std@@@std@@AEBAAEBV?$allocator@PEAULogData@log4z@zsummer@@@2@XZ 0000000140007700 f i log4z.obj
 0001:00006700       ?_Getal@?$vector@PEAVExceptionHandler@google_breakpad@@V?$allocator@PEAVExceptionHandler@google_breakpad@@@std@@@std@@AEAAAEAV?$allocator@PEAVExceptionHandler@google_breakpad@@@2@XZ 0000000140007700 f i exception_handler.obj
 0001:00006700       ?_Getal@?$vector@PEAVExceptionHandler@google_breakpad@@V?$allocator@PEAVExceptionHandler@google_breakpad@@@std@@@std@@AEBAAEBV?$allocator@PEAVExceptionHandler@google_breakpad@@@2@XZ 0000000140007700 f i exception_handler.obj
 0001:00006700       ?_Getal@?$vector@_WV?$allocator@_W@std@@@std@@AEAAAEAV?$allocator@_W@2@XZ 0000000140007700 f i string_utils.obj
 0001:00006700       ?_Getal@?$vector@_WV?$allocator@_W@std@@@std@@AEBAAEBV?$allocator@_W@2@XZ 0000000140007700 f i string_utils.obj
 0001:00006700       ?_Getcomp@?$_Tree@V?$_Tmap_traits@V?$basic_string@DU?$char_traits@D@std@@V?$allocator@D@2@@std@@HU?$less@V?$basic_string@DU?$char_traits@D@std@@V?$allocator@D@2@@std@@@2@V?$allocator@U?$pair@$$CBV?$basic_string@DU?$char_traits@D@std@@V?$allocator@D@2@@std@@H@std@@@2@$0A@@std@@@std@@IEBAAEBU?$less@V?$basic_string@DU?$char_traits@D@std@@V?$allocator@D@2@@std@@@2@XZ 0000000140007700 f i log4z.obj
 0001:00006700       ?_Getcomp@?$_Tree@V?$_Tmap_traits@V?$basic_string@DU?$char_traits@D@std@@V?$allocator@D@2@@std@@ULoggerInfo@log4z@zsummer@@U?$less@V?$basic_string@DU?$char_traits@D@std@@V?$allocator@D@2@@std@@@2@V?$allocator@U?$pair@$$CBV?$basic_string@DU?$char_traits@D@std@@V?$allocator@D@2@@std@@ULoggerInfo@log4z@zsummer@@@std@@@2@$0A@@std@@@std@@IEBAAEBU?$less@V?$basic_string@DU?$char_traits@D@std@@V?$allocator@D@2@@std@@@2@XZ 0000000140007700 f i log4z.obj
 0001:00006700       ?_Getcomp@?$_Tree@V?$_Tmap_traits@VQString@@V1@U?$less@VQString@@@std@@V?$allocator@U?$pair@$$CBVQString@@V1@@std@@@3@$0A@@std@@@std@@IEBAAEBU?$less@VQString@@@2@XZ 0000000140007700 f i httpdownloader.obj
 0001:00006700       ?_Getcomp@?$_Tree@V?$_Tmap_traits@VQString@@_NU?$less@VQString@@@std@@V?$allocator@U?$pair@$$CBVQString@@_N@std@@@3@$0A@@std@@@std@@IEBAAEBU?$less@VQString@@@2@XZ 0000000140007700 f i httpdownloader.obj
 0001:00006720       ?_Large_string_engaged@?$_String_val@U?$_Simple_types@D@std@@@std@@QEBA_NXZ 0000000140007720 f i Reconstruction.obj
 0001:00006750       ?_Myptr@?$_String_val@U?$_Simple_types@D@std@@@std@@QEAAPEADXZ 0000000140007750 f i log4z.obj
 0001:00006750       ?_Myptr@?$_String_val@U?$_Simple_types@D@std@@@std@@QEBAPEBDXZ 0000000140007750 f i Reconstruction.obj
 0001:00006790       ?_Throw_bad_array_new_length@std@@YAXXZ 0000000140007790 f i Reconstruction.obj
 0001:000067c0       ?_Tidy_deallocate@?$basic_string@DU?$char_traits@D@std@@V?$allocator@D@2@@std@@AEAAXXZ 00000001400077c0 f i Reconstruction.obj
 0001:00006890       ?_Xlen_string@std@@YAXXZ   0000000140007890 f i Reconstruction.obj
 0001:000068b0       ?allocate@?$allocator@D@std@@QEAAPEAD_K@Z 00000001400078b0 f i Reconstruction.obj
 0001:000068e0       ?assign@?$_Narrow_char_traits@DH@std@@SAXAEADAEBD@Z 00000001400078e0 f i Reconstruction.obj
 0001:00006900       ?c_str@?$basic_string@DU?$char_traits@D@std@@V?$allocator@D@2@@std@@QEBAPEBDXZ 0000000140007900 f i Reconstruction.obj
 0001:00006900       ?data@?$basic_string@DU?$char_traits@D@std@@V?$allocator@D@2@@std@@QEBAPEBDXZ 0000000140007900 f i Reconstruction.obj
 0001:00006920       ?compare@?$_Narrow_char_traits@DH@std@@SAHQEBD0_K@Z 0000000140007920 f i Reconstruction.obj
 0001:00006950       ?copy@?$_Char_traits@DH@std@@SAPEADQEADQEBD_K@Z 0000000140007950 f i Reconstruction.obj
 0001:00006990       ?deallocate@?$allocator@D@std@@QEAAXQEAD_K@Z 0000000140007990 f i Reconstruction.obj
 0001:000069c0       ?find@?$_Narrow_char_traits@DH@std@@SAPEBDQEBD_KAEBD@Z 00000001400079c0 f i Reconstruction.obj
 0001:00006a00       ?length@?$_Narrow_char_traits@DH@std@@SA_KQEBD@Z 0000000140007a00 f i Reconstruction.obj
 0001:00006a40       ?max@?$numeric_limits@_J@std@@SA_JXZ 0000000140007a40 f i Reconstruction.obj
 0001:00006a50       ?max_size@?$_Default_allocator_traits@V?$allocator@D@std@@@std@@SA_KAEBV?$allocator@D@2@@Z 0000000140007a50 f i Reconstruction.obj
 0001:00006a60       ?max_size@?$basic_string@DU?$char_traits@D@std@@V?$allocator@D@2@@std@@QEBA_KXZ 0000000140007a60 f i Reconstruction.obj
 0001:00006ad0       ?move@?$_Char_traits@DH@std@@SAPEADQEADQEBD_K@Z 0000000140007ad0 f i Reconstruction.obj
 0001:00006b10       ?length@?$basic_string@DU?$char_traits@D@std@@V?$allocator@D@2@@std@@QEBA_KXZ 0000000140007b10 f i log4z.obj
 0001:00006b10       ?size@?$basic_string@DU?$char_traits@D@std@@V?$allocator@D@2@@std@@QEBA_KXZ 0000000140007b10 f i Reconstruction.obj
 0001:00006b20       ?stod@std@@YANAEBV?$basic_string@DU?$char_traits@D@std@@V?$allocator@D@2@@1@PEA_K@Z 0000000140007b20 f i Reconstruction.obj
 0001:00006bd0       ?stoi@std@@YAHAEBV?$basic_string@DU?$char_traits@D@std@@V?$allocator@D@2@@1@PEA_KH@Z 0000000140007bd0 f i Reconstruction.obj
 0001:00006c80       ?what@exception@std@@UEBAPEBDXZ 0000000140007c80 f i Reconstruction.obj
 0001:00006cc0       ??0SequenceReconstructionDialog@@QEAA@PEAVQWidget@@@Z 0000000140007cc0 f   SequenceReconstructionDialog.obj
 0001:00006d60       ??1SequenceReconstructionDialog@@UEAA@XZ 0000000140007d60 f   SequenceReconstructionDialog.obj
 0001:00006dc0       ??$?0$$BY0BN@D$00@QAnyStringView@@QEAA@AEAY0BN@$$CBD@Z 0000000140007dc0 f i SequenceReconstructionDialog.obj
 0001:00006e10       ??$lengthHelperContainer@D$0BN@@QAnyStringView@@CA_JAEAY0BN@$$CBD@Z 0000000140007e10 f i SequenceReconstructionDialog.obj
 0001:00006e80       ??_ESequenceReconstructionDialog@@WBA@EAAPEAXI@Z 0000000140007e80 f i SequenceReconstructionDialog.obj
 0001:00006e90       ??_ESequenceReconstructionDialog@@UEAAPEAXI@Z 0000000140007e90 f i SequenceReconstructionDialog.obj
 0001:00006e90       ??_GSequenceReconstructionDialog@@UEAAPEAXI@Z 0000000140007e90 f i SequenceReconstructionDialog.obj
 0001:00006ed0       ?retranslateUi@Ui_SequenceReconstructionDialog@@QEAAXPEAVQDialog@@@Z 0000000140007ed0 f i SequenceReconstructionDialog.obj
 0001:00006f40       ?setupUi@Ui_SequenceReconstructionDialog@@QEAAXPEAVQDialog@@@Z 0000000140007f40 f i SequenceReconstructionDialog.obj
 0001:00007020       ??0SequenceReconstructionForm@@QEAA@PEAVQWidget@@@Z 0000000140008020 f   SequenceReconstructionForm.obj
 0001:00007160       ??1SequenceReconstructionForm@@UEAA@XZ 0000000140008160 f   SequenceReconstructionForm.obj
 0001:000071c0       ??$?0$$BY05D$00@QAnyStringView@@QEAA@AEAY05$$CBD@Z 00000001400081c0 f i SequenceReconstructionForm.obj
 0001:00007210       ??$?0$$BY06D$00@QAnyStringView@@QEAA@AEAY06$$CBD@Z 0000000140008210 f i SequenceReconstructionForm.obj
 0001:00007260       ??$?0$$BY07D$00@QAnyStringView@@QEAA@AEAY07$$CBD@Z 0000000140008260 f i SequenceReconstructionForm.obj
 0001:000072b0       ??$?0$$BY08D$00@QAnyStringView@@QEAA@AEAY08$$CBD@Z 00000001400082b0 f i SequenceReconstructionForm.obj
 0001:00007300       ??$?0$$BY0BB@D$00@QAnyStringView@@QEAA@AEAY0BB@$$CBD@Z 0000000140008300 f i SequenceReconstructionForm.obj
 0001:00007350       ??$?0$$BY0BD@D$00@QAnyStringView@@QEAA@AEAY0BD@$$CBD@Z 0000000140008350 f i SequenceReconstructionForm.obj
 0001:000073a0       ??$?0$$BY0BL@D$00@QAnyStringView@@QEAA@AEAY0BL@$$CBD@Z 00000001400083a0 f i SequenceReconstructionForm.obj
 0001:000073f0       ??$?0$$BY0L@D$00@QAnyStringView@@QEAA@AEAY0L@$$CBD@Z 00000001400083f0 f i SequenceReconstructionForm.obj
 0001:00007440       ??$?0$$BY0N@D$00@QAnyStringView@@QEAA@AEAY0N@$$CBD@Z 0000000140008440 f i SequenceReconstructionForm.obj
 0001:00007490       ??$lengthHelperContainer@D$05@QAnyStringView@@CA_JAEAY05$$CBD@Z 0000000140008490 f i SequenceReconstructionForm.obj
 0001:00007500       ??$lengthHelperContainer@D$06@QAnyStringView@@CA_JAEAY06$$CBD@Z 0000000140008500 f i SequenceReconstructionForm.obj
 0001:00007570       ??$lengthHelperContainer@D$07@QAnyStringView@@CA_JAEAY07$$CBD@Z 0000000140008570 f i SequenceReconstructionForm.obj
 0001:000075e0       ??$lengthHelperContainer@D$08@QAnyStringView@@CA_JAEAY08$$CBD@Z 00000001400085e0 f i SequenceReconstructionForm.obj
 0001:00007650       ??$lengthHelperContainer@D$0BB@@QAnyStringView@@CA_JAEAY0BB@$$CBD@Z 0000000140008650 f i SequenceReconstructionForm.obj
 0001:000076c0       ??$lengthHelperContainer@D$0BD@@QAnyStringView@@CA_JAEAY0BD@$$CBD@Z 00000001400086c0 f i SequenceReconstructionForm.obj
 0001:00007730       ??$lengthHelperContainer@D$0BL@@QAnyStringView@@CA_JAEAY0BL@$$CBD@Z 0000000140008730 f i SequenceReconstructionForm.obj
 0001:000077a0       ??$lengthHelperContainer@D$0L@@QAnyStringView@@CA_JAEAY0L@$$CBD@Z 00000001400087a0 f i SequenceReconstructionForm.obj
 0001:00007810       ??$lengthHelperContainer@D$0N@@QAnyStringView@@CA_JAEAY0N@$$CBD@Z 0000000140008810 f i SequenceReconstructionForm.obj
 0001:00007880       ??_EQWidget@@WBA@EAAPEAXI@Z 0000000140008880 f i SequenceReconstructionForm.obj
 0001:0000788c       ??_ESequenceReconstructionForm@@WBA@EAAPEAXI@Z 000000014000888c f i SequenceReconstructionForm.obj
 0001:000078a0       ??_EQWidget@@UEAAPEAXI@Z   00000001400088a0 f i SequenceReconstructionForm.obj
 0001:000078a0       ??_GQWidget@@UEAAPEAXI@Z   00000001400088a0 f i SequenceReconstructionForm.obj
 0001:000078e0       ??_ESequenceReconstructionForm@@UEAAPEAXI@Z 00000001400088e0 f i SequenceReconstructionForm.obj
 0001:000078e0       ??_GSequenceReconstructionForm@@UEAAPEAXI@Z 00000001400088e0 f i SequenceReconstructionForm.obj
 0001:00007920       ?retranslateUi@Ui_SequenceReconstructionForm@@QEAAXPEAVQWidget@@@Z 0000000140008920 f i SequenceReconstructionForm.obj
 0001:00007ca0       ?setupUi@Ui_SequenceReconstructionForm@@QEAAXPEAVQWidget@@@Z 0000000140008ca0 f i SequenceReconstructionForm.obj
 0001:0000a540       ??0ConfigListDelegate@@QEAA@XZ 000000014000b540 f   configlist.obj
 0001:0000a580       ??1ConfigListDelegate@@UEAA@XZ 000000014000b580 f   configlist.obj
 0001:0000a5b0       ?paint@ConfigListDelegate@@EEBAXPEAVQPainter@@AEBVQStyleOptionViewItem@@AEBVQModelIndex@@@Z 000000014000b5b0 f   configlist.obj
 0001:0000ac60       ?editorEvent@ConfigListDelegate@@EEAA_NPEAVQEvent@@PEAVQAbstractItemModel@@AEBVQStyleOptionViewItem@@AEBVQModelIndex@@@Z 000000014000bc60 f   configlist.obj
 0001:0000af50       ?sizeHint@ConfigListDelegate@@EEBA?AVQSize@@AEBVQStyleOptionViewItem@@AEBVQModelIndex@@@Z 000000014000bf50 f   configlist.obj
 0001:0000af90       ??0ConfigList@@QEAA@PEAVQWidget@@@Z 000000014000bf90 f   configlist.obj
 0001:0000b3b0       ?AddItem@ConfigList@@QEAAXVQString@@00@Z 000000014000c3b0 f   configlist.obj
 0001:0000b580       ??$deref@H@?$QAtomicOps@H@@SA_NAEAU?$atomic@H@std@@@Z 000000014000c580 f i configlist.obj
 0001:0000b5c0       ??0?$QArrayDataPointer@H@@QEAA@XZ 000000014000c5c0 f i configlist.obj
 0001:0000b5c0       ??0?$QArrayDataPointer@PEAVBaseChildPane@@@@QEAA@XZ 000000014000c5c0 f i mainwnd.obj
 0001:0000b5c0       ??0?$QArrayDataPointer@PEAVDynamicBtn@@@@QEAA@XZ 000000014000c5c0 f i textshow.obj
 0001:0000b5c0       ??0?$QArrayDataPointer@PEAVQWidget@@@@QEAA@XZ 000000014000c5c0 f i FramelessHelper.obj
 0001:0000b5c0       ??0?$QArrayDataPointer@PEAVWidgetData@@@@QEAA@XZ 000000014000c5c0 f i FramelessHelper.obj
 0001:0000b5c0       ??0?$QArrayDataPointer@UTItemRect@CSlider@@@@QEAA@XZ 000000014000c5c0 f i slider.obj
 0001:0000b5c0       ??0?$QArrayDataPointer@UTNoteItem@NotificationMgr@@@@QEAA@XZ 000000014000c5c0 f i notificationpane.obj
 0001:0000b5c0       ??0?$QArrayDataPointer@VQPixmap@@@@QEAA@XZ 000000014000c5c0 f i moviepicwidget.obj
 0001:0000b5c0       ??0?$QArrayDataPointer@VQPoint@@@@QEAA@XZ 000000014000c5c0 f i slider.obj
 0001:0000b5c0       ??0?$QArrayDataPointer@VQString@@@@QEAA@XZ 000000014000c5c0 f i monitorthread.obj
 0001:0000b5c0       ??0?$_Vector_val@U?$_Simple_types@D@std@@@std@@QEAA@XZ 000000014000c5c0 f i string_utils.obj
 0001:0000b5c0       ??0?$_Vector_val@U?$_Simple_types@PEAULogData@log4z@zsummer@@@std@@@std@@QEAA@XZ 000000014000c5c0 f i log4z.obj
 0001:0000b5c0       ??0?$_Vector_val@U?$_Simple_types@PEAVExceptionHandler@google_breakpad@@@std@@@std@@QEAA@XZ 000000014000c5c0 f i exception_handler.obj
 0001:0000b5c0       ??0?$_Vector_val@U?$_Simple_types@_W@std@@@std@@QEAA@XZ 000000014000c5c0 f i string_utils.obj
 0001:0000b600       ??0?$QFlags@W4AlignmentFlag@Qt@@@@QEAA@VQFlag@@@Z 000000014000c600 f i rolltitles.obj
 0001:0000b600       ??0?$QFlags@W4ArrayOption@QArrayData@@@@QEAA@VQFlag@@@Z 000000014000c600 f i sysprotect.obj
 0001:0000b600       ??0?$QFlags@W4KeyboardModifier@Qt@@@@QEAA@VQFlag@@@Z 000000014000c600 f i qxtglobalshortcut.obj
 0001:0000b600       ??0?$QFlags@W4MouseButton@Qt@@@@QEAA@VQFlag@@@Z 000000014000c600 f i basedlg.obj
 0001:0000b600       ??0?$QFlags@W4RenderHint@QPainter@@@@QEAA@VQFlag@@@Z 000000014000c600 f i slider.obj
 0001:0000b600       ??0?$QFlags@W4StateFlag@QStyle@@@@QEAA@VQFlag@@@Z 000000014000c600 f i configlist.obj
 0001:0000b600       ??0?$QFlags@W4WindowType@Qt@@@@QEAA@VQFlag@@@Z 000000014000c600 f i mainwnd.obj
 0001:0000b630       ??0?$QList@H@@QEAA@XZ      000000014000c630 f i configlist.obj
 0001:0000b630       ??0?$QList@PEAVBaseChildPane@@@@QEAA@XZ 000000014000c630 f i mainwnd.obj
 0001:0000b630       ??0?$QList@PEAVDynamicBtn@@@@QEAA@XZ 000000014000c630 f i textshow.obj
 0001:0000b630       ??0?$QList@UTItemRect@CSlider@@@@QEAA@XZ 000000014000c630 f i slider.obj
 0001:0000b630       ??0?$QList@UTNoteItem@NotificationMgr@@@@QEAA@XZ 000000014000c630 f i notificationpane.obj
 0001:0000b630       ??0?$QList@VQPixmap@@@@QEAA@XZ 000000014000c630 f i moviepicwidget.obj
 0001:0000b630       ??0?$QList@VQPoint@@@@QEAA@XZ 000000014000c630 f i slider.obj
 0001:0000b630       ??0?$QList@VQString@@@@QEAA@XZ 000000014000c630 f i monitorthread.obj
 0001:0000b650       ??1?$QArrayDataPointer@H@@QEAA@XZ 000000014000c650 f i configlist.obj
 0001:0000b690       ??1?$QList@H@@QEAA@XZ      000000014000c690 f i configlist.obj
 0001:0000b6b0       ??1BoderPane@@UEAA@XZ      000000014000c6b0 f i boderpane.obj
 0001:0000b6b0       ??1Clock@@UEAA@XZ          000000014000c6b0 f i perfectclock.obj
 0001:0000b6b0       ??1ConfigList@@UEAA@XZ     000000014000c6b0 f i configlist.obj
 0001:0000b6b0       ??1LineProgress@@UEAA@XZ   000000014000c6b0 f i lineprogress.obj
 0001:0000b6b0       ??1Progress@@UEAA@XZ       000000014000c6b0 f i rrogress.obj
 0001:0000b6b0       ??1Splitline@@UEAA@XZ      000000014000c6b0 f i splitline.obj
 0001:0000b6d0       ??$_Atomic_reinterpret_as@HH@std@@YAHAEBH@Z 000000014000c6d0 f i moc_httpdownloader.obj
 0001:0000b6d0       ??B?$QFlags@W4AlignmentFlag@Qt@@@@QEBAHXZ 000000014000c6d0 f i rolltitles.obj
 0001:0000b6d0       ??B?$QFlags@W4ArrayOption@QArrayData@@@@QEBAHXZ 000000014000c6d0 f i sysprotect.obj
 0001:0000b6d0       ??B?$QFlags@W4KeyboardModifier@Qt@@@@QEBAHXZ 000000014000c6d0 f i qxtglobalshortcut.obj
 0001:0000b6d0       ??B?$QFlags@W4MouseButton@Qt@@@@QEBAHXZ 000000014000c6d0 f i appinit.obj
 0001:0000b6d0       ??B?$QFlags@W4WindowType@Qt@@@@QEBAHXZ 000000014000c6d0 f i perfectclock.obj
 0001:0000b6d0       ??BQFlag@@QEBAHXZ          000000014000c6d0 f i configlist.obj
 0001:0000b6d0       ??BQKeyCombination@@QEBAHXZ 000000014000c6d0 f i qxtglobalshortcut.obj
 0001:0000b6d0       ?left@QMargins@@QEBAHXZ    000000014000c6d0 f i slider.obj
 0001:0000b6d0       ?toInt@?$QFlags@W4KeyboardModifier@Qt@@@@QEBAHXZ 000000014000c6d0 f i qxtglobalshortcut.obj
 0001:0000b6d0       ?x@QPoint@@QEBAHXZ         000000014000c6d0 f i slider.obj
 0001:0000b6e0       ??T?$QFlags@W4StateFlag@QStyle@@@@QEBA?AV0@W4StateFlag@QStyle@@@Z 000000014000c6e0 f i configlist.obj
 0001:0000b724       ??_EConfigList@@WBA@EAAPEAXI@Z 000000014000c724 f i configlist.obj
 0001:0000b730       ??_EQListView@@WBA@EAAPEAXI@Z 000000014000c730 f i configlist.obj
 0001:0000b740       ??_EConfigList@@UEAAPEAXI@Z 000000014000c740 f i configlist.obj
 0001:0000b740       ??_GConfigList@@UEAAPEAXI@Z 000000014000c740 f i configlist.obj
 0001:0000b780       ??_EConfigListDelegate@@UEAAPEAXI@Z 000000014000c780 f i configlist.obj
 0001:0000b780       ??_GConfigListDelegate@@UEAAPEAXI@Z 000000014000c780 f i configlist.obj
 0001:0000b7c0       ??_EQListView@@UEAAPEAXI@Z 000000014000c7c0 f i configlist.obj
 0001:0000b7c0       ??_GQListView@@UEAAPEAXI@Z 000000014000c7c0 f i configlist.obj
 0001:0000b800       ??_EQStandardItem@@UEAAPEAXI@Z 000000014000c800 f i configlist.obj
 0001:0000b800       ??_GQStandardItem@@UEAAPEAXI@Z 000000014000c800 f i configlist.obj
 0001:0000b840       ??_EQStandardItemModel@@UEAAPEAXI@Z 000000014000c840 f i configlist.obj
 0001:0000b840       ??_GQStandardItemModel@@UEAAPEAXI@Z 000000014000c840 f i configlist.obj
 0001:0000b880       ?_Negate@?$_Atomic_integral_facade@H@std@@SAHH@Z 000000014000c880 f i configlist.obj
 0001:0000b890       ?data@QModelIndex@@QEBA?AVQVariant@@H@Z 000000014000c890 f i configlist.obj
 0001:0000b9e0       ?deallocate@?$QTypedArrayData@H@@SAXPEAUQArrayData@@@Z 000000014000c9e0 f i configlist.obj
 0001:0000ba10       ?deref@?$QArrayDataPointer@H@@QEAA_NXZ 000000014000ca10 f i configlist.obj
 0001:0000ba10       ?deref@?$QArrayDataPointer@PEAVBaseChildPane@@@@QEAA_NXZ 000000014000ca10 f i mainwnd.obj
 0001:0000ba10       ?deref@?$QArrayDataPointer@PEAVDynamicBtn@@@@QEAA_NXZ 000000014000ca10 f i textshow.obj
 0001:0000ba10       ?deref@?$QArrayDataPointer@PEAVQWidget@@@@QEAA_NXZ 000000014000ca10 f i FramelessHelper.obj
 0001:0000ba10       ?deref@?$QArrayDataPointer@PEAVWidgetData@@@@QEAA_NXZ 000000014000ca10 f i FramelessHelper.obj
 0001:0000ba10       ?deref@?$QArrayDataPointer@UTItemRect@CSlider@@@@QEAA_NXZ 000000014000ca10 f i slider.obj
 0001:0000ba10       ?deref@?$QArrayDataPointer@UTNoteItem@NotificationMgr@@@@QEAA_NXZ 000000014000ca10 f i notificationpane.obj
 0001:0000ba10       ?deref@?$QArrayDataPointer@VQPixmap@@@@QEAA_NXZ 000000014000ca10 f i moviepicwidget.obj
 0001:0000ba10       ?deref@?$QArrayDataPointer@VQPoint@@@@QEAA_NXZ 000000014000ca10 f i slider.obj
 0001:0000ba10       ?deref@?$QArrayDataPointer@VQString@@@@QEAA_NXZ 000000014000ca10 f i utils.obj
 0001:0000ba10       ?deref@?$QArrayDataPointer@_K@@QEAA_NXZ 000000014000ca10 f i qxtwindowsystem_win.obj
 0001:0000ba60       ?deref@?$QBasicAtomicInteger@H@@QEAA_NXZ 000000014000ca60 f i configlist.obj
 0001:0000ba80       ?deref@QArrayData@@QEAA_NXZ 000000014000ca80 f i configlist.obj
 0001:0000baa0       ?fetch_add@?$_Atomic_integral@H$03@std@@QEAAHHW4memory_order@2@@Z 000000014000caa0 f i configlist.obj
 0001:0000bae0       ?fetch_sub@?$_Atomic_integral_facade@H@std@@QEAAHHW4memory_order@2@@Z 000000014000cae0 f i configlist.obj
 0001:0000bb20       ?testFlag@?$QFlags@W4StateFlag@QStyle@@@@QEBA_NW4StateFlag@QStyle@@@Z 000000014000cb20 f i configlist.obj
 0001:0000bb60       ?testFlags@?$QFlags@W4StateFlag@QStyle@@@@QEBA_NV1@@Z 000000014000cb60 f i configlist.obj
 0001:0000bbd0       ??$warnIfContainerIsNotShared@V?$QList@PEAVBaseChildPane@@@@X@QtPrivate@@YAXH@Z 000000014000cbd0 f i mainwnd.obj
 0001:0000bbd0       ??$warnIfContainerIsNotShared@V?$QList@PEAVDynamicBtn@@@@X@QtPrivate@@YAXH@Z 000000014000cbd0 f i textshow.obj
 0001:0000bbd0       ??$warnIfContainerIsNotShared@V?$QList@PEAVWidgetData@@@@X@QtPrivate@@YAXH@Z 000000014000cbd0 f i FramelessHelper.obj
 0001:0000bbd0       ??$warnIfContainerIsNotShared@V?$QList@UTItemRect@CSlider@@@@X@QtPrivate@@YAXH@Z 000000014000cbd0 f i slider.obj
 0001:0000bbd0       ??$warnIfContainerIsNotShared@V?$QList@VQString@@@@X@QtPrivate@@YAXH@Z 000000014000cbd0 f i utils.obj
 0001:0000bbd0       _Check_memory_order        000000014000cbd0 f i configlist.obj
 0001:0000bc00       ??0ConstraintCode@@QEAA@PEAVQWidget@@@Z 000000014000cc00 f   constraintcode.obj
 0001:0000bef0       ??1ConstraintCode@@UEAA@XZ 000000014000cef0 f   constraintcode.obj
 0001:0000bf40       ?InitCtrl@ConstraintCode@@AEAAXXZ 000000014000cf40 f   constraintcode.obj
 0001:0000d410       ?isPositiveDecimal@ConstraintCode@@AEAA_NAEBV?$basic_string@DU?$char_traits@D@std@@V?$allocator@D@2@@std@@@Z 000000014000e410 f   constraintcode.obj
 0001:0000d560       ?isInteger@ConstraintCode@@AEAA_NAEBV?$basic_string@DU?$char_traits@D@std@@V?$allocator@D@2@@std@@@Z 000000014000e560 f   constraintcode.obj
 0001:0000d6b0       ?on_begin_slots@ConstraintCode@@AEAAXXZ 000000014000e6b0 f   constraintcode.obj
 0001:0000e8f0       ?on_flush_slots@ConstraintCode@@AEAAXXZ 000000014000f8f0 f   constraintcode.obj
 0001:0000ea60       ?ConsCreateLineEditBoxItem@@YAPEAVQWidget@@VQString@@0PEAVQLineEdit@@@Z 000000014000fa60 f   constraintcode.obj
 0001:0000f07c       ??_EConstraintCode@@WBA@EAAPEAXI@Z 000000014001007c f i constraintcode.obj
 0001:0000f090       ??_EConstraintCode@@UEAAPEAXI@Z 0000000140010090 f i constraintcode.obj
 0001:0000f090       ??_GConstraintCode@@UEAAPEAXI@Z 0000000140010090 f i constraintcode.obj
 0001:0000f0d0       ??0MainPane@@QEAA@PEAVQWidget@@@Z 00000001400100d0 f   mainwnd.obj
 0001:0000f7a0       ??1MainPane@@UEAA@XZ       00000001400107a0 f   mainwnd.obj
 0001:0000f7e0       ?InitCtrl@MainPane@@AEAAXXZ 00000001400107e0 f   mainwnd.obj
 0001:0000f9a0       ?InitTop@MainPane@@AEAAXXZ 00000001400109a0 f   mainwnd.obj
 0001:00010060       ?InitCenter@MainPane@@AEAAXXZ 0000000140011060 f   mainwnd.obj
 0001:00010b70       ?InitBottom@MainPane@@AEAAXXZ 0000000140011b70 f   mainwnd.obj
 0001:00011270       ?UpdateCtrlState@MainPane@@AEAAXXZ 0000000140012270 f   mainwnd.obj
 0001:000113e0       ?ShowChild@MainPane@@AEAAXPEAVQWidget@@@Z 00000001400123e0 f   mainwnd.obj
 0001:00011790       ?HideChild@MainPane@@AEAAXXZ 0000000140012790 f   mainwnd.obj
 0001:00011ad0       ?GetChild@MainPane@@AEAAPEAVBaseChildPane@@XZ 0000000140012ad0 f   mainwnd.obj
 0001:00011bd0       ?GetTitle@MainPane@@AEAA?AVQString@@XZ 0000000140012bd0 f   mainwnd.obj
 0001:00011c60       ?paintEvent@MainPane@@EEAAXPEAVQPaintEvent@@@Z 0000000140012c60 f   mainwnd.obj
 0001:00011fa0       ??0MainWnd@@QEAA@PEAVQWidget@@@Z 0000000140012fa0 f   mainwnd.obj
 0001:00012280       ??1MainWnd@@UEAA@XZ        0000000140013280 f   mainwnd.obj
 0001:000122c0       ?paintEvent@MainWnd@@EEAAXPEAVQPaintEvent@@@Z 00000001400132c0 f   mainwnd.obj
 0001:00012580       ?CreateBtn@@YAPEAVQPushButton@@VQString@@0@Z 0000000140013580 f   mainwnd.obj
 0001:00012fe0       ?CreateMiniBtn@@YAPEAVQPushButton@@VQString@@0VQSize@@$$QEAV?$function@$$A6AXXZ@std@@@Z 0000000140013fe0 f   mainwnd.obj
 0001:000148d0       ??$?0$$BY0M@D$00@QAnyStringView@@QEAA@AEAY0M@$$CBD@Z 00000001400158d0 f i mainwnd.obj
 0001:00015e00       ??$findChildren@PEAVBaseChildPane@@@QObject@@QEBA?AV?$QList@PEAVBaseChildPane@@@@V?$QFlags@W4FindChildOption@Qt@@@@@Z 0000000140016e00 f i mainwnd.obj
 0001:00015ea0       ??$lengthHelperContainer@D$0M@@QAnyStringView@@CA_JAEAY0M@$$CBD@Z 0000000140016ea0 f i mainwnd.obj
 0001:00015f10       ??$qMakeForeachContainer@AEAV?$QList@PEAVBaseChildPane@@@@@QtPrivate@@YA?AV?$QForeachContainer@V?$QList@PEAVBaseChildPane@@@@@0@AEAV?$QList@PEAVBaseChildPane@@@@@Z 0000000140016f10 f i mainwnd.obj
 0001:00015f10       ??$qMakeForeachContainer@AEAV?$QList@PEAVDynamicBtn@@@@@QtPrivate@@YA?AV?$QForeachContainer@V?$QList@PEAVDynamicBtn@@@@@0@AEAV?$QList@PEAVDynamicBtn@@@@@Z 0000000140016f10 f i textshow.obj
 0001:00015f10       ??$qMakeForeachContainer@AEAV?$QList@PEAVWidgetData@@@@@QtPrivate@@YA?AV?$QForeachContainer@V?$QList@PEAVWidgetData@@@@@0@AEAV?$QList@PEAVWidgetData@@@@@Z 0000000140016f10 f i FramelessHelper.obj
 0001:00015f60       ??$qSqrt@H@@YA?A_PH@Z      0000000140016f60 f i mainwnd.obj
 0001:00015f80       ??$ref@H@?$QAtomicOps@H@@SA_NAEAU?$atomic@H@std@@@Z 0000000140016f80 f i mainwnd.obj
 0001:00015fc0       ??$sqrt@H$0A@@@YANH@Z      0000000140016fc0 f i mainwnd.obj
 0001:00015fe0       ??0?$ApplyReturnValue@X@QtPrivate@@QEAA@PEAX@Z 0000000140016fe0 f i mainwnd.obj
 0001:00015fe0       ??0?$QScopedPointer@VTrayIcon@@U?$QScopedPointerDeleter@VTrayIcon@@@@@@QEAA@PEAVTrayIcon@@@Z 0000000140016fe0 f i trayicon.obj
 0001:00015fe0       ??0?$scoped_ptr@VCrashGenerationClient@google_breakpad@@@google_breakpad@@QEAA@PEAVCrashGenerationClient@1@@Z 0000000140016fe0 f i exception_handler.obj
 0001:00015fe0       ??0const_iterator@?$QList@PEAVBaseChildPane@@@@QEAA@PEBQEAVBaseChildPane@@@Z 0000000140016fe0 f i mainwnd.obj
 0001:00015fe0       ??0const_iterator@?$QList@PEAVDynamicBtn@@@@QEAA@PEBQEAVDynamicBtn@@@Z 0000000140016fe0 f i textshow.obj
 0001:00015fe0       ??0const_iterator@?$QList@PEAVWidgetData@@@@QEAA@PEBQEAVWidgetData@@@Z 0000000140016fe0 f i FramelessHelper.obj
 0001:00015fe0       ??0const_iterator@?$QList@UTItemRect@CSlider@@@@QEAA@PEBUTItemRect@CSlider@@@Z 0000000140016fe0 f i slider.obj
 0001:00015fe0       ??0const_iterator@?$QList@VQString@@@@QEAA@PEBVQString@@@Z 0000000140016fe0 f i utils.obj
 0001:00015fe0       ??0iterator@?$QList@UTItemRect@CSlider@@@@QEAA@PEAUTItemRect@CSlider@@@Z 0000000140016fe0 f i slider.obj
 0001:00015fe0       ??0iterator@?$QList@UTNoteItem@NotificationMgr@@@@QEAA@PEAUTNoteItem@NotificationMgr@@@Z 0000000140016fe0 f i notificationpane.obj
 0001:00015fe0       ??0iterator@?$QList@VQPoint@@@@QEAA@PEAVQPoint@@@Z 0000000140016fe0 f i slider.obj
 0001:00015fe0       ??0iterator@?$QList@VQString@@@@QEAA@PEAVQString@@@Z 0000000140016fe0 f i keyhelper.obj
 0001:00015fe0       ??0iterator@?$QList@_K@@QEAA@PEA_K@Z 0000000140016fe0 f i qxtwindowsystem_win.obj
 0001:00015fe0       ??0iterator@?$QMap@VQString@@_N@@AEAA@V?$_Tree_iterator@V?$_Tree_val@U?$_Tree_simple_types@U?$pair@$$CBVQString@@_N@std@@@std@@@std@@@std@@@Z 0000000140016fe0 f i httpdownloader.obj
 0001:00016000       ??0?$QArrayDataPointer@PEAVBaseChildPane@@@@QEAA@AEBU0@@Z 0000000140017000 f i mainwnd.obj
 0001:00016000       ??0?$QArrayDataPointer@PEAVDynamicBtn@@@@QEAA@AEBU0@@Z 0000000140017000 f i textshow.obj
 0001:00016000       ??0?$QArrayDataPointer@PEAVWidgetData@@@@QEAA@AEBU0@@Z 0000000140017000 f i FramelessHelper.obj
 0001:00016000       ??0?$QArrayDataPointer@UTItemRect@CSlider@@@@QEAA@AEBU0@@Z 0000000140017000 f i slider.obj
 0001:00016000       ??0?$QArrayDataPointer@VQPixmap@@@@QEAA@AEBU0@@Z 0000000140017000 f i moviepicwidget.obj
 0001:00016000       ??0?$QArrayDataPointer@VQString@@@@QEAA@AEBU0@@Z 0000000140017000 f i utils.obj
 0001:00016000       ??0?$QArrayDataPointer@_K@@QEAA@AEBU0@@Z 0000000140017000 f i qxtwindowsystem_win.obj
 0001:00016060       ??0?$QAtomicInteger@H@@QEAA@H@Z 0000000140017060 f i mainwnd.obj
 0001:00016090       ??0?$QBasicAtomicInteger@H@@QEAA@H@Z 0000000140017090 f i mainwnd.obj
 0001:000160c0       ??0?$QForeachContainer@V?$QList@PEAVBaseChildPane@@@@@QtPrivate@@QEAA@AEBV?$QList@PEAVBaseChildPane@@@@@Z 00000001400170c0 f i mainwnd.obj
 0001:000160c0       ??0?$QForeachContainer@V?$QList@PEAVDynamicBtn@@@@@QtPrivate@@QEAA@AEBV?$QList@PEAVDynamicBtn@@@@@Z 00000001400170c0 f i textshow.obj
 0001:000160c0       ??0?$QForeachContainer@V?$QList@PEAVWidgetData@@@@@QtPrivate@@QEAA@AEBV?$QList@PEAVWidgetData@@@@@Z 00000001400170c0 f i FramelessHelper.obj
 0001:00016150       ??0?$QList@PEAVBaseChildPane@@@@QEAA@AEBV0@@Z 0000000140017150 f i mainwnd.obj
 0001:00016150       ??0?$QList@PEAVDynamicBtn@@@@QEAA@AEBV0@@Z 0000000140017150 f i textshow.obj
 0001:00016150       ??0?$QList@PEAVWidgetData@@@@QEAA@AEBV0@@Z 0000000140017150 f i FramelessHelper.obj
 0001:00016150       ??0?$QList@UTItemRect@CSlider@@@@QEAA@AEBV0@@Z 0000000140017150 f i slider.obj
 0001:00016150       ??0?$QList@VQString@@@@QEAA@AEBV0@@Z 0000000140017150 f i utils.obj
 0001:00016150       ??0?$QList@_K@@QEAA@AEBV0@@Z 0000000140017150 f i qxtwindowsystem_win.obj
 0001:00016190       ??0?$_Atomic_integral@H$03@std@@QEAA@H@Z 0000000140017190 f i mainwnd.obj
 0001:000161c0       ??0?$_Atomic_integral_facade@H@std@@QEAA@H@Z 00000001400171c0 f i mainwnd.obj
 0001:000161f0       ??0?$_Func_class@X$$V@std@@QEAA@XZ 00000001400171f0 f i mainwnd.obj
 0001:00016210       ??0?$atomic@H@std@@QEAA@H@Z 0000000140017210 f i mainwnd.obj
 0001:00016240       ??0?$function@$$A6AXXZ@std@@QEAA@$$QEAV01@@Z 0000000140017240 f i mainwnd.obj
 0001:00016280       ??0?$function@$$A6AXXZ@std@@QEAA@$$T@Z 0000000140017280 f i mainwnd.obj
 0001:000162b0       ??0?$function@$$A6AXXZ@std@@QEAA@AEBV01@@Z 00000001400172b0 f i mainwnd.obj
 0001:000162f0       ??0QAtomicInt@@QEAA@H@Z    00000001400172f0 f i mainwnd.obj
 0001:00016320       ??0QPoint@@QEAA@HH@Z       0000000140017320 f i mainwnd.obj
 0001:00016350       ??0QSlotObjectBase@QtPrivate@@QEAA@P6AXHPEAV01@PEAVQObject@@PEAPEAXPEA_N@Z@Z 0000000140017350 f i mainwnd.obj
 0001:00016390       ??1?$QArrayDataPointer@PEAVBaseChildPane@@@@QEAA@XZ 0000000140017390 f i mainwnd.obj
 0001:00016390       ??1?$QArrayDataPointer@PEAVDynamicBtn@@@@QEAA@XZ 0000000140017390 f i textshow.obj
 0001:00016390       ??1?$QArrayDataPointer@PEAVQWidget@@@@QEAA@XZ 0000000140017390 f i FramelessHelper.obj
 0001:00016390       ??1?$QArrayDataPointer@PEAVWidgetData@@@@QEAA@XZ 0000000140017390 f i FramelessHelper.obj
 0001:00016390       ??1?$QArrayDataPointer@VQPoint@@@@QEAA@XZ 0000000140017390 f i slider.obj
 0001:00016390       ??1?$QArrayDataPointer@_K@@QEAA@XZ 0000000140017390 f i qxtwindowsystem_win.obj
 0001:000163d0       ??1?$QForeachContainer@V?$QList@PEAVBaseChildPane@@@@@QtPrivate@@QEAA@XZ 00000001400173d0 f i mainwnd.obj
 0001:000163d0       ??1?$QForeachContainer@V?$QList@PEAVDynamicBtn@@@@@QtPrivate@@QEAA@XZ 00000001400173d0 f i textshow.obj
 0001:000163d0       ??1?$QForeachContainer@V?$QList@PEAVWidgetData@@@@@QtPrivate@@QEAA@XZ 00000001400173d0 f i FramelessHelper.obj
 0001:000163f0       ??1?$QList@PEAVBaseChildPane@@@@QEAA@XZ 00000001400173f0 f i mainwnd.obj
 0001:000163f0       ??1?$QList@PEAVDynamicBtn@@@@QEAA@XZ 00000001400173f0 f i textshow.obj
 0001:000163f0       ??1?$QList@PEAVQWidget@@@@QEAA@XZ 00000001400173f0 f i FramelessHelper.obj
 0001:000163f0       ??1?$QList@PEAVWidgetData@@@@QEAA@XZ 00000001400173f0 f i FramelessHelper.obj
 0001:000163f0       ??1?$QList@VQPoint@@@@QEAA@XZ 00000001400173f0 f i slider.obj
 0001:000163f0       ??1?$QList@_K@@QEAA@XZ     00000001400173f0 f i qxtwindowsystem_win.obj
 0001:00016410       ??1?$_Func_class@X$$V@std@@QEAA@XZ 0000000140017410 f i mainwnd.obj
 0001:00016430       ??1?$function@$$A6AXXZ@std@@QEAA@XZ 0000000140017430 f i mainwnd.obj
 0001:00016450       ??9const_iterator@?$QList@PEAVBaseChildPane@@@@QEBA_NV01@@Z 0000000140017450 f i mainwnd.obj
 0001:00016450       ??9const_iterator@?$QList@PEAVDynamicBtn@@@@QEBA_NV01@@Z 0000000140017450 f i textshow.obj
 0001:00016450       ??9const_iterator@?$QList@PEAVWidgetData@@@@QEBA_NV01@@Z 0000000140017450 f i FramelessHelper.obj
 0001:00016450       ??9const_iterator@?$QList@UTItemRect@CSlider@@@@QEBA_NV01@@Z 0000000140017450 f i slider.obj
 0001:00016450       ??9const_iterator@?$QList@VQString@@@@QEBA_NV01@@Z 0000000140017450 f i utils.obj
 0001:00016490       ??B?$function@$$A6AXXZ@std@@QEBA_NXZ 0000000140017490 f i mainwnd.obj
 0001:000164d0       ??$_Get_unwrapped@AEBQEAPEAPEAULogData@log4z@zsummer@@@std@@YA?A_TAEBQEAPEAPEAULogData@log4z@zsummer@@@Z 00000001400174d0 f i log4z.obj
 0001:000164d0       ??$_Get_unwrapped@AEBQEAPEAULogData@log4z@zsummer@@@std@@YA?A_TAEBQEAPEAULogData@log4z@zsummer@@@Z 00000001400174d0 f i log4z.obj
 0001:000164d0       ??$_Get_unwrapped@AEBQEAPEAVExceptionHandler@google_breakpad@@@std@@YA?A_TAEBQEAPEAVExceptionHandler@google_breakpad@@@Z 00000001400174d0 f i exception_handler.obj
 0001:000164d0       ??$_Get_unwrapped@AEBQEAUTItemRect@CSlider@@@std@@YA?A_TAEBQEAUTItemRect@CSlider@@@Z 00000001400174d0 f i slider.obj
 0001:000164d0       ??$_Get_unwrapped@AEBQEAUTNoteItem@NotificationMgr@@@std@@YA?A_TAEBQEAUTNoteItem@NotificationMgr@@@Z 00000001400174d0 f i notificationpane.obj
 0001:000164d0       ??$_Get_unwrapped@AEBQEAVQPixmap@@@std@@YA?A_TAEBQEAVQPixmap@@@Z 00000001400174d0 f i moviepicwidget.obj
 0001:000164d0       ??$_Get_unwrapped@AEBQEAVQString@@@std@@YA?A_TAEBQEAVQString@@@Z 00000001400174d0 f i utils.obj
 0001:000164d0       ??$_To_address@PEAD@std@@YA?A_PAEBQEAD@Z 00000001400174d0 f i string_utils.obj
 0001:000164d0       ??$_To_address@PEAPEAPEAULogData@log4z@zsummer@@@std@@YA?A_PAEBQEAPEAPEAULogData@log4z@zsummer@@@Z 00000001400174d0 f i log4z.obj
 0001:000164d0       ??$_To_address@PEAPEAULogData@log4z@zsummer@@@std@@YA?A_PAEBQEAPEAULogData@log4z@zsummer@@@Z 00000001400174d0 f i log4z.obj
 0001:000164d0       ??$_To_address@PEAPEAVExceptionHandler@google_breakpad@@@std@@YA?A_PAEBQEAPEAVExceptionHandler@google_breakpad@@@Z 00000001400174d0 f i exception_handler.obj
 0001:000164d0       ??$_To_address@PEA_W@std@@YA?A_PAEBQEA_W@Z 00000001400174d0 f i string_utils.obj
 0001:000164d0       ??$_Tuple_get@$0A@$$QEAV?$basic_string@DU?$char_traits@D@std@@V?$allocator@D@2@@std@@@std@@YA$$QEA_P$$QEAV?$tuple@$$QEAV?$basic_string@DU?$char_traits@D@std@@V?$allocator@D@2@@std@@@0@@Z 00000001400174d0 f i log4z.obj
 0001:000164d0       ??$_Tuple_get@$0A@AEBV?$basic_string@DU?$char_traits@D@std@@V?$allocator@D@2@@std@@@std@@YA$$QEA_P$$QEAV?$tuple@AEBV?$basic_string@DU?$char_traits@D@std@@V?$allocator@D@2@@std@@@0@@Z 00000001400174d0 f i log4z.obj
 0001:000164d0       ??BQHashSeed@@QEBA_KXZ     00000001400174d0 f i FramelessHelper.obj
 0001:000164d0       ??C?$QExplicitlySharedDataPointerV2@V?$QMapData@V?$map@VQString@@V1@U?$less@VQString@@@std@@V?$allocator@U?$pair@$$CBVQString@@V1@@std@@@3@@std@@@@@QtPrivate@@QEAAPEAV?$QMapData@V?$map@VQString@@V1@U?$less@VQString@@@std@@V?$allocator@U?$pair@$$CBVQString@@V1@@std@@@3@@std@@@@XZ 00000001400174d0 f i httpdownloader.obj
 0001:000164d0       ??C?$QExplicitlySharedDataPointerV2@V?$QMapData@V?$map@VQString@@V1@U?$less@VQString@@@std@@V?$allocator@U?$pair@$$CBVQString@@V1@@std@@@3@@std@@@@@QtPrivate@@QEBAPEBV?$QMapData@V?$map@VQString@@V1@U?$less@VQString@@@std@@V?$allocator@U?$pair@$$CBVQString@@V1@@std@@@3@@std@@@@XZ 00000001400174d0 f i httpdownloader.obj
 0001:000164d0       ??C?$QExplicitlySharedDataPointerV2@V?$QMapData@V?$map@VQString@@_NU?$less@VQString@@@std@@V?$allocator@U?$pair@$$CBVQString@@_N@std@@@3@@std@@@@@QtPrivate@@QEAAPEAV?$QMapData@V?$map@VQString@@_NU?$less@VQString@@@std@@V?$allocator@U?$pair@$$CBVQString@@_N@std@@@3@@std@@@@XZ 00000001400174d0 f i httpdownloader.obj
 0001:000164d0       ??C?$QExplicitlySharedDataPointerV2@V?$QMapData@V?$map@VQString@@_NU?$less@VQString@@@std@@V?$allocator@U?$pair@$$CBVQString@@_N@std@@@3@@std@@@@@QtPrivate@@QEBAPEBV?$QMapData@V?$map@VQString@@_NU?$less@VQString@@@std@@V?$allocator@U?$pair@$$CBVQString@@_N@std@@@3@@std@@@@XZ 00000001400174d0 f i httpdownloader.obj
 0001:000164d0       ??C?$QScopedPointer@VQObjectData@@U?$QScopedPointerDeleter@VQObjectData@@@@@@QEBAPEAVQObjectData@@XZ 00000001400174d0 f i moc_mainwnd.obj
 0001:000164d0       ??C?$scoped_ptr@VCrashGenerationClient@google_breakpad@@@google_breakpad@@QEBAPEAVCrashGenerationClient@1@XZ 00000001400174d0 f i exception_handler.obj
 0001:000164d0       ??D?$_String_const_iterator@V?$_String_val@U?$_Simple_types@D@std@@@std@@@std@@QEBAAEBDXZ 00000001400174d0 f i log4z.obj
 0001:000164d0       ??D?$_Vector_const_iterator@V?$_Vector_val@U?$_Simple_types@PEAVExceptionHandler@google_breakpad@@@std@@@std@@@std@@QEBAAEBQEAVExceptionHandler@google_breakpad@@XZ 00000001400174d0 f i exception_handler.obj
 0001:000164d0       ??Dconst_iterator@?$QList@PEAVBaseChildPane@@@@QEBAAEBQEAVBaseChildPane@@XZ 00000001400174d0 f i mainwnd.obj
 0001:000164d0       ??Dconst_iterator@?$QList@PEAVDynamicBtn@@@@QEBAAEBQEAVDynamicBtn@@XZ 00000001400174d0 f i textshow.obj
 0001:000164d0       ??Dconst_iterator@?$QList@PEAVWidgetData@@@@QEBAAEBQEAVWidgetData@@XZ 00000001400174d0 f i FramelessHelper.obj
 0001:000164d0       ??Dconst_iterator@?$QList@UTItemRect@CSlider@@@@QEBAAEBUTItemRect@CSlider@@XZ 00000001400174d0 f i slider.obj
 0001:000164d0       ??Dconst_iterator@?$QList@VQString@@@@QEBAAEBVQString@@XZ 00000001400174d0 f i utils.obj
 0001:000164d0       ??Diterator@?$QList@UTItemRect@CSlider@@@@QEBAAEAUTItemRect@CSlider@@XZ 00000001400174d0 f i slider.obj
 0001:000164d0       ??Diterator@?$QList@UTNoteItem@NotificationMgr@@@@QEBAAEAUTNoteItem@NotificationMgr@@XZ 00000001400174d0 f i notificationpane.obj
 0001:000164d0       ??Diterator@?$QList@VQPoint@@@@QEBAAEAVQPoint@@XZ 00000001400174d0 f i slider.obj
 0001:000164d0       ??Diterator@?$QList@VQString@@@@QEBAAEAVQString@@XZ 00000001400174d0 f i keyhelper.obj
 0001:000164d0       ??Diterator@?$QList@_K@@QEBAAEA_KXZ 00000001400174d0 f i qxtwindowsystem_win.obj
 0001:000164d0       ??R?$QxtPrivateInterface@VQxtGlobalShortcut@@VQxtGlobalShortcutPrivate@@@@QEAAAEAVQxtGlobalShortcutPrivate@@XZ 00000001400174d0 f i qxtglobalshortcut.obj
 0001:000164d0       ??R?$QxtPrivateInterface@VQxtGlobalShortcut@@VQxtGlobalShortcutPrivate@@@@QEBAAEBVQxtGlobalShortcutPrivate@@XZ 00000001400174d0 f i qxtglobalshortcut.obj
 0001:000164d0       ?d_ptr@?$QArrayDataPointer@VQString@@@@QEAAPEAU?$QTypedArrayData@VQString@@@@XZ 00000001400174d0 f i httpdownloader.obj
 0001:000164d0       ?data@?$QScopedPointer@VTrayIcon@@U?$QScopedPointerDeleter@VTrayIcon@@@@@@QEBAPEAVTrayIcon@@XZ 00000001400174d0 f i trayicon.obj
 0001:000164d0       ?get@?$scoped_ptr@VCrashGenerationClient@google_breakpad@@@google_breakpad@@QEBAPEAVCrashGenerationClient@2@XZ 00000001400174d0 f i exception_handler.obj
 0001:000164d0       ?get_handler@AutoExceptionHandler@google_breakpad@@QEBAPEAVExceptionHandler@2@XZ 00000001400174d0 f i exception_handler.obj
 0001:000164e0       ??E?$_Vector_const_iterator@V?$_Vector_val@U?$_Simple_types@PEAVExceptionHandler@google_breakpad@@@std@@@std@@@std@@QEAAAEAV01@XZ 00000001400174e0 f i exception_handler.obj
 0001:000164e0       ??Econst_iterator@?$QList@PEAVBaseChildPane@@@@QEAAAEAV01@XZ 00000001400174e0 f i mainwnd.obj
 0001:000164e0       ??Econst_iterator@?$QList@PEAVDynamicBtn@@@@QEAAAEAV01@XZ 00000001400174e0 f i textshow.obj
 0001:000164e0       ??Econst_iterator@?$QList@PEAVWidgetData@@@@QEAAAEAV01@XZ 00000001400174e0 f i FramelessHelper.obj
 0001:00016500       ??R?$_Func_class@X$$V@std@@QEBAXXZ 0000000140017500 f i mainwnd.obj
 0001:00016550       ??U?$QFlags@W4AlignmentFlag@Qt@@@@QEBA?AV0@W4AlignmentFlag@Qt@@@Z 0000000140017550 f i rolltitles.obj
 0001:00016550       ??U?$QFlags@W4KeyboardModifier@Qt@@@@QEBA?AV0@W4KeyboardModifier@Qt@@@Z 0000000140017550 f i qxtglobalshortcut.obj
 0001:00016550       ??U?$QFlags@W4RenderHint@QPainter@@@@QEBA?AV0@W4RenderHint@QPainter@@@Z 0000000140017550 f i slider.obj
 0001:00016550       ??U?$QFlags@W4WindowType@Qt@@@@QEBA?AV0@V0@@Z 0000000140017550 f i mainwnd.obj
 0001:00016550       ??U?$QFlags@W4WindowType@Qt@@@@QEBA?AV0@W4WindowType@Qt@@@Z 0000000140017550 f i mainwnd.obj
 0001:000165a0       ??U@YA?AV?$QFlags@W4RenderHint@QPainter@@@@W4RenderHint@QPainter@@0@Z 00000001400175a0 f i slider.obj
 0001:000165a0       ??UQt@@YA?AV?$QFlags@W4AlignmentFlag@Qt@@@@W4AlignmentFlag@0@0@Z 00000001400175a0 f i rolltitles.obj
 0001:000165a0       ??UQt@@YA?AV?$QFlags@W4KeyboardModifier@Qt@@@@W4KeyboardModifier@0@0@Z 00000001400175a0 f i qxtglobalshortcut.obj
 0001:000165a0       ??UQt@@YA?AV?$QFlags@W4WindowType@Qt@@@@W4WindowType@0@0@Z 00000001400175a0 f i mainwnd.obj
 0001:000165e4       ??_EMainPane@@WBA@EAAPEAXI@Z 00000001400175e4 f i mainwnd.obj
 0001:000165f0       ??_EMainWnd@@WBA@EAAPEAXI@Z 00000001400175f0 f i mainwnd.obj
 0001:00016600       ??_EMainPane@@UEAAPEAXI@Z  0000000140017600 f i mainwnd.obj
 0001:00016600       ??_GMainPane@@UEAAPEAXI@Z  0000000140017600 f i mainwnd.obj
 0001:00016640       ??_EMainWnd@@UEAAPEAXI@Z   0000000140017640 f i mainwnd.obj
 0001:00016640       ??_GMainWnd@@UEAAPEAXI@Z   0000000140017640 f i mainwnd.obj
 0001:00016680       ??_EQEventTransition@@UEAAPEAXI@Z 0000000140017680 f i mainwnd.obj
 0001:00016680       ??_GQEventTransition@@UEAAPEAXI@Z 0000000140017680 f i mainwnd.obj
 0001:000166c0       ??_EQParallelAnimationGroup@@UEAAPEAXI@Z 00000001400176c0 f i mainwnd.obj
 0001:000166c0       ??_GQParallelAnimationGroup@@UEAAPEAXI@Z 00000001400176c0 f i mainwnd.obj
 0001:00016700       ??_EQPixmap@@UEAAPEAXI@Z   0000000140017700 f i mainwnd.obj
 0001:00016700       ??_GQPixmap@@UEAAPEAXI@Z   0000000140017700 f i mainwnd.obj
 0001:00016740       ??_EQPropertyAnimation@@UEAAPEAXI@Z 0000000140017740 f i mainwnd.obj
 0001:00016740       ??_GQPropertyAnimation@@UEAAPEAXI@Z 0000000140017740 f i mainwnd.obj
 0001:00016780       ??_EQSequentialAnimationGroup@@UEAAPEAXI@Z 0000000140017780 f i mainwnd.obj
 0001:00016780       ??_GQSequentialAnimationGroup@@UEAAPEAXI@Z 0000000140017780 f i mainwnd.obj
 0001:000167c0       ??_EQState@@UEAAPEAXI@Z    00000001400177c0 f i mainwnd.obj
 0001:000167c0       ??_GQState@@UEAAPEAXI@Z    00000001400177c0 f i mainwnd.obj
 0001:00016800       ??_EQStateMachine@@UEAAPEAXI@Z 0000000140017800 f i mainwnd.obj
 0001:00016800       ??_GQStateMachine@@UEAAPEAXI@Z 0000000140017800 f i mainwnd.obj
 0001:00016840       ?_Empty@?$_Func_class@X$$V@std@@IEBA_NXZ 0000000140017840 f i mainwnd.obj
 0001:00016880       ?_Getimpl@?$_Func_class@X$$V@std@@AEBAPEAV?$_Func_base@X$$V@2@XZ 0000000140017880 f i mainwnd.obj
 0001:000168a0       ?_Local@?$_Func_class@X$$V@std@@AEBA_NXZ 00000001400178a0 f i mainwnd.obj
 0001:000168e0       ?_Reset_copy@?$_Func_class@X$$V@std@@IEAAXAEBV12@@Z 00000001400178e0 f i mainwnd.obj
 0001:00016950       ?_Reset_move@?$_Func_class@X$$V@std@@IEAAX$$QEAV12@@Z 0000000140017950 f i mainwnd.obj
 0001:00016a00       ?_Set@?$_Func_class@X$$V@std@@AEAAXPEAV?$_Func_base@X$$V@2@@Z 0000000140017a00 f i mainwnd.obj
 0001:00016a30       ?_Tidy@?$_Func_class@X$$V@std@@IEAAXXZ 0000000140017a30 f i mainwnd.obj
 0001:00016ab0       ?begin@?$QList@PEAVBaseChildPane@@@@QEBA?AVconst_iterator@1@XZ 0000000140017ab0 f i mainwnd.obj
 0001:00016ab0       ?begin@?$QList@PEAVDynamicBtn@@@@QEBA?AVconst_iterator@1@XZ 0000000140017ab0 f i textshow.obj
 0001:00016ab0       ?begin@?$QList@PEAVWidgetData@@@@QEBA?AVconst_iterator@1@XZ 0000000140017ab0 f i FramelessHelper.obj
 0001:00016ab0       ?begin@?$QList@UTItemRect@CSlider@@@@QEBA?AVconst_iterator@1@XZ 0000000140017ab0 f i slider.obj
 0001:00016ab0       ?begin@?$QList@VQString@@@@QEBA?AVconst_iterator@1@XZ 0000000140017ab0 f i utils.obj
 0001:00016af0       ??$data@U?$QArrayDataPointer@UTItemRect@CSlider@@@@@std@@YAPEBUTItemRect@CSlider@@AEBU?$QArrayDataPointer@UTItemRect@CSlider@@@@@Z 0000000140017af0 f i slider.obj
 0001:00016af0       ??$data@U?$QArrayDataPointer@UTNoteItem@NotificationMgr@@@@@std@@YAPEBUTNoteItem@NotificationMgr@@AEBU?$QArrayDataPointer@UTNoteItem@NotificationMgr@@@@@Z 0000000140017af0 f i notificationpane.obj
 0001:00016af0       ??$data@U?$QArrayDataPointer@VQPoint@@@@@std@@YAPEBVQPoint@@AEBU?$QArrayDataPointer@VQPoint@@@@@Z 0000000140017af0 f i slider.obj
 0001:00016af0       ??$data@U?$QArrayDataPointer@VQString@@@@@std@@YAPEBVQString@@AEBU?$QArrayDataPointer@VQString@@@@@Z 0000000140017af0 f i httpdownloader.obj
 0001:00016af0       ??$data@U?$QArrayDataPointer@_K@@@std@@YAPEB_KAEBU?$QArrayDataPointer@_K@@@Z 0000000140017af0 f i qxtwindowsystem_win.obj
 0001:00016af0       ?begin@?$QArrayDataPointer@PEAVQWidget@@@@QEAAPEAPEAVQWidget@@XZ 0000000140017af0 f i FramelessHelper.obj
 0001:00016af0       ?begin@?$QArrayDataPointer@UTItemRect@CSlider@@@@QEAAPEAUTItemRect@CSlider@@XZ 0000000140017af0 f i slider.obj
 0001:00016af0       ?begin@?$QArrayDataPointer@UTItemRect@CSlider@@@@QEBAPEBUTItemRect@CSlider@@XZ 0000000140017af0 f i slider.obj
 0001:00016af0       ?begin@?$QArrayDataPointer@UTNoteItem@NotificationMgr@@@@QEAAPEAUTNoteItem@NotificationMgr@@XZ 0000000140017af0 f i notificationpane.obj
 0001:00016af0       ?begin@?$QArrayDataPointer@UTNoteItem@NotificationMgr@@@@QEBAPEBUTNoteItem@NotificationMgr@@XZ 0000000140017af0 f i notificationpane.obj
 0001:00016af0       ?begin@?$QArrayDataPointer@VQPixmap@@@@QEAAPEAVQPixmap@@XZ 0000000140017af0 f i moviepicwidget.obj
 0001:00016af0       ?begin@?$QArrayDataPointer@VQPoint@@@@QEAAPEAVQPoint@@XZ 0000000140017af0 f i slider.obj
 0001:00016af0       ?begin@?$QArrayDataPointer@VQPoint@@@@QEBAPEBVQPoint@@XZ 0000000140017af0 f i slider.obj
 0001:00016af0       ?begin@?$QArrayDataPointer@VQString@@@@QEAAPEAVQString@@XZ 0000000140017af0 f i utils.obj
 0001:00016af0       ?begin@?$QArrayDataPointer@VQString@@@@QEBAPEBVQString@@XZ 0000000140017af0 f i httpdownloader.obj
 0001:00016af0       ?begin@?$QArrayDataPointer@_K@@QEAAPEA_KXZ 0000000140017af0 f i qxtwindowsystem_win.obj
 0001:00016af0       ?begin@?$QArrayDataPointer@_K@@QEBAPEB_KXZ 0000000140017af0 f i qxtwindowsystem_win.obj
 0001:00016af0       ?constBegin@?$QArrayDataPointer@PEAVBaseChildPane@@@@QEBAPEBQEAVBaseChildPane@@XZ 0000000140017af0 f i mainwnd.obj
 0001:00016af0       ?constBegin@?$QArrayDataPointer@PEAVDynamicBtn@@@@QEBAPEBQEAVDynamicBtn@@XZ 0000000140017af0 f i textshow.obj
 0001:00016af0       ?constBegin@?$QArrayDataPointer@PEAVWidgetData@@@@QEBAPEBQEAVWidgetData@@XZ 0000000140017af0 f i FramelessHelper.obj
 0001:00016af0       ?constBegin@?$QArrayDataPointer@UTItemRect@CSlider@@@@QEBAPEBUTItemRect@CSlider@@XZ 0000000140017af0 f i slider.obj
 0001:00016af0       ?constBegin@?$QArrayDataPointer@VQString@@@@QEBAPEBVQString@@XZ 0000000140017af0 f i utils.obj
 0001:00016b10       ?constEnd@?$QArrayDataPointer@PEAVBaseChildPane@@@@QEBAPEBQEAVBaseChildPane@@XZ 0000000140017b10 f i mainwnd.obj
 0001:00016b10       ?constEnd@?$QArrayDataPointer@PEAVDynamicBtn@@@@QEBAPEBQEAVDynamicBtn@@XZ 0000000140017b10 f i textshow.obj
 0001:00016b10       ?constEnd@?$QArrayDataPointer@PEAVWidgetData@@@@QEBAPEBQEAVWidgetData@@XZ 0000000140017b10 f i FramelessHelper.obj
 0001:00016b10       ?end@?$QArrayDataPointer@PEAVQWidget@@@@QEAAPEAPEAVQWidget@@XZ 0000000140017b10 f i FramelessHelper.obj
 0001:00016b10       ?end@?$QArrayDataPointer@PEAVWidgetData@@@@QEAAPEAPEAVWidgetData@@XZ 0000000140017b10 f i FramelessHelper.obj
 0001:00016b10       ?end@?$QArrayDataPointer@VQPoint@@@@QEAAPEAVQPoint@@XZ 0000000140017b10 f i slider.obj
 0001:00016b10       ?end@?$QArrayDataPointer@VQPoint@@@@QEBAPEBVQPoint@@XZ 0000000140017b10 f i slider.obj
 0001:00016b10       ?end@?$QArrayDataPointer@_K@@QEAAPEA_KXZ 0000000140017b10 f i qxtwindowsystem_win.obj
 0001:00016b10       ?end@?$QArrayDataPointer@_K@@QEBAPEB_KXZ 0000000140017b10 f i qxtwindowsystem_win.obj
 0001:00016b40       ?allocatedCapacity@QArrayData@@QEAA_JXZ 0000000140017b40 f i slider.obj
 0001:00016b40       ?constAllocatedCapacity@QArrayData@@QEBA_JXZ 0000000140017b40 f i sysprotect.obj
 0001:00016b40       ?data@?$QArrayDataPointer@PEAVBaseChildPane@@@@QEBAPEBQEAVBaseChildPane@@XZ 0000000140017b40 f i mainwnd.obj
 0001:00016b40       ?data@?$QArrayDataPointer@PEAVDynamicBtn@@@@QEBAPEBQEAVDynamicBtn@@XZ 0000000140017b40 f i textshow.obj
 0001:00016b40       ?data@?$QArrayDataPointer@PEAVQWidget@@@@QEAAPEAPEAVQWidget@@XZ 0000000140017b40 f i FramelessHelper.obj
 0001:00016b40       ?data@?$QArrayDataPointer@PEAVWidgetData@@@@QEAAPEAPEAVWidgetData@@XZ 0000000140017b40 f i FramelessHelper.obj
 0001:00016b40       ?data@?$QArrayDataPointer@PEAVWidgetData@@@@QEBAPEBQEAVWidgetData@@XZ 0000000140017b40 f i FramelessHelper.obj
 0001:00016b40       ?data@?$QArrayDataPointer@UTItemRect@CSlider@@@@QEAAPEAUTItemRect@CSlider@@XZ 0000000140017b40 f i slider.obj
 0001:00016b40       ?data@?$QArrayDataPointer@UTItemRect@CSlider@@@@QEBAPEBUTItemRect@CSlider@@XZ 0000000140017b40 f i slider.obj
 0001:00016b40       ?data@?$QArrayDataPointer@UTNoteItem@NotificationMgr@@@@QEAAPEAUTNoteItem@NotificationMgr@@XZ 0000000140017b40 f i notificationpane.obj
 0001:00016b40       ?data@?$QArrayDataPointer@UTNoteItem@NotificationMgr@@@@QEBAPEBUTNoteItem@NotificationMgr@@XZ 0000000140017b40 f i notificationpane.obj
 0001:00016b40       ?data@?$QArrayDataPointer@VQPixmap@@@@QEAAPEAVQPixmap@@XZ 0000000140017b40 f i moviepicwidget.obj
 0001:00016b40       ?data@?$QArrayDataPointer@VQPoint@@@@QEAAPEAVQPoint@@XZ 0000000140017b40 f i slider.obj
 0001:00016b40       ?data@?$QArrayDataPointer@VQPoint@@@@QEBAPEBVQPoint@@XZ 0000000140017b40 f i slider.obj
 0001:00016b40       ?data@?$QArrayDataPointer@VQString@@@@QEAAPEAVQString@@XZ 0000000140017b40 f i utils.obj
 0001:00016b40       ?data@?$QArrayDataPointer@VQString@@@@QEBAPEBVQString@@XZ 0000000140017b40 f i utils.obj
 0001:00016b40       ?data@?$QArrayDataPointer@_K@@QEAAPEA_KXZ 0000000140017b40 f i qxtwindowsystem_win.obj
 0001:00016b40       ?data@?$QArrayDataPointer@_K@@QEBAPEB_KXZ 0000000140017b40 f i qxtwindowsystem_win.obj
 0001:00016b40       ?qxt_p@?$QxtPrivate@VQxtGlobalShortcut@@@@IEAAAEAVQxtGlobalShortcut@@XZ 0000000140017b40 f i qxtglobalshortcut.obj
 0001:00016b40       ?size@?$list@U?$pair@_JV?$basic_string@DU?$char_traits@D@std@@V?$allocator@D@2@@std@@@std@@V?$allocator@U?$pair@_JV?$basic_string@DU?$char_traits@D@std@@V?$allocator@D@2@@std@@@std@@@2@@std@@QEBA_KXZ 0000000140017b40 f i log4z.obj
 0001:00016b50       ?deallocate@?$QTypedArrayData@PEAVBaseChildPane@@@@SAXPEAUQArrayData@@@Z 0000000140017b50 f i mainwnd.obj
 0001:00016b50       ?deallocate@?$QTypedArrayData@PEAVDynamicBtn@@@@SAXPEAUQArrayData@@@Z 0000000140017b50 f i textshow.obj
 0001:00016b50       ?deallocate@?$QTypedArrayData@PEAVQWidget@@@@SAXPEAUQArrayData@@@Z 0000000140017b50 f i FramelessHelper.obj
 0001:00016b50       ?deallocate@?$QTypedArrayData@PEAVWidgetData@@@@SAXPEAUQArrayData@@@Z 0000000140017b50 f i FramelessHelper.obj
 0001:00016b50       ?deallocate@?$QTypedArrayData@VQPoint@@@@SAXPEAUQArrayData@@@Z 0000000140017b50 f i slider.obj
 0001:00016b50       ?deallocate@?$QTypedArrayData@_K@@SAXPEAUQArrayData@@@Z 0000000140017b50 f i qxtwindowsystem_win.obj
 0001:00016b80       ?end@?$QList@PEAVBaseChildPane@@@@QEBA?AVconst_iterator@1@XZ 0000000140017b80 f i mainwnd.obj
 0001:00016b80       ?end@?$QList@PEAVDynamicBtn@@@@QEBA?AVconst_iterator@1@XZ 0000000140017b80 f i textshow.obj
 0001:00016b80       ?end@?$QList@PEAVWidgetData@@@@QEBA?AVconst_iterator@1@XZ 0000000140017b80 f i FramelessHelper.obj
 0001:00016bc0       ?ref@?$QArrayDataPointer@PEAVBaseChildPane@@@@QEAAXXZ 0000000140017bc0 f i mainwnd.obj
 0001:00016bc0       ?ref@?$QArrayDataPointer@PEAVDynamicBtn@@@@QEAAXXZ 0000000140017bc0 f i textshow.obj
 0001:00016bc0       ?ref@?$QArrayDataPointer@PEAVWidgetData@@@@QEAAXXZ 0000000140017bc0 f i FramelessHelper.obj
 0001:00016bc0       ?ref@?$QArrayDataPointer@UTItemRect@CSlider@@@@QEAAXXZ 0000000140017bc0 f i slider.obj
 0001:00016bc0       ?ref@?$QArrayDataPointer@VQPixmap@@@@QEAAXXZ 0000000140017bc0 f i moviepicwidget.obj
 0001:00016bc0       ?ref@?$QArrayDataPointer@VQString@@@@QEAAXXZ 0000000140017bc0 f i utils.obj
 0001:00016bc0       ?ref@?$QArrayDataPointer@_K@@QEAAXXZ 0000000140017bc0 f i qxtwindowsystem_win.obj
 0001:00016bf0       ?ref@?$QBasicAtomicInteger@H@@QEAA_NXZ 0000000140017bf0 f i mainwnd.obj
 0001:00016c10       ?ref@QArrayData@@QEAA_NXZ  0000000140017c10 f i mainwnd.obj
 0001:00016c30       ?types@?$ConnectionTypes@U?$List@$$V@QtPrivate@@$00@QtPrivate@@SAPEBHXZ 0000000140017c30 f i mainwnd.obj
 0001:00016c30       ?types@?$ConnectionTypes@U?$List@UQPrivateSignal@QTimer@@@QtPrivate@@$0A@@QtPrivate@@SAPEBHXZ 0000000140017c30 f i textshow.obj
 0001:00016c30       __scrt_exe_initialize_mta  0000000140017c30 f i MSVCRT:utility_desktop.obj
 0001:00016c30       __scrt_initialize_winrt    0000000140017c30 f i MSVCRT:utility_desktop.obj
 0001:00016c30       __scrt_stub_for_initialize_mta 0000000140017c30 f i MSVCRT:utility_desktop.obj
 0001:00016c30       _get_startup_commit_mode   0000000140017c30 f i MSVCRT:commit_mode.obj
 0001:00016c30       _get_startup_new_mode      0000000140017c30 f i MSVCRT:new_mode.obj
 0001:00016c30       _get_startup_thread_locale_mode 0000000140017c30 f i MSVCRT:thread_locale.obj
 0001:00016c30       _matherr                   0000000140017c30 f i MSVCRT:matherr.obj
 0001:00016c40       ?types@?$ConnectionTypes@U?$List@AEBVQVariant@@@QtPrivate@@$00@QtPrivate@@SAPEBHXZ 0000000140017c40 f i mainwnd.obj
 0001:00016c50       ?types@?$ConnectionTypes@U?$List@_N@QtPrivate@@$00@QtPrivate@@SAPEBHXZ 0000000140017c50 f i mainwnd.obj
 0001:00016c80       ??0subReconstruction@@QEAA@PEAVQWidget@@@Z 0000000140017c80 f   subreconstruction.obj
 0001:00016f70       ??1subReconstruction@@UEAA@XZ 0000000140017f70 f   subreconstruction.obj
 0001:00016fc0       ?InitCtrl@subReconstruction@@AEAAXXZ 0000000140017fc0 f   subreconstruction.obj
 0001:00018490       ?isPositiveDecimal@subReconstruction@@AEAA_NAEBV?$basic_string@DU?$char_traits@D@std@@V?$allocator@D@2@@std@@@Z 0000000140019490 f   subreconstruction.obj
 0001:000185e0       ?isInteger@subReconstruction@@AEAA_NAEBV?$basic_string@DU?$char_traits@D@std@@V?$allocator@D@2@@std@@@Z 00000001400195e0 f   subreconstruction.obj
 0001:00018730       ?on_begin_slots@subReconstruction@@AEAAXXZ 0000000140019730 f   subreconstruction.obj
 0001:00019970       ?on_flush_slots@subReconstruction@@AEAAXXZ 000000014001a970 f   subreconstruction.obj
 0001:00019ae0       ?SubCreateLineEditBoxItem@@YAPEAVQWidget@@VQString@@0PEAVQLineEdit@@@Z 000000014001aae0 f   subreconstruction.obj
 0001:0001a0fc       ??_EsubReconstruction@@WBA@EAAPEAXI@Z 000000014001b0fc f i subreconstruction.obj
 0001:0001a110       ??_EsubReconstruction@@UEAAPEAXI@Z 000000014001b110 f i subreconstruction.obj
 0001:0001a110       ??_GsubReconstruction@@UEAAPEAXI@Z 000000014001b110 f i subreconstruction.obj
 0001:0001a150       ??0TextShow@@QEAA@PEAVQWidget@@VQString@@1@Z 000000014001b150 f   textshow.obj
 0001:0001a320       ?InitCtrl@TextShow@@AEAAXXZ 000000014001b320 f   textshow.obj
 0001:0001a820       ?Start@TextShow@@AEAAXXZ   000000014001b820 f   textshow.obj
 0001:0001a920       ?Stop@TextShow@@AEAAXXZ    000000014001b920 f   textshow.obj
 0001:0001a9f0       ?Pause@TextShow@@AEAAXXZ   000000014001b9f0 f   textshow.obj
 0001:0001aa00       ?OpenPage@TextShow@@EEAAXXZ 000000014001ba00 f   textshow.obj
 0001:0001aa20       ?ClosePage@TextShow@@EEAAXXZ 000000014001ba20 f   textshow.obj
 0001:0001aa40       ?MyCreateTop@@YAPEAVQWidget@@VQString@@00@Z 000000014001ba40 f   textshow.obj
 0001:0001b5f0       ??$findChildren@PEAVDynamicBtn@@@QObject@@QEBA?AV?$QList@PEAVDynamicBtn@@@@V?$QFlags@W4FindChildOption@Qt@@@@@Z 000000014001c5f0 f i textshow.obj
 0001:0001b650       ??$qMin@H_J@@YA_JAEBHAEB_J@Z 000000014001c650 f i textshow.obj
 0001:0001b6b0       ??1TextShow@@UEAA@XZ       000000014001c6b0 f i textshow.obj
 0001:0001b6ec       ??_ETextShow@@WBA@EAAPEAXI@Z 000000014001c6ec f i textshow.obj
 0001:0001b700       ??_EQTimer@@UEAAPEAXI@Z    000000014001c700 f i textshow.obj
 0001:0001b700       ??_GQTimer@@UEAAPEAXI@Z    000000014001c700 f i textshow.obj
 0001:0001b740       ??_ETextShow@@UEAAPEAXI@Z  000000014001c740 f i textshow.obj
 0001:0001b740       ??_GTextShow@@UEAAPEAXI@Z  000000014001c740 f i textshow.obj
 0001:0001b780       ?at@?$QList@PEAVDynamicBtn@@@@QEBAAEBQEAVDynamicBtn@@_J@Z 000000014001c780 f i textshow.obj
 0001:0001b7b0       ?data@?$QList@PEAVDynamicBtn@@@@QEBAPEBQEAVDynamicBtn@@XZ 000000014001c7b0 f i textshow.obj
 0001:0001b7b0       ?data@?$QList@UTNoteItem@NotificationMgr@@@@QEBAPEBUTNoteItem@NotificationMgr@@XZ 000000014001c7b0 f i notificationpane.obj
 0001:0001b7b0       ?data@?$QList@VQString@@@@QEBAPEBVQString@@XZ 000000014001c7b0 f i iconhelper.obj
 0001:0001b7e0       ?count@?$QList@VQString@@@@QEBA_JXZ 000000014001c7e0 f i iconhelper.obj
 0001:0001b7e0       ?length@?$QList@PEAVDynamicBtn@@@@QEBA_JXZ 000000014001c7e0 f i textshow.obj
 0001:0001b7e0       ?length@?$QList@VQString@@@@QEBA_JXZ 000000014001c7e0 f i utils.obj
 0001:0001b800       ?size@?$QList@PEAVDynamicBtn@@@@QEBA_JXZ 000000014001c800 f i textshow.obj
 0001:0001b800       ?size@?$QList@PEAVQWidget@@@@QEBA_JXZ 000000014001c800 f i FramelessHelper.obj
 0001:0001b800       ?size@?$QList@UTItemRect@CSlider@@@@QEBA_JXZ 000000014001c800 f i slider.obj
 0001:0001b800       ?size@?$QList@UTNoteItem@NotificationMgr@@@@QEBA_JXZ 000000014001c800 f i notificationpane.obj
 0001:0001b800       ?size@?$QList@VQPixmap@@@@QEBA_JXZ 000000014001c800 f i moviepicwidget.obj
 0001:0001b800       ?size@?$QList@VQString@@@@QEBA_JXZ 000000014001c800 f i utils.obj
 0001:0001b800       ?size@?$QList@_K@@QEBA_JXZ 000000014001c800 f i qxtwindowsystem_win.obj
 0001:0001b840       ??0Tools@@QEAA@PEAVQWidget@@@Z 000000014001c840 f   tools.obj
 0001:0001be30       ??1Tools@@UEAA@XZ          000000014001ce30 f   tools.obj
 0001:0001be80       ?InitCtrl@Tools@@AEAAXXZ   000000014001ce80 f   tools.obj
 0001:0001d4b0       ?isPositiveDecimal@Tools@@AEAA_NAEBV?$basic_string@DU?$char_traits@D@std@@V?$allocator@D@2@@std@@@Z 000000014001e4b0 f   tools.obj
 0001:0001d600       ?isInteger@Tools@@AEAA_NAEBV?$basic_string@DU?$char_traits@D@std@@V?$allocator@D@2@@std@@@Z 000000014001e600 f   tools.obj
 0001:0001d750       ?on_begin_slots@Tools@@AEAAXXZ 000000014001e750 f   tools.obj
 0001:0001f190       ?on_flush_slots@Tools@@AEAAXXZ 0000000140020190 f   tools.obj
 0001:0001f2c0       ?CreateNavItem@@YAPEAVQWidget@@VQString@@00@Z 00000001400202c0 f   tools.obj
 0001:0001fef0       ?CreateBoxLineEditItem@@YAPEAVQWidget@@VQString@@0PEAVQLineEdit@@@Z 0000000140020ef0 f   tools.obj
 0001:0002050c       ??_ETools@@WBA@EAAPEAXI@Z  000000014002150c f i tools.obj
 0001:00020520       ??_ETools@@UEAAPEAXI@Z     0000000140021520 f i tools.obj
 0001:00020520       ??_GTools@@UEAAPEAXI@Z     0000000140021520 f i tools.obj
 0001:00020560       ??0BaseChildPane@@QEAA@PEAVQWidget@@@Z 0000000140021560 f   basechildpane.obj
 0001:00020620       ?GetTitle@BaseChildPane@@UEAA?AVQString@@XZ 0000000140021620 f   basechildpane.obj
 0001:00020670       ?OpenPage@BaseChildPane@@UEAAXXZ 0000000140021670 f   basechildpane.obj
 0001:00020680       ?ClosePage@BaseChildPane@@UEAAXXZ 0000000140021680 f   basechildpane.obj
 0001:00020688       ??_EBaseChildPane@@WBA@EAAPEAXI@Z 0000000140021688 f i basechildpane.obj
 0001:000206a0       ??_EBaseChildPane@@UEAAPEAXI@Z 00000001400216a0 f i basechildpane.obj
 0001:000206a0       ??_GBaseChildPane@@UEAAPEAXI@Z 00000001400216a0 f i basechildpane.obj
 0001:000206e0       ??0SysProtect@@QEAA@PEAVQWidget@@@Z 00000001400216e0 f   sysprotect.obj
 0001:00020870       ?InitCtrl@SysProtect@@AEAAXXZ 0000000140021870 f   sysprotect.obj
 0001:000209d0       ?InitLeftPane@SysProtect@@AEAAXXZ 00000001400219d0 f   sysprotect.obj
 0001:00020f80       ?InitRightPane@SysProtect@@AEAAXXZ 0000000140021f80 f   sysprotect.obj
 0001:000228e0       ?CreateNavBtn@@YAPEAVQPushButton@@VQString@@0$$QEAV?$function@$$A6AXXZ@std@@@Z 00000001400238e0 f   sysprotect.obj
 0001:00025be0       ??0Bucket@?$Data@U?$Node@PEAVQWidget@@PEAVWidgetData@@@QHashPrivate@@@QHashPrivate@@QEAA@PEAU?$Span@U?$Node@PEAVQWidget@@PEAVWidgetData@@@QHashPrivate@@@2@_K@Z 0000000140026be0 f   FramelessHelper.obj
 0001:00025be0       ??0Bucket@?$Data@U?$Node@U?$pair@II@std@@PEAVQxtGlobalShortcut@@@QHashPrivate@@@QHashPrivate@@QEAA@PEAU?$Span@U?$Node@U?$pair@II@std@@PEAVQxtGlobalShortcut@@@QHashPrivate@@@2@_K@Z 0000000140026be0 f   qxtglobalshortcut.obj
 0001:00025be0       ??0QMinidumpContextWrapper@QtBreakpad@@QEAA@P6A_NAEAVQFile@@PEAX@Z1@Z 0000000140026be0 f   qt_breakpad.obj
 0001:00025fd0       ??$_Adl_verify_range@PEAPEAPEAULogData@log4z@zsummer@@PEAPEAPEAU123@@std@@YAXAEBQEAPEAPEAULogData@log4z@zsummer@@0@Z 0000000140026fd0 f   log4z.obj
 0001:00025fd0       ??$_Adl_verify_range@PEAUTItemRect@CSlider@@PEAU12@@std@@YAXAEBQEAUTItemRect@CSlider@@0@Z 0000000140026fd0 f   slider.obj
 0001:00025fd0       ??$_Adl_verify_range@PEAUTNoteItem@NotificationMgr@@PEAU12@@std@@YAXAEBQEAUTNoteItem@NotificationMgr@@0@Z 0000000140026fd0 f   notificationpane.obj
 0001:00025fd0       ??$_Adl_verify_range@PEAVQPixmap@@PEAV1@@std@@YAXAEBQEAVQPixmap@@0@Z 0000000140026fd0 f   moviepicwidget.obj
 0001:00025fd0       ??$_Adl_verify_range@PEAVQString@@PEAV1@@std@@YAXAEBQEAVQString@@0@Z 0000000140026fd0 f   utils.obj
 0001:00025fd0       ??$_Adl_verify_range@V?$_List_iterator@V?$_List_val@U?$_List_simple_types@UAppMemory@google_breakpad@@@std@@@std@@@std@@V12@@std@@YAXAEBV?$_List_iterator@V?$_List_val@U?$_List_simple_types@UAppMemory@google_breakpad@@@std@@@std@@@0@0@Z 0000000140026fd0 f   exception_handler.obj
 0001:00025fd0       ??$_Adl_verify_range@V?$_String_iterator@V?$_String_val@U?$_Simple_types@D@std@@@std@@@std@@V12@@std@@YAXAEBV?$_String_iterator@V?$_String_val@U?$_Simple_types@D@std@@@std@@@0@0@Z 0000000140026fd0 f   log4z.obj
 0001:00025fd0       ??$_Adl_verify_range@V?$_Tree_const_iterator@V?$_Tree_val@U?$_Tree_simple_types@U?$pair@$$CBVQString@@V1@@std@@@std@@@std@@@std@@V12@@std@@YAXAEBV?$_Tree_const_iterator@V?$_Tree_val@U?$_Tree_simple_types@U?$pair@$$CBVQString@@V1@@std@@@std@@@std@@@0@0@Z 0000000140026fd0 f   httpdownloader.obj
 0001:00025fd0       ??$_Adl_verify_range@V?$_Tree_const_iterator@V?$_Tree_val@U?$_Tree_simple_types@U?$pair@$$CBVQString@@_N@std@@@std@@@std@@@std@@V12@@std@@YAXAEBV?$_Tree_const_iterator@V?$_Tree_val@U?$_Tree_simple_types@U?$pair@$$CBVQString@@_N@std@@@std@@@std@@@0@0@Z 0000000140026fd0 f   httpdownloader.obj
 0001:00025fd0       ??$_Adl_verify_range@V?$_Tree_unchecked_const_iterator@V?$_Tree_val@U?$_Tree_simple_types@U?$pair@$$CBVQString@@V1@@std@@@std@@@std@@U_Iterator_base0@2@@std@@V12@@std@@YAXAEBV?$_Tree_unchecked_const_iterator@V?$_Tree_val@U?$_Tree_simple_types@U?$pair@$$CBVQString@@V1@@std@@@std@@@std@@U_Iterator_base0@2@@0@0@Z 0000000140026fd0 f   httpdownloader.obj
 0001:00025fd0       ??$_Adl_verify_range@V?$_Tree_unchecked_const_iterator@V?$_Tree_val@U?$_Tree_simple_types@U?$pair@$$CBVQString@@_N@std@@@std@@@std@@U_Iterator_base0@2@@std@@V12@@std@@YAXAEBV?$_Tree_unchecked_const_iterator@V?$_Tree_val@U?$_Tree_simple_types@U?$pair@$$CBVQString@@_N@std@@@std@@@std@@U_Iterator_base0@2@@0@0@Z 0000000140026fd0 f   httpdownloader.obj
 0001:00025fd0       ??$_Adl_verify_range@Vconst_iterator@?$QHash@PEAVQWidget@@PEAVWidgetData@@@@V12@@std@@YAXAEBVconst_iterator@?$QHash@PEAVQWidget@@PEAVWidgetData@@@@0@Z 0000000140026fd0 f   FramelessHelper.obj
 0001:00025fd0       ??$_Adl_verify_range@Vkey_iterator@?$QHash@PEAVQWidget@@PEAVWidgetData@@@@V12@@std@@YAXAEBVkey_iterator@?$QHash@PEAVQWidget@@PEAVWidgetData@@@@0@Z 0000000140026fd0 f   FramelessHelper.obj
 0001:00025fd0       ??$_Destroy_range@PEAPEAPEAULogData@log4z@zsummer@@PEAPEAPEAU123@@std@@YAXPEAPEAPEAULogData@log4z@zsummer@@QEAPEAPEAU123@@Z 0000000140026fd0 f   log4z.obj
 0001:00025fd0       ??$_Destroy_range@PEAUTItemRect@CSlider@@PEAU12@@std@@YAXPEAUTItemRect@CSlider@@QEAU12@@Z 0000000140026fd0 f   slider.obj
 0001:00025fd0       ??$_Destroy_range@PEAUTNoteItem@NotificationMgr@@PEAU12@@std@@YAXPEAUTNoteItem@NotificationMgr@@QEAU12@@Z 0000000140026fd0 f   notificationpane.obj
 0001:00025fd0       ??$_Pocca@V?$allocator@D@std@@@std@@YAXAEAV?$allocator@D@0@AEBV10@@Z 0000000140026fd0 f   log4z.obj
 0001:00025fd0       ??$_Pocca@V?$allocator@_W@std@@@std@@YAXAEAV?$allocator@_W@0@AEBV10@@Z 0000000140026fd0 f   exception_handler.obj
 0001:00025fd0       ??$_Pocs@V?$allocator@PEAULogData@log4z@zsummer@@@std@@@std@@YAXAEAV?$allocator@PEAULogData@log4z@zsummer@@@0@0@Z 0000000140026fd0 f   log4z.obj
 0001:00025fd0       ??$destroy@PEAULogData@log4z@zsummer@@@?$_Default_allocator_traits@V?$allocator@PEAULogData@log4z@zsummer@@@std@@@std@@SAXAEAV?$allocator@PEAULogData@log4z@zsummer@@@1@QEAPEAULogData@log4z@zsummer@@@Z 0000000140026fd0 f   log4z.obj
 0001:00025fd0       ??$destroy@PEAVExceptionHandler@google_breakpad@@@?$_Default_allocator_traits@V?$allocator@PEAVExceptionHandler@google_breakpad@@@std@@@std@@SAXAEAV?$allocator@PEAVExceptionHandler@google_breakpad@@@1@QEAPEAVExceptionHandler@google_breakpad@@@Z 0000000140026fd0 f   exception_handler.obj
 0001:00025fd0       ??$destroy@UAppMemory@google_breakpad@@@?$_Default_allocator_traits@V?$allocator@U?$_List_node@UAppMemory@google_breakpad@@PEAX@std@@@std@@@std@@SAXAEAV?$allocator@U?$_List_node@UAppMemory@google_breakpad@@PEAX@std@@@1@QEAUAppMemory@google_breakpad@@@Z 0000000140026fd0 f   exception_handler.obj
 0001:00025fd0       ?_Adopt@_Iterator_base0@std@@QEAAXPEBX@Z 0000000140026fd0 f   log4z.obj
 0001:00025fd0       ?_Alloc_proxy@_Container_base0@std@@QEAAXAEBU_Fake_allocator@2@@Z 0000000140026fd0 f   log4z.obj
 0001:00025fd0       ?_Compat@?$_String_const_iterator@V?$_String_val@U?$_Simple_types@D@std@@@std@@@std@@QEBAXAEBV12@@Z 0000000140026fd0 f   log4z.obj
 0001:00025fd0       ?_Compat@?$_Vector_const_iterator@V?$_Vector_val@U?$_Simple_types@PEAVExceptionHandler@google_breakpad@@@std@@@std@@@std@@QEBAXAEBV12@@Z 0000000140026fd0 f   exception_handler.obj
 0001:00025fd0       ?_Orphan_ptr2@?$_List_val@U?$_List_simple_types@U?$pair@_JV?$basic_string@DU?$char_traits@D@std@@V?$allocator@D@2@@std@@@std@@@std@@@std@@QEAAXPEAU?$_List_node@U?$pair@_JV?$basic_string@DU?$char_traits@D@std@@V?$allocator@D@2@@std@@@std@@PEAX@2@@Z 0000000140026fd0 f   log4z.obj
 0001:00025fd0       ?_Orphan_ptr2@?$_List_val@U?$_List_simple_types@UAppMemory@google_breakpad@@@std@@@std@@QEAAXPEAU?$_List_node@UAppMemory@google_breakpad@@PEAX@2@@Z 0000000140026fd0 f   exception_handler.obj
 0001:00025fd0       ?_Orphan_ptr@?$_Tree_val@U?$_Tree_simple_types@U?$pair@$$CBVQString@@V1@@std@@@std@@@std@@QEAAXQEAU?$_Tree_node@U?$pair@$$CBVQString@@V1@@std@@PEAX@2@@Z 0000000140026fd0 f   httpdownloader.obj
 0001:00025fd0       ?_Orphan_ptr@?$_Tree_val@U?$_Tree_simple_types@U?$pair@$$CBVQString@@_N@std@@@std@@@std@@QEAAXQEAU?$_Tree_node@U?$pair@$$CBVQString@@_N@std@@PEAX@2@@Z 0000000140026fd0 f   httpdownloader.obj
 0001:00025fd0       ?_Swap_proxy_and_iterators@_Container_base0@std@@QEAAXAEAU12@@Z 0000000140026fd0 f   log4z.obj
 0001:00025fd0       ?_Verify_offset@?$_String_const_iterator@V?$_String_val@U?$_Simple_types@D@std@@@std@@@std@@QEBAX_J@Z 0000000140026fd0 f   log4z.obj
 0001:00026630       ??$distance@PEBVQString@@@std@@YA_JPEBVQString@@0@Z 0000000140027630 f   httpdownloader.obj
 0001:00026ae0       ??$loadRelaxed@H@?$QAtomicOps@H@@SAHAEBU?$atomic@H@std@@@Z 0000000140027ae0 f i sysprotect.obj
 0001:00026d10       ??$qMax@H_J@@YA_JAEBHAEB_J@Z 0000000140027d10 f i sysprotect.obj
 0001:00026d70       ??$qMax@_J@@YAAEB_JAEB_J0@Z 0000000140027d70 f i sysprotect.obj
 0001:00027230       ??$swap@PEAPEAPEAULogData@log4z@zsummer@@$0A@@std@@YAXAEAPEAPEAPEAULogData@log4z@zsummer@@0@Z 0000000140028230 f i log4z.obj
 0001:00027230       ??$swap@PEAU?$_List_node@U?$pair@_JV?$basic_string@DU?$char_traits@D@std@@V?$allocator@D@2@@std@@@std@@PEAX@std@@$0A@@std@@YAXAEAPEAU?$_List_node@U?$pair@_JV?$basic_string@DU?$char_traits@D@std@@V?$allocator@D@2@@std@@@std@@PEAX@0@0@Z 0000000140028230 f i log4z.obj
 0001:00027230       ??$swap@_J$0A@@std@@YAXAEA_J0@Z 0000000140028230 f i sysprotect.obj
 0001:00027230       ??$swap@_K$0A@@std@@YAXAEA_K0@Z 0000000140028230 f i log4z.obj
 0001:00027280       ??1SysProtect@@UEAA@XZ     0000000140028280 f i sysprotect.obj
 0001:00027280       ??1Virscan@@UEAA@XZ        0000000140028280 f i virscan.obj
 0001:000272a0       ??I?$QFlags@W4ArrayOption@QArrayData@@@@QEBA?AV0@W4ArrayOption@QArrayData@@@Z 00000001400282a0 f i sysprotect.obj
 0001:000272a0       ??I?$QFlags@W4KeyboardModifier@Qt@@@@QEBA?AV0@W4KeyboardModifier@Qt@@@Z 00000001400282a0 f i qxtglobalshortcut_win.obj
 0001:000272a0       ??I?$QFlags@W4MouseButton@Qt@@@@QEBA?AV0@W4MouseButton@Qt@@@Z 00000001400282a0 f i basedlg.obj
 0001:000272a0       ??I?$QFlags@W4WindowType@Qt@@@@QEBA?AV0@H@Z 00000001400282a0 f i perfectclock.obj
 0001:000272a0       ??I?$QFlags@W4WindowType@Qt@@@@QEBA?AV0@W4WindowType@Qt@@@Z 00000001400282a0 f i perfectclock.obj
 0001:000272e4       ??_EQStackedWidget@@WBA@EAAPEAXI@Z 00000001400282e4 f i sysprotect.obj
 0001:000272f0       ??_ESysProtect@@WBA@EAAPEAXI@Z 00000001400282f0 f i sysprotect.obj
 0001:00027300       ??_EQStackedWidget@@UEAAPEAXI@Z 0000000140028300 f i sysprotect.obj
 0001:00027300       ??_GQStackedWidget@@UEAAPEAXI@Z 0000000140028300 f i sysprotect.obj
 0001:00027340       ??_ESysProtect@@UEAAPEAXI@Z 0000000140028340 f i sysprotect.obj
 0001:00027340       ??_GSysProtect@@UEAAPEAXI@Z 0000000140028340 f i sysprotect.obj
 0001:00027380       ?detachCapacity@QArrayData@@QEBA_J_J@Z 0000000140028380 f i sysprotect.obj
 0001:00027400       ?load@?$_Atomic_storage@H$03@std@@QEBAHW4memory_order@2@@Z 0000000140028400 f i sysprotect.obj
 0001:00027460       ?loadRelaxed@?$QBasicAtomicInteger@H@@QEBAHXZ 0000000140028460 f i sysprotect.obj
 0001:00027480       ?needsDetach@QArrayData@@QEBA_NXZ 0000000140028480 f i sysprotect.obj
 0001:000274c0       ??0Virscan@@QEAA@PEAVQWidget@@@Z 00000001400284c0 f   virscan.obj
 0001:00027610       ?InitCtrl@Virscan@@AEAAXXZ 0000000140028610 f   virscan.obj
 0001:00027d40       ?Start@Virscan@@AEAAXXZ    0000000140028d40 f   virscan.obj
 0001:00027e40       ?Stop@Virscan@@AEAAXXZ     0000000140028e40 f   virscan.obj
 0001:00027f10       ?Pause@Virscan@@AEAAXXZ    0000000140028f10 f   virscan.obj
 0001:00027f20       ?OpenPage@Virscan@@EEAAXXZ 0000000140028f20 f   virscan.obj
 0001:00027f40       ?ClosePage@Virscan@@EEAAXXZ 0000000140028f40 f   virscan.obj
 0001:00027f60       ?CreateTop@@YAPEAVQWidget@@VQString@@00@Z 0000000140028f60 f   virscan.obj
 0001:00028b08       ??_EVirscan@@WBA@EAAPEAXI@Z 0000000140029b08 f i virscan.obj
 0001:00028b20       ??_EVirscan@@UEAAPEAXI@Z   0000000140029b20 f i virscan.obj
 0001:00028b20       ??_GVirscan@@UEAAPEAXI@Z   0000000140029b20 f i virscan.obj
 0001:00028b60       ??0DynamicBtn@@QEAA@PEAVQWidget@@@Z 0000000140029b60 f   dynamicbtn.obj
 0001:00029220       ?SetParam@DynamicBtn@@QEAAXVQString@@00@Z 000000014002a220 f   dynamicbtn.obj
 0001:00029370       ?Start@DynamicBtn@@QEAAXXZ 000000014002a370 f   dynamicbtn.obj
 0001:000293b0       ?Stop@DynamicBtn@@QEAAXXZ  000000014002a3b0 f   dynamicbtn.obj
 0001:000293f0       ?Pause@DynamicBtn@@QEAAXXZ 000000014002a3f0 f   dynamicbtn.obj
 0001:00029420       ?Clear@DynamicBtn@@QEAAXXZ 000000014002a420 f   dynamicbtn.obj
 0001:000294e0       ?paintEvent@DynamicBtn@@MEAAXPEAVQPaintEvent@@@Z 000000014002a4e0 f   dynamicbtn.obj
 0001:00029830       ?timerEvent@DynamicBtn@@MEAAXPEAVQTimerEvent@@@Z 000000014002a830 f   dynamicbtn.obj
 0001:000298a0       ??$qMax@H@@YAAEBHAEBH0@Z   000000014002a8a0 f i dynamicbtn.obj
 0001:000298f0       ??0QMargins@@QEAA@HHHH@Z   000000014002a8f0 f i dynamicbtn.obj
 0001:00029940       ??1DynamicBtn@@UEAA@XZ     000000014002a940 f i dynamicbtn.obj
 0001:0002996c       ??_EDynamicBtn@@WBA@EAAPEAXI@Z 000000014002a96c f i dynamicbtn.obj
 0001:00029980       ??_EDynamicBtn@@UEAAPEAXI@Z 000000014002a980 f i dynamicbtn.obj
 0001:00029980       ??_GDynamicBtn@@UEAAPEAXI@Z 000000014002a980 f i dynamicbtn.obj
 0001:000299c0       ??0Progress@@QEAA@PEAVQWidget@@@Z 000000014002a9c0 f   rrogress.obj
 0001:00029a30       ?paintEvent@Progress@@EEAAXPEAVQPaintEvent@@@Z 000000014002aa30 f   rrogress.obj
 0001:00029c28       ??_EBoderPane@@WBA@EAAPEAXI@Z 000000014002ac28 f i boderpane.obj
 0001:00029c28       ??_EClock@@WBA@EAAPEAXI@Z  000000014002ac28 f i perfectclock.obj
 0001:00029c28       ??_ELineProgress@@WBA@EAAPEAXI@Z 000000014002ac28 f i lineprogress.obj
 0001:00029c28       ??_EProgress@@WBA@EAAPEAXI@Z 000000014002ac28 f i rrogress.obj
 0001:00029c40       ??_EBoderPane@@UEAAPEAXI@Z 000000014002ac40 f i boderpane.obj
 0001:00029c40       ??_EClock@@UEAAPEAXI@Z     000000014002ac40 f i perfectclock.obj
 0001:00029c40       ??_ELineProgress@@UEAAPEAXI@Z 000000014002ac40 f i lineprogress.obj
 0001:00029c40       ??_EProgress@@UEAAPEAXI@Z  000000014002ac40 f i rrogress.obj
 0001:00029c40       ??_GBoderPane@@UEAAPEAXI@Z 000000014002ac40 f i boderpane.obj
 0001:00029c40       ??_GClock@@UEAAPEAXI@Z     000000014002ac40 f i perfectclock.obj
 0001:00029c40       ??_GLineProgress@@UEAAPEAXI@Z 000000014002ac40 f i lineprogress.obj
 0001:00029c40       ??_GProgress@@UEAAPEAXI@Z  000000014002ac40 f i rrogress.obj
 0001:00029c80       ?CreateCustomLabel@@YAPEAVQLabel@@VQString@@0H@Z 000000014002ac80 f   utils.obj
 0001:00029ef0       ?CreateCustomButton@@YAPEAVQPushButton@@VQString@@@Z 000000014002aef0 f   utils.obj
 0001:0002a010       ?CreateDefaultButton@@YAPEAVQPushButton@@VQString@@@Z 000000014002b010 f   utils.obj
 0001:0002a130       ?CreateCheckBox@@YAPEAVQCheckBox@@VQString@@@Z 000000014002b130 f   utils.obj
 0001:0002a250       ?CreateSeparator@@YAPEAVQWidget@@_N@Z 000000014002b250 f   utils.obj
 0001:0002a350       ?CreateButtonGroup@@YAPEAVQWidget@@V?$QList@VQString@@@@PEAPEAVQButtonGroup@@@Z 000000014002b350 f   utils.obj
 0001:0002a6c0       ?CreateAction@@YAPEAVQAction@@AEBVQString@@PEAVQObject@@0@Z 000000014002b6c0 f   utils.obj
 0001:0002a850       ?CreateGroupButton@@YAPEAVQPushButton@@VQString@@_N1@Z 000000014002b850 f   utils.obj
 0001:0002aa30       ??$_Destroy_in_place@VQString@@@std@@YAXAEAVQString@@@Z 000000014002ba30 f i utils.obj
 0001:0002aa50       ??$_Destroy_range@PEAVQString@@PEAV1@@std@@YAXPEAVQString@@QEAV1@@Z 000000014002ba50 f i utils.obj
 0001:0002aa90       ??$destroy@PEAVQString@@@std@@YAXQEAVQString@@0@Z 000000014002ba90 f i utils.obj
 0001:0002aae0       ??$qMakeForeachContainer@AEAV?$QList@VQString@@@@@QtPrivate@@YA?AV?$QForeachContainer@V?$QList@VQString@@@@@0@AEAV?$QList@VQString@@@@@Z 000000014002bae0 f i utils.obj
 0001:0002ab30       ??0?$QForeachContainer@V?$QList@VQString@@@@@QtPrivate@@QEAA@AEBV?$QList@VQString@@@@@Z 000000014002bb30 f i utils.obj
 0001:0002abc0       ??1?$QArrayDataPointer@VQString@@@@QEAA@XZ 000000014002bbc0 f i utils.obj
 0001:0002ac00       ??1?$QForeachContainer@V?$QList@VQString@@@@@QtPrivate@@QEAA@XZ 000000014002bc00 f i utils.obj
 0001:0002ac20       ??1?$QList@VQString@@@@QEAA@XZ 000000014002bc20 f i utils.obj
 0001:0002ac40       ??Econst_iterator@?$QList@VQString@@@@QEAAAEAV01@XZ 000000014002bc40 f i utils.obj
 0001:0002ac60       ??_EQAction@@UEAAPEAXI@Z   000000014002bc60 f i utils.obj
 0001:0002ac60       ??_GQAction@@UEAAPEAXI@Z   000000014002bc60 f i utils.obj
 0001:0002aca0       ??_EQButtonGroup@@UEAAPEAXI@Z 000000014002bca0 f i utils.obj
 0001:0002aca0       ??_GQButtonGroup@@UEAAPEAXI@Z 000000014002bca0 f i utils.obj
 0001:0002ace0       ??_GQString@@QEAAPEAXI@Z   000000014002bce0 f i utils.obj
 0001:0002ad20       ?constEnd@?$QArrayDataPointer@VQString@@@@QEBAPEBVQString@@XZ 000000014002bd20 f i utils.obj
 0001:0002ad20       ?end@?$QArrayDataPointer@VQPixmap@@@@QEAAPEAVQPixmap@@XZ 000000014002bd20 f i moviepicwidget.obj
 0001:0002ad20       ?end@?$QArrayDataPointer@VQString@@@@QEAAPEAVQString@@XZ 000000014002bd20 f i utils.obj
 0001:0002ad20       ?end@?$QArrayDataPointer@VQString@@@@QEBAPEBVQString@@XZ 000000014002bd20 f i httpdownloader.obj
 0001:0002ad50       ?deallocate@?$QTypedArrayData@VQPixmap@@@@SAXPEAUQArrayData@@@Z 000000014002bd50 f i moviepicwidget.obj
 0001:0002ad50       ?deallocate@?$QTypedArrayData@VQString@@@@SAXPEAUQArrayData@@@Z 000000014002bd50 f i utils.obj
 0001:0002ad80       ?destroyAll@?$QGenericArrayOps@VQString@@@QtPrivate@@QEAAXXZ 000000014002bd80 f i utils.obj
 0001:0002adc0       ?end@?$QList@VQString@@@@QEBA?AVconst_iterator@1@XZ 000000014002bdc0 f i utils.obj
 0001:0002ae00       ??0BoderPane@@QEAA@PEAVQWidget@@@Z 000000014002be00 f   boderpane.obj
 0001:0002aef0       ?centralWidget@BoderPane@@IEBAPEAVQWidget@@XZ 000000014002bef0 f   boderpane.obj
 0001:0002af10       ?InitMainCtrl@BoderPane@@AEAAXXZ 000000014002bf10 f   boderpane.obj
 0001:0002b160       ??_EQGraphicsDropShadowEffect@@UEAAPEAXI@Z 000000014002c160 f i boderpane.obj
 0001:0002b160       ??_GQGraphicsDropShadowEffect@@UEAAPEAXI@Z 000000014002c160 f i boderpane.obj
 0001:0002b1a0       ?getInstance@ILog4zManager@log4z@zsummer@@SAPEAV123@XZ 000000014002c1a0 f   log4z.obj
 0001:0002bbb0       ??0LockHelper@log4z@zsummer@@QEAA@XZ 000000014002cbb0 f   log4z.obj
 0001:0002bbf0       ??1LockHelper@log4z@zsummer@@UEAA@XZ 000000014002cbf0 f   log4z.obj
 0001:0002bc30       ?lock@LockHelper@log4z@zsummer@@QEAAXXZ 000000014002cc30 f   log4z.obj
 0001:0002bc60       ?unLock@LockHelper@log4z@zsummer@@QEAAXXZ 000000014002cc60 f   log4z.obj
 0001:0002bc90       ??0SemHelper@log4z@zsummer@@QEAA@XZ 000000014002cc90 f   log4z.obj
 0001:0002bcc0       ??1SemHelper@log4z@zsummer@@UEAA@XZ 000000014002ccc0 f   log4z.obj
 0001:0002bd10       ?create@SemHelper@log4z@zsummer@@QEAA_NH@Z 000000014002cd10 f   log4z.obj
 0001:0002bd80       ?wait@SemHelper@log4z@zsummer@@QEAA_NH@Z 000000014002cd80 f   log4z.obj
 0001:0002bdd0       ?post@SemHelper@log4z@zsummer@@QEAA_NXZ 000000014002cdd0 f   log4z.obj
 0001:0002be40       ?start@ThreadHelper@log4z@zsummer@@QEAA_NXZ 000000014002ce40 f   log4z.obj
 0001:0002beb0       ?wait@ThreadHelper@log4z@zsummer@@QEAA_NXZ 000000014002ceb0 f   log4z.obj
 0001:0002bef0       ??0LogerManager@log4z@zsummer@@QEAA@XZ 000000014002cef0 f   log4z.obj
 0001:0002c2a0       ??1LogerManager@log4z@zsummer@@UEAA@XZ 000000014002d2a0 f   log4z.obj
 0001:0002c3f0       ?configFromStringImpl@LogerManager@log4z@zsummer@@QEAA_NV?$basic_string@DU?$char_traits@D@std@@V?$allocator@D@2@@std@@_N@Z 000000014002d3f0 f   log4z.obj
 0001:0002c9f0       ?config@LogerManager@log4z@zsummer@@UEAA_NPEBD@Z 000000014002d9f0 f   log4z.obj
 0001:0002cbc0       ?configFromString@LogerManager@log4z@zsummer@@UEAA_NPEBD@Z 000000014002dbc0 f   log4z.obj
 0001:0002cc20       ?createLogger@LogerManager@log4z@zsummer@@UEAAHPEBD@Z 000000014002dc20 f   log4z.obj
 0001:0002ce80       ?start@LogerManager@log4z@zsummer@@UEAA_NXZ 000000014002de80 f   log4z.obj
 0001:0002cf40       ?stop@LogerManager@log4z@zsummer@@UEAA_NXZ 000000014002df40 f   log4z.obj
 0001:0002d010       ?prePushLog@LogerManager@log4z@zsummer@@UEAA_NHH@Z 000000014002e010 f   log4z.obj
 0001:0002d170       ?pushLog@LogerManager@log4z@zsummer@@UEAA_NPEAULogData@23@PEBDH@Z 000000014002e170 f   log4z.obj
 0001:0002d7a0       ?findLogger@LogerManager@log4z@zsummer@@UEAAHPEBD@Z 000000014002e7a0 f   log4z.obj
 0001:0002d880       ?hotChange@LogerManager@log4z@zsummer@@QEAA_NHW4LogDataType@23@HAEBV?$basic_string@DU?$char_traits@D@std@@V?$allocator@D@2@@std@@@Z 000000014002e880 f   log4z.obj
 0001:0002da60       ?enableLogger@LogerManager@log4z@zsummer@@UEAA_NH_N@Z 000000014002ea60 f   log4z.obj
 0001:0002db50       ?setLoggerName@LogerManager@log4z@zsummer@@UEAA_NHPEBD@Z 000000014002eb50 f   log4z.obj
 0001:0002dc30       ?setLoggerPath@LogerManager@log4z@zsummer@@UEAA_NHPEBD@Z 000000014002ec30 f   log4z.obj
 0001:0002dd60       ?setLoggerLevel@LogerManager@log4z@zsummer@@UEAA_NHH@Z 000000014002ed60 f   log4z.obj
 0001:0002de70       ?setLoggerFileLine@LogerManager@log4z@zsummer@@UEAA_NH_N@Z 000000014002ee70 f   log4z.obj
 0001:0002df10       ?setLoggerDisplay@LogerManager@log4z@zsummer@@UEAA_NH_N@Z 000000014002ef10 f   log4z.obj
 0001:0002dfb0       ?setLoggerOutFile@LogerManager@log4z@zsummer@@UEAA_NH_N@Z 000000014002efb0 f   log4z.obj
 0001:0002e050       ?setLoggerLimitsize@LogerManager@log4z@zsummer@@UEAA_NHI@Z 000000014002f050 f   log4z.obj
 0001:0002e100       ?setLoggerMonthdir@LogerManager@log4z@zsummer@@UEAA_NH_N@Z 000000014002f100 f   log4z.obj
 0001:0002e1a0       ?setLoggerReserveTime@LogerManager@log4z@zsummer@@UEAA_NH_J@Z 000000014002f1a0 f   log4z.obj
 0001:0002e240       ?setAutoUpdate@LogerManager@log4z@zsummer@@UEAA_NH@Z 000000014002f240 f   log4z.obj
 0001:0002e260       ?updateConfig@LogerManager@log4z@zsummer@@UEAA_NXZ 000000014002f260 f   log4z.obj
 0001:0002e3e0       ?isLoggerEnable@LogerManager@log4z@zsummer@@UEAA_NH@Z 000000014002f3e0 f   log4z.obj
 0001:0002e430       ?getStatusActiveLoggers@LogerManager@log4z@zsummer@@UEAAIXZ 000000014002f430 f   log4z.obj
 0001:0002e4a0       ?makeLogData@LogerManager@log4z@zsummer@@MEAAPEAULogData@23@HH@Z 000000014002f4a0 f   log4z.obj
 0001:0002eae0       ?freeLogData@LogerManager@log4z@zsummer@@MEAAXPEAULogData@23@@Z 000000014002fae0 f   log4z.obj
 0001:0002eb70       ?showColorText@LogerManager@log4z@zsummer@@IEAAXPEBDH@Z 000000014002fb70 f   log4z.obj
 0001:0002ec80       ?onHotChange@LogerManager@log4z@zsummer@@IEAA_NHW4LogDataType@23@HAEBV?$basic_string@DU?$char_traits@D@std@@V?$allocator@D@2@@std@@@Z 000000014002fc80 f   log4z.obj
 0001:0002ee80       ?openLogger@LogerManager@log4z@zsummer@@IEAA_NPEAULogData@23@@Z 000000014002fe80 f   log4z.obj
 0001:0002f730       ?closeLogger@LogerManager@log4z@zsummer@@IEAA_NH@Z 0000000140030730 f   log4z.obj
 0001:0002f7d0       ?popLog@LogerManager@log4z@zsummer@@IEAA_NAEAPEAULogData@23@@Z 00000001400307d0 f   log4z.obj
 0001:0002f8f0       ?run@LogerManager@log4z@zsummer@@MEAAXXZ 00000001400308f0 f   log4z.obj
 0001:00031360       ??$?0$$QEAV?$basic_string@DU?$char_traits@D@std@@V?$allocator@D@2@@std@@$$Z$$V@?$pair@$$CBV?$basic_string@DU?$char_traits@D@std@@V?$allocator@D@2@@std@@H@std@@QEAA@Upiecewise_construct_t@1@V?$tuple@$$QEAV?$basic_string@DU?$char_traits@D@std@@V?$allocator@D@2@@std@@@1@V?$tuple@$$V@1@@Z 0000000140032360 f i log4z.obj
 0001:000313d0       ??$?0$$V@?$_Compressed_pair@V?$allocator@PEAULogData@log4z@zsummer@@@std@@V?$_Deque_val@U?$_Deque_simple_types@PEAULogData@log4z@zsummer@@@std@@@2@$00@std@@QEAA@U_Zero_then_variadic_args_t@1@@Z 00000001400323d0 f i log4z.obj
 0001:00031400       ??$?0$$V@?$_Compressed_pair@V?$allocator@PEAULogData@log4z@zsummer@@@std@@V?$_Vector_val@U?$_Simple_types@PEAULogData@log4z@zsummer@@@std@@@2@$00@std@@QEAA@U_Zero_then_variadic_args_t@1@@Z 0000000140032400 f i log4z.obj
 0001:00031400       ??$?0$$V@?$_Compressed_pair@V?$allocator@PEAVExceptionHandler@google_breakpad@@@std@@V?$_Vector_val@U?$_Simple_types@PEAVExceptionHandler@google_breakpad@@@std@@@2@$00@std@@QEAA@U_Zero_then_variadic_args_t@1@@Z 0000000140032400 f i exception_handler.obj
 0001:00031430       ??$?0$$V@?$_Compressed_pair@V?$allocator@U?$_List_node@U?$pair@_JV?$basic_string@DU?$char_traits@D@std@@V?$allocator@D@2@@std@@@std@@PEAX@std@@@std@@V?$_List_val@U?$_List_simple_types@U?$pair@_JV?$basic_string@DU?$char_traits@D@std@@V?$allocator@D@2@@std@@@std@@@std@@@2@$00@std@@QEAA@U_Zero_then_variadic_args_t@1@@Z 0000000140032430 f i log4z.obj
 0001:00031430       ??$?0$$V@?$_Compressed_pair@V?$allocator@U?$_List_node@UAppMemory@google_breakpad@@PEAX@std@@@std@@V?$_List_val@U?$_List_simple_types@UAppMemory@google_breakpad@@@std@@@2@$00@std@@QEAA@U_Zero_then_variadic_args_t@1@@Z 0000000140032430 f i exception_handler.obj
 0001:00031430       ??$?0$$V@?$_Compressed_pair@V?$allocator@U?$_Tree_node@U?$pair@$$CBV?$basic_string@DU?$char_traits@D@std@@V?$allocator@D@2@@std@@H@std@@PEAX@std@@@std@@V?$_Tree_val@U?$_Tree_simple_types@U?$pair@$$CBV?$basic_string@DU?$char_traits@D@std@@V?$allocator@D@2@@std@@H@std@@@std@@@2@$00@std@@QEAA@U_Zero_then_variadic_args_t@1@@Z 0000000140032430 f i log4z.obj
 0001:00031430       ??$?0$$V@?$_Compressed_pair@V?$allocator@U?$_Tree_node@U?$pair@$$CBV?$basic_string@DU?$char_traits@D@std@@V?$allocator@D@2@@std@@ULoggerInfo@log4z@zsummer@@@std@@PEAX@std@@@std@@V?$_Tree_val@U?$_Tree_simple_types@U?$pair@$$CBV?$basic_string@DU?$char_traits@D@std@@V?$allocator@D@2@@std@@ULoggerInfo@log4z@zsummer@@@std@@@std@@@2@$00@std@@QEAA@U_Zero_then_variadic_args_t@1@@Z 0000000140032430 f i log4z.obj
 0001:00031430       ??$?0$$V@?$_Compressed_pair@V?$allocator@U?$_Tree_node@U?$pair@$$CBVQString@@V1@@std@@PEAX@std@@@std@@V?$_Tree_val@U?$_Tree_simple_types@U?$pair@$$CBVQString@@V1@@std@@@std@@@2@$00@std@@QEAA@U_Zero_then_variadic_args_t@1@@Z 0000000140032430 f i httpdownloader.obj
 0001:00031430       ??$?0$$V@?$_Compressed_pair@V?$allocator@U?$_Tree_node@U?$pair@$$CBVQString@@_N@std@@PEAX@std@@@std@@V?$_Tree_val@U?$_Tree_simple_types@U?$pair@$$CBVQString@@_N@std@@@std@@@2@$00@std@@QEAA@U_Zero_then_variadic_args_t@1@@Z 0000000140032430 f i httpdownloader.obj
 0001:00031460       ??$?0AEAPEAU?$_Tree_node@U?$pair@$$CBV?$basic_string@DU?$char_traits@D@std@@V?$allocator@D@2@@std@@ULoggerInfo@log4z@zsummer@@@std@@PEAX@std@@_N$0A@@?$pair@PEAU?$_Tree_node@U?$pair@$$CBV?$basic_string@DU?$char_traits@D@std@@V?$allocator@D@2@@std@@ULoggerInfo@log4z@zsummer@@@std@@PEAX@std@@_N@std@@QEAA@AEAPEAU?$_Tree_node@U?$pair@$$CBV?$basic_string@DU?$char_traits@D@std@@V?$allocator@D@2@@std@@ULoggerInfo@log4z@zsummer@@@std@@PEAX@1@$$QEA_N@Z 0000000140032460 f i log4z.obj
 0001:00031460       ??$?0AEAPEAU?$_Tree_node@U?$pair@$$CBVQString@@V1@@std@@PEAX@std@@_N$0A@@?$pair@PEAU?$_Tree_node@U?$pair@$$CBVQString@@V1@@std@@PEAX@std@@_N@std@@QEAA@AEAPEAU?$_Tree_node@U?$pair@$$CBVQString@@V1@@std@@PEAX@1@$$QEA_N@Z 0000000140032460 f i httpdownloader.obj
 0001:00031460       ??$?0AEBQEAU?$_Tree_node@U?$pair@$$CBV?$basic_string@DU?$char_traits@D@std@@V?$allocator@D@2@@std@@H@std@@PEAX@std@@_N$0A@@?$pair@PEAU?$_Tree_node@U?$pair@$$CBV?$basic_string@DU?$char_traits@D@std@@V?$allocator@D@2@@std@@H@std@@PEAX@std@@_N@std@@QEAA@AEBQEAU?$_Tree_node@U?$pair@$$CBV?$basic_string@DU?$char_traits@D@std@@V?$allocator@D@2@@std@@H@std@@PEAX@1@$$QEA_N@Z 0000000140032460 f i log4z.obj
 0001:00031460       ??$?0AEBQEAU?$_Tree_node@U?$pair@$$CBVQString@@_N@std@@PEAX@std@@_N$0A@@?$pair@PEAU?$_Tree_node@U?$pair@$$CBVQString@@_N@std@@PEAX@std@@_N@std@@QEAA@AEBQEAU?$_Tree_node@U?$pair@$$CBVQString@@_N@std@@PEAX@1@$$QEA_N@Z 0000000140032460 f i httpdownloader.obj
 0001:00031460       ??$?0PEAU?$_Tree_node@U?$pair@$$CBV?$basic_string@DU?$char_traits@D@std@@V?$allocator@D@2@@std@@H@std@@PEAX@std@@_N$0A@@?$pair@PEAU?$_Tree_node@U?$pair@$$CBV?$basic_string@DU?$char_traits@D@std@@V?$allocator@D@2@@std@@H@std@@PEAX@std@@_N@std@@QEAA@$$QEAPEAU?$_Tree_node@U?$pair@$$CBV?$basic_string@DU?$char_traits@D@std@@V?$allocator@D@2@@std@@H@std@@PEAX@1@$$QEA_N@Z 0000000140032460 f i log4z.obj
 0001:00031460       ??$?0PEAU?$_Tree_node@U?$pair@$$CBV?$basic_string@DU?$char_traits@D@std@@V?$allocator@D@2@@std@@ULoggerInfo@log4z@zsummer@@@std@@PEAX@std@@_N$0A@@?$pair@PEAU?$_Tree_node@U?$pair@$$CBV?$basic_string@DU?$char_traits@D@std@@V?$allocator@D@2@@std@@ULoggerInfo@log4z@zsummer@@@std@@PEAX@std@@_N@std@@QEAA@$$QEAPEAU?$_Tree_node@U?$pair@$$CBV?$basic_string@DU?$char_traits@D@std@@V?$allocator@D@2@@std@@ULoggerInfo@log4z@zsummer@@@std@@PEAX@1@$$QEA_N@Z 0000000140032460 f i log4z.obj
 0001:00031460       ??$?0PEAU?$_Tree_node@U?$pair@$$CBVQString@@V1@@std@@PEAX@std@@_N$0A@@?$pair@PEAU?$_Tree_node@U?$pair@$$CBVQString@@V1@@std@@PEAX@std@@_N@std@@QEAA@$$QEAPEAU?$_Tree_node@U?$pair@$$CBVQString@@V1@@std@@PEAX@1@$$QEA_N@Z 0000000140032460 f i httpdownloader.obj
 0001:00031460       ??$?0PEAU?$_Tree_node@U?$pair@$$CBVQString@@_N@std@@PEAX@std@@_N$0A@@?$pair@PEAU?$_Tree_node@U?$pair@$$CBVQString@@_N@std@@PEAX@std@@_N@std@@QEAA@$$QEAPEAU?$_Tree_node@U?$pair@$$CBVQString@@_N@std@@PEAX@1@$$QEA_N@Z 0000000140032460 f i httpdownloader.obj
 0001:000314b0       ??$?0AEAV?$basic_string@DU?$char_traits@D@std@@V?$allocator@D@2@@std@@AEAULoggerInfo@log4z@zsummer@@$0A@@?$pair@V?$basic_string@DU?$char_traits@D@std@@V?$allocator@D@2@@std@@ULoggerInfo@log4z@zsummer@@@std@@QEAA@AEAV?$basic_string@DU?$char_traits@D@std@@V?$allocator@D@2@@1@AEAULoggerInfo@log4z@zsummer@@@Z 00000001400324b0 f i log4z.obj
 0001:00031520       ??$?0AEBU?$less@V?$basic_string@DU?$char_traits@D@std@@V?$allocator@D@2@@std@@@std@@U_Zero_then_variadic_args_t@1@@?$_Compressed_pair@U?$less@V?$basic_string@DU?$char_traits@D@std@@V?$allocator@D@2@@std@@@std@@V?$_Compressed_pair@V?$allocator@U?$_Tree_node@U?$pair@$$CBV?$basic_string@DU?$char_traits@D@std@@V?$allocator@D@2@@std@@H@std@@PEAX@std@@@std@@V?$_Tree_val@U?$_Tree_simple_types@U?$pair@$$CBV?$basic_string@DU?$char_traits@D@std@@V?$allocator@D@2@@std@@H@std@@@std@@@2@$00@2@$00@std@@QEAA@U_One_then_variadic_args_t@1@AEBU?$less@V?$basic_string@DU?$char_traits@D@std@@V?$allocator@D@2@@std@@@1@$$QEAU_Zero_then_variadic_args_t@1@@Z 0000000140032520 f i log4z.obj
 0001:00031520       ??$?0AEBU?$less@V?$basic_string@DU?$char_traits@D@std@@V?$allocator@D@2@@std@@@std@@U_Zero_then_variadic_args_t@1@@?$_Compressed_pair@U?$less@V?$basic_string@DU?$char_traits@D@std@@V?$allocator@D@2@@std@@@std@@V?$_Compressed_pair@V?$allocator@U?$_Tree_node@U?$pair@$$CBV?$basic_string@DU?$char_traits@D@std@@V?$allocator@D@2@@std@@ULoggerInfo@log4z@zsummer@@@std@@PEAX@std@@@std@@V?$_Tree_val@U?$_Tree_simple_types@U?$pair@$$CBV?$basic_string@DU?$char_traits@D@std@@V?$allocator@D@2@@std@@ULoggerInfo@log4z@zsummer@@@std@@@std@@@2@$00@2@$00@std@@QEAA@U_One_then_variadic_args_t@1@AEBU?$less@V?$basic_string@DU?$char_traits@D@std@@V?$allocator@D@2@@std@@@1@$$QEAU_Zero_then_variadic_args_t@1@@Z 0000000140032520 f i log4z.obj
 0001:00031520       ??$?0AEBU?$less@VQString@@@std@@U_Zero_then_variadic_args_t@1@@?$_Compressed_pair@U?$less@VQString@@@std@@V?$_Compressed_pair@V?$allocator@U?$_Tree_node@U?$pair@$$CBVQString@@V1@@std@@PEAX@std@@@std@@V?$_Tree_val@U?$_Tree_simple_types@U?$pair@$$CBVQString@@V1@@std@@@std@@@2@$00@2@$00@std@@QEAA@U_One_then_variadic_args_t@1@AEBU?$less@VQString@@@1@$$QEAU_Zero_then_variadic_args_t@1@@Z 0000000140032520 f i httpdownloader.obj
 0001:00031520       ??$?0AEBU?$less@VQString@@@std@@U_Zero_then_variadic_args_t@1@@?$_Compressed_pair@U?$less@VQString@@@std@@V?$_Compressed_pair@V?$allocator@U?$_Tree_node@U?$pair@$$CBVQString@@_N@std@@PEAX@std@@@std@@V?$_Tree_val@U?$_Tree_simple_types@U?$pair@$$CBVQString@@_N@std@@@std@@@2@$00@2@$00@std@@QEAA@U_One_then_variadic_args_t@1@AEBU?$less@VQString@@@1@$$QEAU_Zero_then_variadic_args_t@1@@Z 0000000140032520 f i httpdownloader.obj
 0001:00031570       ??$?0AEBUpiecewise_construct_t@std@@V?$tuple@$$QEAV?$basic_string@DU?$char_traits@D@std@@V?$allocator@D@2@@std@@@1@V?$tuple@$$V@1@@?$_Tree_temp_node@V?$allocator@U?$_Tree_node@U?$pair@$$CBV?$basic_string@DU?$char_traits@D@std@@V?$allocator@D@2@@std@@H@std@@PEAX@std@@@std@@@std@@QEAA@AEAV?$allocator@U?$_Tree_node@U?$pair@$$CBV?$basic_string@DU?$char_traits@D@std@@V?$allocator@D@2@@std@@H@std@@PEAX@std@@@1@PEAU?$_Tree_node@U?$pair@$$CBV?$basic_string@DU?$char_traits@D@std@@V?$allocator@D@2@@std@@H@std@@PEAX@1@AEBUpiecewise_construct_t@1@$$QEAV?$tuple@$$QEAV?$basic_string@DU?$char_traits@D@std@@V?$allocator@D@2@@std@@@1@$$QEAV?$tuple@$$V@1@@Z 0000000140032570 f i log4z.obj
 0001:00031690       ??$?0AEBUpiecewise_construct_t@std@@V?$tuple@AEBV?$basic_string@DU?$char_traits@D@std@@V?$allocator@D@2@@std@@@1@V?$tuple@$$V@1@@?$_Tree_temp_node@V?$allocator@U?$_Tree_node@U?$pair@$$CBV?$basic_string@DU?$char_traits@D@std@@V?$allocator@D@2@@std@@H@std@@PEAX@std@@@std@@@std@@QEAA@AEAV?$allocator@U?$_Tree_node@U?$pair@$$CBV?$basic_string@DU?$char_traits@D@std@@V?$allocator@D@2@@std@@H@std@@PEAX@std@@@1@PEAU?$_Tree_node@U?$pair@$$CBV?$basic_string@DU?$char_traits@D@std@@V?$allocator@D@2@@std@@H@std@@PEAX@1@AEBUpiecewise_construct_t@1@$$QEAV?$tuple@AEBV?$basic_string@DU?$char_traits@D@std@@V?$allocator@D@2@@std@@@1@$$QEAV?$tuple@$$V@1@@Z 0000000140032690 f i log4z.obj
 0001:000317b0       ??$?0AEBV?$allocator@D@std@@$$V@?$_Compressed_pair@V?$allocator@D@std@@V?$_String_val@U?$_Simple_types@D@std@@@2@$00@std@@QEAA@U_One_then_variadic_args_t@1@AEBV?$allocator@D@1@@Z 00000001400327b0 f i log4z.obj
 0001:000317b0       ??$?0V?$allocator@D@std@@$$V@?$_Compressed_pair@V?$allocator@D@std@@V?$_String_val@U?$_Simple_types@D@std@@@2@$00@std@@QEAA@U_One_then_variadic_args_t@1@$$QEAV?$allocator@D@1@@Z 00000001400327b0 f i log4z.obj
 0001:000317b0       ??$?0V?$allocator@_W@std@@$$V@?$_Compressed_pair@V?$allocator@_W@std@@V?$_String_val@U?$_Simple_types@_W@std@@@2@$00@std@@QEAA@U_One_then_variadic_args_t@1@$$QEAV?$allocator@_W@1@@Z 00000001400327b0 f i string_utils.obj
 0001:000317f0       ??$?0AEBV?$basic_string@DU?$char_traits@D@std@@V?$allocator@D@2@@std@@$$Z$$V@?$pair@$$CBV?$basic_string@DU?$char_traits@D@std@@V?$allocator@D@2@@std@@H@std@@QEAA@Upiecewise_construct_t@1@V?$tuple@AEBV?$basic_string@DU?$char_traits@D@std@@V?$allocator@D@2@@std@@@1@V?$tuple@$$V@1@@Z 00000001400327f0 f i log4z.obj
 0001:00031860       ??$?0AEBV?$basic_string@DU?$char_traits@D@std@@V?$allocator@D@2@@std@@$0A@@?$tuple@AEBV?$basic_string@DU?$char_traits@D@std@@V?$allocator@D@2@@std@@@std@@QEAA@AEBV?$basic_string@DU?$char_traits@D@std@@V?$allocator@D@2@@1@@Z 0000000140032860 f i log4z.obj
 0001:00031890       ??$?0AEBV?$basic_string@DU?$char_traits@D@std@@V?$allocator@D@2@@std@@@?$_Tuple_val@AEBV?$basic_string@DU?$char_traits@D@std@@V?$allocator@D@2@@std@@@std@@QEAA@AEBV?$basic_string@DU?$char_traits@D@std@@V?$allocator@D@2@@1@@Z 0000000140032890 f i log4z.obj
 0001:00031890       ??$?0V?$basic_string@DU?$char_traits@D@std@@V?$allocator@D@2@@std@@@?$_Tuple_val@$$QEAV?$basic_string@DU?$char_traits@D@std@@V?$allocator@D@2@@std@@@std@@QEAA@$$QEAV?$basic_string@DU?$char_traits@D@std@@V?$allocator@D@2@@1@@Z 0000000140032890 f i log4z.obj
 0001:00031890       ??0?$back_insert_iterator@V?$QList@VQString@@@@@std@@QEAA@AEAV?$QList@VQString@@@@@Z 0000000140032890 f i httpdownloader.obj
 0001:000318c0       ??$?0PEAULogData@log4z@zsummer@@@?$allocator@PEAPEAULogData@log4z@zsummer@@@std@@QEAA@AEBV?$allocator@PEAULogData@log4z@zsummer@@@1@@Z 00000001400328c0 f i log4z.obj
 0001:000318c0       ??$?0PEAULogData@log4z@zsummer@@@?$allocator@U_Container_proxy@std@@@std@@QEAA@AEBV?$allocator@PEAULogData@log4z@zsummer@@@1@@Z 00000001400328c0 f i log4z.obj
 0001:000318c0       ??0?$tuple@$$V@std@@QEAA@AEBV01@@Z 00000001400328c0 f i log4z.obj
 0001:000318c0       ?select_on_container_copy_construction@?$_Default_allocator_traits@V?$allocator@D@std@@@std@@SA?AV?$allocator@D@2@AEBV32@@Z 00000001400328c0 f i log4z.obj
 0001:000318c0       ?select_on_container_copy_construction@?$_Default_allocator_traits@V?$allocator@U?$_List_node@U?$pair@_JV?$basic_string@DU?$char_traits@D@std@@V?$allocator@D@2@@std@@@std@@PEAX@std@@@std@@@std@@SA?AV?$allocator@U?$_List_node@U?$pair@_JV?$basic_string@DU?$char_traits@D@std@@V?$allocator@D@2@@std@@@std@@PEAX@std@@@2@AEBV32@@Z 00000001400328c0 f i log4z.obj
 0001:000318c0       ?select_on_container_copy_construction@?$_Default_allocator_traits@V?$allocator@U?$_Tree_node@U?$pair@$$CBVQString@@V1@@std@@PEAX@std@@@std@@@std@@SA?AV?$allocator@U?$_Tree_node@U?$pair@$$CBVQString@@V1@@std@@PEAX@std@@@2@AEBV32@@Z 00000001400328c0 f i httpdownloader.obj
 0001:000318c0       ?select_on_container_copy_construction@?$_Default_allocator_traits@V?$allocator@U?$_Tree_node@U?$pair@$$CBVQString@@_N@std@@PEAX@std@@@std@@@std@@SA?AV?$allocator@U?$_Tree_node@U?$pair@$$CBVQString@@_N@std@@PEAX@std@@@2@AEBV32@@Z 00000001400328c0 f i httpdownloader.obj
 0001:000318c0       ?select_on_container_copy_construction@?$_Default_allocator_traits@V?$allocator@_W@std@@@std@@SA?AV?$allocator@_W@2@AEBV32@@Z 00000001400328c0 f i string_utils.obj
 0001:000318d0       ??$?0U?$pair@V?$basic_string@DU?$char_traits@D@std@@V?$allocator@D@2@@std@@ULoggerInfo@log4z@zsummer@@@std@@@?$_Tree_temp_node@V?$allocator@U?$_Tree_node@U?$pair@$$CBV?$basic_string@DU?$char_traits@D@std@@V?$allocator@D@2@@std@@ULoggerInfo@log4z@zsummer@@@std@@PEAX@std@@@std@@@std@@QEAA@AEAV?$allocator@U?$_Tree_node@U?$pair@$$CBV?$basic_string@DU?$char_traits@D@std@@V?$allocator@D@2@@std@@ULoggerInfo@log4z@zsummer@@@std@@PEAX@std@@@1@PEAU?$_Tree_node@U?$pair@$$CBV?$basic_string@DU?$char_traits@D@std@@V?$allocator@D@2@@std@@ULoggerInfo@log4z@zsummer@@@std@@PEAX@1@$$QEAU?$pair@V?$basic_string@DU?$char_traits@D@std@@V?$allocator@D@2@@std@@ULoggerInfo@log4z@zsummer@@@1@@Z 00000001400328d0 f i log4z.obj
 0001:000319b0       ??$?0U?$pair@_JV?$basic_string@DU?$char_traits@D@std@@V?$allocator@D@2@@std@@@std@@@?$_List_node_emplace_op2@V?$allocator@U?$_List_node@U?$pair@_JV?$basic_string@DU?$char_traits@D@std@@V?$allocator@D@2@@std@@@std@@PEAX@std@@@std@@@std@@QEAA@AEAV?$allocator@U?$_List_node@U?$pair@_JV?$basic_string@DU?$char_traits@D@std@@V?$allocator@D@2@@std@@@std@@PEAX@std@@@1@$$QEAU?$pair@_JV?$basic_string@DU?$char_traits@D@std@@V?$allocator@D@2@@std@@@1@@Z 00000001400329b0 f i log4z.obj
 0001:00031a40       ??$?0U_Exact_args_t@std@@$0A@@?$tuple@$$V@std@@QEAA@U_Exact_args_t@1@@Z 0000000140032a40 f i log4z.obj
 0001:00031a40       ??$_Get_unwrapped_n@AEAV?$back_insert_iterator@V?$QList@VQString@@@@@std@@U_Distance_unknown@2@@std@@YA?A_TAEAV?$back_insert_iterator@V?$QList@VQString@@@@@0@U_Distance_unknown@0@@Z 0000000140032a40 f i httpdownloader.obj
 0001:00031a50       ??$?0U_Exact_args_t@std@@AEBV?$basic_string@DU?$char_traits@D@std@@V?$allocator@D@2@@1@$$V$0A@@?$tuple@AEBV?$basic_string@DU?$char_traits@D@std@@V?$allocator@D@2@@std@@@std@@QEAA@U_Exact_args_t@1@AEBV?$basic_string@DU?$char_traits@D@std@@V?$allocator@D@2@@1@@Z 0000000140032a50 f i log4z.obj
 0001:00031a50       ??$?0U_Exact_args_t@std@@V?$basic_string@DU?$char_traits@D@std@@V?$allocator@D@2@@1@$$V$0A@@?$tuple@$$QEAV?$basic_string@DU?$char_traits@D@std@@V?$allocator@D@2@@std@@@std@@QEAA@U_Exact_args_t@1@$$QEAV?$basic_string@DU?$char_traits@D@std@@V?$allocator@D@2@@1@@Z 0000000140032a50 f i log4z.obj
 0001:00031aa0       ??$?0V?$_Tree_iterator@V?$_Tree_val@U?$_Tree_simple_types@U?$pair@$$CBV?$basic_string@DU?$char_traits@D@std@@V?$allocator@D@2@@std@@ULoggerInfo@log4z@zsummer@@@std@@@std@@@std@@@std@@AEB_N$0A@@?$pair@V?$_Tree_iterator@V?$_Tree_val@U?$_Tree_simple_types@U?$pair@$$CBV?$basic_string@DU?$char_traits@D@std@@V?$allocator@D@2@@std@@ULoggerInfo@log4z@zsummer@@@std@@@std@@@std@@@std@@_N@std@@QEAA@$$QEAV?$_Tree_iterator@V?$_Tree_val@U?$_Tree_simple_types@U?$pair@$$CBV?$basic_string@DU?$char_traits@D@std@@V?$allocator@D@2@@std@@ULoggerInfo@log4z@zsummer@@@std@@@std@@@std@@@1@AEB_N@Z 0000000140032aa0 f i log4z.obj
 0001:00031aa0       ??$?0V?$_Tree_iterator@V?$_Tree_val@U?$_Tree_simple_types@U?$pair@$$CBVQString@@V1@@std@@@std@@@std@@@std@@AEB_N$0A@@?$pair@V?$_Tree_iterator@V?$_Tree_val@U?$_Tree_simple_types@U?$pair@$$CBVQString@@V1@@std@@@std@@@std@@@std@@_N@std@@QEAA@$$QEAV?$_Tree_iterator@V?$_Tree_val@U?$_Tree_simple_types@U?$pair@$$CBVQString@@V1@@std@@@std@@@std@@@1@AEB_N@Z 0000000140032aa0 f i httpdownloader.obj
 0001:00031aa0       ??$?0V?$_Tree_iterator@V?$_Tree_val@U?$_Tree_simple_types@U?$pair@$$CBVQString@@_N@std@@@std@@@std@@@std@@AEB_N$0A@@?$pair@V?$_Tree_iterator@V?$_Tree_val@U?$_Tree_simple_types@U?$pair@$$CBVQString@@_N@std@@@std@@@std@@@std@@_N@std@@QEAA@$$QEAV?$_Tree_iterator@V?$_Tree_val@U?$_Tree_simple_types@U?$pair@$$CBVQString@@_N@std@@@std@@@std@@@1@AEB_N@Z 0000000140032aa0 f i httpdownloader.obj
 0001:00031af0       ??$?0V?$allocator@U?$_List_node@U?$pair@_JV?$basic_string@DU?$char_traits@D@std@@V?$allocator@D@2@@std@@@std@@PEAX@std@@@std@@$$V@?$_Compressed_pair@V?$allocator@U?$_List_node@U?$pair@_JV?$basic_string@DU?$char_traits@D@std@@V?$allocator@D@2@@std@@@std@@PEAX@std@@@std@@V?$_List_val@U?$_List_simple_types@U?$pair@_JV?$basic_string@DU?$char_traits@D@std@@V?$allocator@D@2@@std@@@std@@@std@@@2@$00@std@@QEAA@U_One_then_variadic_args_t@1@$$QEAV?$allocator@U?$_List_node@U?$pair@_JV?$basic_string@DU?$char_traits@D@std@@V?$allocator@D@2@@std@@@std@@PEAX@std@@@1@@Z 0000000140032af0 f i log4z.obj
 0001:00031af0       ??$?0V?$allocator@U?$_Tree_node@U?$pair@$$CBVQString@@V1@@std@@PEAX@std@@@std@@$$V@?$_Compressed_pair@V?$allocator@U?$_Tree_node@U?$pair@$$CBVQString@@V1@@std@@PEAX@std@@@std@@V?$_Tree_val@U?$_Tree_simple_types@U?$pair@$$CBVQString@@V1@@std@@@std@@@2@$00@std@@QEAA@U_One_then_variadic_args_t@1@$$QEAV?$allocator@U?$_Tree_node@U?$pair@$$CBVQString@@V1@@std@@PEAX@std@@@1@@Z 0000000140032af0 f i httpdownloader.obj
 0001:00031af0       ??$?0V?$allocator@U?$_Tree_node@U?$pair@$$CBVQString@@_N@std@@PEAX@std@@@std@@$$V@?$_Compressed_pair@V?$allocator@U?$_Tree_node@U?$pair@$$CBVQString@@_N@std@@PEAX@std@@@std@@V?$_Tree_val@U?$_Tree_simple_types@U?$pair@$$CBVQString@@_N@std@@@std@@@2@$00@std@@QEAA@U_One_then_variadic_args_t@1@$$QEAV?$allocator@U?$_Tree_node@U?$pair@$$CBVQString@@_N@std@@PEAX@std@@@1@@Z 0000000140032af0 f i httpdownloader.obj
 0001:00031b30       ??$?0V?$basic_string@DU?$char_traits@D@std@@V?$allocator@D@2@@std@@$$V$0A@@?$tuple@$$QEAV?$basic_string@DU?$char_traits@D@std@@V?$allocator@D@2@@std@@@std@@QEAA@$$QEAV?$basic_string@DU?$char_traits@D@std@@V?$allocator@D@2@@1@@Z 0000000140032b30 f i log4z.obj
 0001:00031b80       ??$?0V?$basic_string@DU?$char_traits@D@std@@V?$allocator@D@2@@std@@PEBD$0A@@?$pair@V?$basic_string@DU?$char_traits@D@std@@V?$allocator@D@2@@std@@PEBD@std@@QEAA@AEBV?$basic_string@DU?$char_traits@D@std@@V?$allocator@D@2@@1@AEBQEBD@Z 0000000140032b80 f i log4z.obj
 0001:00031bd0       ??$?0V?$basic_string@DU?$char_traits@D@std@@V?$allocator@D@2@@std@@PEBD$0A@@?$pair@V?$basic_string@DU?$char_traits@D@std@@V?$allocator@D@2@@std@@V12@@std@@QEAA@$$QEAU?$pair@V?$basic_string@DU?$char_traits@D@std@@V?$allocator@D@2@@std@@PEBD@1@@Z 0000000140032bd0 f i log4z.obj
 0001:00031c40       ??$?0V?$basic_string@DU?$char_traits@D@std@@V?$allocator@D@2@@std@@ULoggerInfo@log4z@zsummer@@$0A@@?$pair@$$CBV?$basic_string@DU?$char_traits@D@std@@V?$allocator@D@2@@std@@ULoggerInfo@log4z@zsummer@@@std@@QEAA@$$QEAU?$pair@V?$basic_string@DU?$char_traits@D@std@@V?$allocator@D@2@@std@@ULoggerInfo@log4z@zsummer@@@1@@Z 0000000140032c40 f i log4z.obj
 0001:00031cb0       ??$?0V?$basic_string@DU?$char_traits@D@std@@V?$allocator@D@2@@std@@V01@$0A@@?$pair@V?$basic_string@DU?$char_traits@D@std@@V?$allocator@D@2@@std@@V12@@std@@QEAA@$$QEAV?$basic_string@DU?$char_traits@D@std@@V?$allocator@D@2@@1@0@Z 0000000140032cb0 f i log4z.obj
 0001:00031d20       ??$?0V?$tuple@$$QEAV?$basic_string@DU?$char_traits@D@std@@V?$allocator@D@2@@std@@@std@@V?$tuple@$$V@1@$0A@$$Z$S@?$pair@$$CBV?$basic_string@DU?$char_traits@D@std@@V?$allocator@D@2@@std@@H@std@@QEAA@AEAV?$tuple@$$QEAV?$basic_string@DU?$char_traits@D@std@@V?$allocator@D@2@@std@@@1@AEAV?$tuple@$$V@1@U?$integer_sequence@_K$0A@@1@U?$integer_sequence@_K$S@1@@Z 0000000140032d20 f i log4z.obj
 0001:00031d80       ??$?0V?$tuple@AEBV?$basic_string@DU?$char_traits@D@std@@V?$allocator@D@2@@std@@@std@@V?$tuple@$$V@1@$0A@$$Z$S@?$pair@$$CBV?$basic_string@DU?$char_traits@D@std@@V?$allocator@D@2@@std@@H@std@@QEAA@AEAV?$tuple@AEBV?$basic_string@DU?$char_traits@D@std@@V?$allocator@D@2@@std@@@1@AEAV?$tuple@$$V@1@U?$integer_sequence@_K$0A@@1@U?$integer_sequence@_K$S@1@@Z 0000000140032d80 f i log4z.obj
 0001:00031de0       ??$?0_JAEAV?$basic_string@DU?$char_traits@D@std@@V?$allocator@D@2@@std@@$0A@@?$pair@_JV?$basic_string@DU?$char_traits@D@std@@V?$allocator@D@2@@std@@@std@@QEAA@$$QEA_JAEAV?$basic_string@DU?$char_traits@D@std@@V?$allocator@D@2@@1@@Z 0000000140032de0 f i log4z.obj
 0001:00031e40       ??$?6DU?$char_traits@D@std@@V?$allocator@D@1@@Log4zStream@log4z@zsummer@@QEAAAEAV012@AEBV?$basic_string@DU?$char_traits@D@std@@V?$allocator@D@2@@std@@@Z 0000000140032e40 f i log4z.obj
 0001:00031e90       ??$?8DU?$char_traits@D@std@@V?$allocator@D@1@@std@@YA_NAEBV?$basic_string@DU?$char_traits@D@std@@V?$allocator@D@2@@0@0@Z 0000000140032e90 f i log4z.obj
 0001:00031ec0       ??$?9DU?$char_traits@D@std@@V?$allocator@D@1@@std@@YA_NAEBV?$basic_string@DU?$char_traits@D@std@@V?$allocator@D@2@@0@0@Z 0000000140032ec0 f i log4z.obj
 0001:00031f00       ??$?MDU?$char_traits@D@std@@V?$allocator@D@1@@std@@YA_NAEBV?$basic_string@DU?$char_traits@D@std@@V?$allocator@D@2@@0@0@Z 0000000140032f00 f i log4z.obj
 0001:00031f40       ??$_Alloc_proxy@V?$allocator@U_Container_proxy@std@@@std@@@_Container_base12@std@@QEAAX$$QEAV?$allocator@U_Container_proxy@std@@@1@@Z 0000000140032f40 f i log4z.obj
 0001:00031fb0       ??$_Append_range_unchecked@V?$_List_unchecked_const_iterator@V?$_List_val@U?$_List_simple_types@U?$pair@_JV?$basic_string@DU?$char_traits@D@std@@V?$allocator@D@2@@std@@@std@@@std@@@std@@U_Iterator_base0@2@@std@@V12@@?$_List_node_insert_op2@V?$allocator@U?$_List_node@U?$pair@_JV?$basic_string@DU?$char_traits@D@std@@V?$allocator@D@2@@std@@@std@@PEAX@std@@@std@@@std@@QEAAXV?$_List_unchecked_const_iterator@V?$_List_val@U?$_List_simple_types@U?$pair@_JV?$basic_string@DU?$char_traits@D@std@@V?$allocator@D@2@@std@@@std@@@std@@@std@@U_Iterator_base0@2@@1@V21@@Z 0000000140032fb0 f i log4z.obj
 0001:000321e0       ??$_Attach_head@U?$_List_simple_types@U?$pair@_JV?$basic_string@DU?$char_traits@D@std@@V?$allocator@D@2@@std@@@std@@@std@@@?$_List_node_insert_op2@V?$allocator@U?$_List_node@U?$pair@_JV?$basic_string@DU?$char_traits@D@std@@V?$allocator@D@2@@std@@@std@@PEAX@std@@@std@@@std@@QEAAXAEAV?$_List_val@U?$_List_simple_types@U?$pair@_JV?$basic_string@DU?$char_traits@D@std@@V?$allocator@D@2@@std@@@std@@@std@@@1@@Z 00000001400331e0 f i log4z.obj
 0001:00032300       ??$_Buyheadnode@V?$allocator@U?$_Tree_node@U?$pair@$$CBV?$basic_string@DU?$char_traits@D@std@@V?$allocator@D@2@@std@@H@std@@PEAX@std@@@std@@@?$_Tree_node@U?$pair@$$CBV?$basic_string@DU?$char_traits@D@std@@V?$allocator@D@2@@std@@H@std@@PEAX@std@@SAPEAU01@AEAV?$allocator@U?$_Tree_node@U?$pair@$$CBV?$basic_string@DU?$char_traits@D@std@@V?$allocator@D@2@@std@@H@std@@PEAX@std@@@1@@Z 0000000140033300 f i log4z.obj
 0001:00032380       ??$_Buyheadnode@V?$allocator@U?$_Tree_node@U?$pair@$$CBV?$basic_string@DU?$char_traits@D@std@@V?$allocator@D@2@@std@@ULoggerInfo@log4z@zsummer@@@std@@PEAX@std@@@std@@@?$_Tree_node@U?$pair@$$CBV?$basic_string@DU?$char_traits@D@std@@V?$allocator@D@2@@std@@ULoggerInfo@log4z@zsummer@@@std@@PEAX@std@@SAPEAU01@AEAV?$allocator@U?$_Tree_node@U?$pair@$$CBV?$basic_string@DU?$char_traits@D@std@@V?$allocator@D@2@@std@@ULoggerInfo@log4z@zsummer@@@std@@PEAX@std@@@1@@Z 0000000140033380 f i log4z.obj
 0001:00032400       ??$_Construct@$01PEBD@?$basic_string@DU?$char_traits@D@std@@V?$allocator@D@2@@std@@AEAAXQEBD_K@Z 0000000140033400 f i log4z.obj
 0001:00032570       ??$_Construct_in_place@U_Container_proxy@std@@PEAU_Container_base12@2@@std@@YAXAEAU_Container_proxy@0@$$QEAPEAU_Container_base12@0@@Z 0000000140033570 f i log4z.obj
 0001:000325d0       ??$_Construct_range_unchecked@V?$_List_unchecked_const_iterator@V?$_List_val@U?$_List_simple_types@U?$pair@_JV?$basic_string@DU?$char_traits@D@std@@V?$allocator@D@2@@std@@@std@@@std@@@std@@U_Iterator_base0@2@@std@@V12@@?$list@U?$pair@_JV?$basic_string@DU?$char_traits@D@std@@V?$allocator@D@2@@std@@@std@@V?$allocator@U?$pair@_JV?$basic_string@DU?$char_traits@D@std@@V?$allocator@D@2@@std@@@std@@@2@@std@@AEAAXV?$_List_unchecked_const_iterator@V?$_List_val@U?$_List_simple_types@U?$pair@_JV?$basic_string@DU?$char_traits@D@std@@V?$allocator@D@2@@std@@@std@@@std@@@std@@U_Iterator_base0@2@@1@V21@@Z 00000001400335d0 f i log4z.obj
 0001:00032670       ??$_Copy_memmove@PEAPEAPEAULogData@log4z@zsummer@@PEAPEAPEAU123@@std@@YAPEAPEAPEAULogData@log4z@zsummer@@PEAPEAPEAU123@00@Z 0000000140033670 f i log4z.obj
 0001:00032670       ??$_Copy_memmove@PEAPEAULogData@log4z@zsummer@@PEAPEAU123@@std@@YAPEAPEAULogData@log4z@zsummer@@PEAPEAU123@00@Z 0000000140033670 f i log4z.obj
 0001:00032670       ??$_Copy_memmove@PEAPEAVExceptionHandler@google_breakpad@@PEAPEAV12@@std@@YAPEAPEAVExceptionHandler@google_breakpad@@PEAPEAV12@00@Z 0000000140033670 f i exception_handler.obj
 0001:00032710       ??$_Deallocate_plain@V?$allocator@U_Container_proxy@std@@@std@@@std@@YAXAEAV?$allocator@U_Container_proxy@std@@@0@QEAU_Container_proxy@0@@Z 0000000140033710 f i log4z.obj
 0001:00032740       ??$_Delete_plain_internal@V?$allocator@U_Container_proxy@std@@@std@@@std@@YAXAEAV?$allocator@U_Container_proxy@std@@@0@QEAU_Container_proxy@0@@Z 0000000140033740 f i log4z.obj
 0001:00032770       ??$_Destroy_range@V?$allocator@D@std@@@std@@YAXPEADQEADAEAV?$allocator@D@0@@Z 0000000140033770 f i string_utils.obj
 0001:00032770       ??$_Destroy_range@V?$allocator@PEAULogData@log4z@zsummer@@@std@@@std@@YAXPEAPEAULogData@log4z@zsummer@@QEAPEAU123@AEAV?$allocator@PEAULogData@log4z@zsummer@@@0@@Z 0000000140033770 f i log4z.obj
 0001:00032770       ??$_Destroy_range@V?$allocator@PEAVExceptionHandler@google_breakpad@@@std@@@std@@YAXPEAPEAVExceptionHandler@google_breakpad@@QEAPEAV12@AEAV?$allocator@PEAVExceptionHandler@google_breakpad@@@0@@Z 0000000140033770 f i exception_handler.obj
 0001:00032770       ??$_Destroy_range@V?$allocator@_W@std@@@std@@YAXPEA_WQEA_WAEAV?$allocator@_W@0@@Z 0000000140033770 f i string_utils.obj
 0001:00032770       ?_Orphan_range@?$vector@PEAULogData@log4z@zsummer@@V?$allocator@PEAULogData@log4z@zsummer@@@std@@@std@@AEBAXPEAPEAULogData@log4z@zsummer@@0@Z 0000000140033770 f i log4z.obj
 0001:00032770       ?_Orphan_range@?$vector@PEAVExceptionHandler@google_breakpad@@V?$allocator@PEAVExceptionHandler@google_breakpad@@@std@@@std@@AEBAXPEAPEAVExceptionHandler@google_breakpad@@0@Z 0000000140033770 f i exception_handler.obj
 0001:00032780       ??$_Emplace@U?$pair@V?$basic_string@DU?$char_traits@D@std@@V?$allocator@D@2@@std@@ULoggerInfo@log4z@zsummer@@@std@@@?$_Tree@V?$_Tmap_traits@V?$basic_string@DU?$char_traits@D@std@@V?$allocator@D@2@@std@@ULoggerInfo@log4z@zsummer@@U?$less@V?$basic_string@DU?$char_traits@D@std@@V?$allocator@D@2@@std@@@2@V?$allocator@U?$pair@$$CBV?$basic_string@DU?$char_traits@D@std@@V?$allocator@D@2@@std@@ULoggerInfo@log4z@zsummer@@@std@@@2@$0A@@std@@@std@@IEAA?AU?$pair@PEAU?$_Tree_node@U?$pair@$$CBV?$basic_string@DU?$char_traits@D@std@@V?$allocator@D@2@@std@@ULoggerInfo@log4z@zsummer@@@std@@PEAX@std@@_N@1@$$QEAU?$pair@V?$basic_string@DU?$char_traits@D@std@@V?$allocator@D@2@@std@@ULoggerInfo@log4z@zsummer@@@1@@Z 0000000140033780 f i log4z.obj
 0001:00032910       ??$_Emplace@U?$pair@_JV?$basic_string@DU?$char_traits@D@std@@V?$allocator@D@2@@std@@@std@@@?$list@U?$pair@_JV?$basic_string@DU?$char_traits@D@std@@V?$allocator@D@2@@std@@@std@@V?$allocator@U?$pair@_JV?$basic_string@DU?$char_traits@D@std@@V?$allocator@D@2@@std@@@std@@@2@@std@@QEAAPEAU?$_List_node@U?$pair@_JV?$basic_string@DU?$char_traits@D@std@@V?$allocator@D@2@@std@@@std@@PEAX@1@QEAU21@$$QEAU?$pair@_JV?$basic_string@DU?$char_traits@D@std@@V?$allocator@D@2@@std@@@1@@Z 0000000140033910 f i log4z.obj
 0001:000329c0       ??$_Emplace_back@AEAPEAPEAULogData@log4z@zsummer@@@?$_Uninitialized_backout@PEAPEAPEAULogData@log4z@zsummer@@@std@@QEAAXAEAPEAPEAULogData@log4z@zsummer@@@Z 00000001400339c0 f i log4z.obj
 0001:00032a20       ??$_Emplace_back@PEAULogData@log4z@zsummer@@@?$_Uninitialized_backout_al@V?$allocator@PEAULogData@log4z@zsummer@@@std@@@std@@QEAAX$$QEAPEAULogData@log4z@zsummer@@@Z 0000000140033a20 f i log4z.obj
 0001:00032a20       ??$_Emplace_back@PEAVExceptionHandler@google_breakpad@@@?$_Uninitialized_backout_al@V?$allocator@PEAVExceptionHandler@google_breakpad@@@std@@@std@@QEAAX$$QEAPEAVExceptionHandler@google_breakpad@@@Z 0000000140033a20 f i exception_handler.obj
 0001:00032a90       ??$_Emplace_back_internal@AEBQEAULogData@log4z@zsummer@@@?$deque@PEAULogData@log4z@zsummer@@V?$allocator@PEAULogData@log4z@zsummer@@@std@@@std@@AEAAXAEBQEAULogData@log4z@zsummer@@@Z 0000000140033a90 f i log4z.obj
 0001:00032cf0       ??$_Emplace_back_with_unused_capacity@AEBQEAULogData@log4z@zsummer@@@?$vector@PEAULogData@log4z@zsummer@@V?$allocator@PEAULogData@log4z@zsummer@@@std@@@std@@AEAAAEAPEAULogData@log4z@zsummer@@AEBQEAU234@@Z 0000000140033cf0 f i log4z.obj
 0001:00032cf0       ??$_Emplace_back_with_unused_capacity@PEAVExceptionHandler@google_breakpad@@@?$vector@PEAVExceptionHandler@google_breakpad@@V?$allocator@PEAVExceptionHandler@google_breakpad@@@std@@@std@@AEAAAEAPEAVExceptionHandler@google_breakpad@@$$QEAPEAV23@@Z 0000000140033cf0 f i exception_handler.obj
 0001:00032d90       ??$_Emplace_one_at_back@AEBQEAULogData@log4z@zsummer@@@?$vector@PEAULogData@log4z@zsummer@@V?$allocator@PEAULogData@log4z@zsummer@@@std@@@std@@AEAAAEAPEAULogData@log4z@zsummer@@AEBQEAU234@@Z 0000000140033d90 f i log4z.obj
 0001:00032d90       ??$_Emplace_one_at_back@PEAVExceptionHandler@google_breakpad@@@?$vector@PEAVExceptionHandler@google_breakpad@@V?$allocator@PEAVExceptionHandler@google_breakpad@@@std@@@std@@AEAAAEAPEAVExceptionHandler@google_breakpad@@$$QEAPEAV23@@Z 0000000140033d90 f i exception_handler.obj
 0001:00032e20       ??$_Emplace_reallocate@AEBQEAULogData@log4z@zsummer@@@?$vector@PEAULogData@log4z@zsummer@@V?$allocator@PEAULogData@log4z@zsummer@@@std@@@std@@AEAAPEAPEAULogData@log4z@zsummer@@QEAPEAU234@AEBQEAU234@@Z 0000000140033e20 f i log4z.obj
 0001:00032e20       ??$_Emplace_reallocate@PEAVExceptionHandler@google_breakpad@@@?$vector@PEAVExceptionHandler@google_breakpad@@V?$allocator@PEAVExceptionHandler@google_breakpad@@@std@@@std@@AEAAPEAPEAVExceptionHandler@google_breakpad@@QEAPEAV23@$$QEAPEAV23@@Z 0000000140033e20 f i exception_handler.obj
 0001:00033030       ??$_Erase_head@V?$allocator@U?$_Tree_node@U?$pair@$$CBV?$basic_string@DU?$char_traits@D@std@@V?$allocator@D@2@@std@@H@std@@PEAX@std@@@std@@@?$_Tree_val@U?$_Tree_simple_types@U?$pair@$$CBV?$basic_string@DU?$char_traits@D@std@@V?$allocator@D@2@@std@@H@std@@@std@@@std@@QEAAXAEAV?$allocator@U?$_Tree_node@U?$pair@$$CBV?$basic_string@DU?$char_traits@D@std@@V?$allocator@D@2@@std@@H@std@@PEAX@std@@@1@@Z 0000000140034030 f i log4z.obj
 0001:00033080       ??$_Erase_head@V?$allocator@U?$_Tree_node@U?$pair@$$CBV?$basic_string@DU?$char_traits@D@std@@V?$allocator@D@2@@std@@ULoggerInfo@log4z@zsummer@@@std@@PEAX@std@@@std@@@?$_Tree_val@U?$_Tree_simple_types@U?$pair@$$CBV?$basic_string@DU?$char_traits@D@std@@V?$allocator@D@2@@std@@ULoggerInfo@log4z@zsummer@@@std@@@std@@@std@@QEAAXAEAV?$allocator@U?$_Tree_node@U?$pair@$$CBV?$basic_string@DU?$char_traits@D@std@@V?$allocator@D@2@@std@@ULoggerInfo@log4z@zsummer@@@std@@PEAX@std@@@1@@Z 0000000140034080 f i log4z.obj
 0001:000330d0       ??$_Erase_tree@V?$allocator@U?$_Tree_node@U?$pair@$$CBV?$basic_string@DU?$char_traits@D@std@@V?$allocator@D@2@@std@@H@std@@PEAX@std@@@std@@@?$_Tree_val@U?$_Tree_simple_types@U?$pair@$$CBV?$basic_string@DU?$char_traits@D@std@@V?$allocator@D@2@@std@@H@std@@@std@@@std@@QEAAXAEAV?$allocator@U?$_Tree_node@U?$pair@$$CBV?$basic_string@DU?$char_traits@D@std@@V?$allocator@D@2@@std@@H@std@@PEAX@std@@@1@PEAU?$_Tree_node@U?$pair@$$CBV?$basic_string@DU?$char_traits@D@std@@V?$allocator@D@2@@std@@H@std@@PEAX@1@@Z 00000001400340d0 f i log4z.obj
 0001:00033130       ??$_Erase_tree@V?$allocator@U?$_Tree_node@U?$pair@$$CBV?$basic_string@DU?$char_traits@D@std@@V?$allocator@D@2@@std@@ULoggerInfo@log4z@zsummer@@@std@@PEAX@std@@@std@@@?$_Tree_val@U?$_Tree_simple_types@U?$pair@$$CBV?$basic_string@DU?$char_traits@D@std@@V?$allocator@D@2@@std@@ULoggerInfo@log4z@zsummer@@@std@@@std@@@std@@QEAAXAEAV?$allocator@U?$_Tree_node@U?$pair@$$CBV?$basic_string@DU?$char_traits@D@std@@V?$allocator@D@2@@std@@ULoggerInfo@log4z@zsummer@@@std@@PEAX@std@@@1@PEAU?$_Tree_node@U?$pair@$$CBV?$basic_string@DU?$char_traits@D@std@@V?$allocator@D@2@@std@@ULoggerInfo@log4z@zsummer@@@std@@PEAX@1@@Z 0000000140034130 f i log4z.obj
 0001:00033190       ??$_Find@V?$basic_string@DU?$char_traits@D@std@@V?$allocator@D@2@@std@@@?$_Tree@V?$_Tmap_traits@V?$basic_string@DU?$char_traits@D@std@@V?$allocator@D@2@@std@@HU?$less@V?$basic_string@DU?$char_traits@D@std@@V?$allocator@D@2@@std@@@2@V?$allocator@U?$pair@$$CBV?$basic_string@DU?$char_traits@D@std@@V?$allocator@D@2@@std@@H@std@@@2@$0A@@std@@@std@@AEBAPEAU?$_Tree_node@U?$pair@$$CBV?$basic_string@DU?$char_traits@D@std@@V?$allocator@D@2@@std@@H@std@@PEAX@1@AEBV?$basic_string@DU?$char_traits@D@std@@V?$allocator@D@2@@1@@Z 0000000140034190 f i log4z.obj
 0001:00033190       ??$_Find@V?$basic_string@DU?$char_traits@D@std@@V?$allocator@D@2@@std@@@?$_Tree@V?$_Tmap_traits@V?$basic_string@DU?$char_traits@D@std@@V?$allocator@D@2@@std@@ULoggerInfo@log4z@zsummer@@U?$less@V?$basic_string@DU?$char_traits@D@std@@V?$allocator@D@2@@std@@@2@V?$allocator@U?$pair@$$CBV?$basic_string@DU?$char_traits@D@std@@V?$allocator@D@2@@std@@ULoggerInfo@log4z@zsummer@@@std@@@2@$0A@@std@@@std@@AEBAPEAU?$_Tree_node@U?$pair@$$CBV?$basic_string@DU?$char_traits@D@std@@V?$allocator@D@2@@std@@ULoggerInfo@log4z@zsummer@@@std@@PEAX@1@AEBV?$basic_string@DU?$char_traits@D@std@@V?$allocator@D@2@@1@@Z 0000000140034190 f i log4z.obj
 0001:000331f0       ??$_Find_lower_bound@V?$basic_string@DU?$char_traits@D@std@@V?$allocator@D@2@@std@@@?$_Tree@V?$_Tmap_traits@V?$basic_string@DU?$char_traits@D@std@@V?$allocator@D@2@@std@@HU?$less@V?$basic_string@DU?$char_traits@D@std@@V?$allocator@D@2@@std@@@2@V?$allocator@U?$pair@$$CBV?$basic_string@DU?$char_traits@D@std@@V?$allocator@D@2@@std@@H@std@@@2@$0A@@std@@@std@@IEBA?AU?$_Tree_find_result@PEAU?$_Tree_node@U?$pair@$$CBV?$basic_string@DU?$char_traits@D@std@@V?$allocator@D@2@@std@@H@std@@PEAX@std@@@1@AEBV?$basic_string@DU?$char_traits@D@std@@V?$allocator@D@2@@1@@Z 00000001400341f0 f i log4z.obj
 0001:000331f0       ??$_Find_lower_bound@V?$basic_string@DU?$char_traits@D@std@@V?$allocator@D@2@@std@@@?$_Tree@V?$_Tmap_traits@V?$basic_string@DU?$char_traits@D@std@@V?$allocator@D@2@@std@@ULoggerInfo@log4z@zsummer@@U?$less@V?$basic_string@DU?$char_traits@D@std@@V?$allocator@D@2@@std@@@2@V?$allocator@U?$pair@$$CBV?$basic_string@DU?$char_traits@D@std@@V?$allocator@D@2@@std@@ULoggerInfo@log4z@zsummer@@@std@@@2@$0A@@std@@@std@@IEBA?AU?$_Tree_find_result@PEAU?$_Tree_node@U?$pair@$$CBV?$basic_string@DU?$char_traits@D@std@@V?$allocator@D@2@@std@@ULoggerInfo@log4z@zsummer@@@std@@PEAX@std@@@1@AEBV?$basic_string@DU?$char_traits@D@std@@V?$allocator@D@2@@1@@Z 00000001400341f0 f i log4z.obj
 0001:00033300       ??$_Free_non_head@V?$allocator@U?$_List_node@U?$pair@_JV?$basic_string@DU?$char_traits@D@std@@V?$allocator@D@2@@std@@@std@@PEAX@std@@@std@@@?$_List_node@U?$pair@_JV?$basic_string@DU?$char_traits@D@std@@V?$allocator@D@2@@std@@@std@@PEAX@std@@SAXAEAV?$allocator@U?$_List_node@U?$pair@_JV?$basic_string@DU?$char_traits@D@std@@V?$allocator@D@2@@std@@@std@@PEAX@std@@@1@PEAU01@@Z 0000000140034300 f i log4z.obj
 0001:00033370       ??$_Freenode0@V?$allocator@U?$_List_node@U?$pair@_JV?$basic_string@DU?$char_traits@D@std@@V?$allocator@D@2@@std@@@std@@PEAX@std@@@std@@@?$_List_node@U?$pair@_JV?$basic_string@DU?$char_traits@D@std@@V?$allocator@D@2@@std@@@std@@PEAX@std@@SAXAEAV?$allocator@U?$_List_node@U?$pair@_JV?$basic_string@DU?$char_traits@D@std@@V?$allocator@D@2@@std@@@std@@PEAX@std@@@1@PEAU01@@Z 0000000140034370 f i log4z.obj
 0001:000333c0       ??$_Freenode0@V?$allocator@U?$_Tree_node@U?$pair@$$CBV?$basic_string@DU?$char_traits@D@std@@V?$allocator@D@2@@std@@H@std@@PEAX@std@@@std@@@?$_Tree_node@U?$pair@$$CBV?$basic_string@DU?$char_traits@D@std@@V?$allocator@D@2@@std@@H@std@@PEAX@std@@SAXAEAV?$allocator@U?$_Tree_node@U?$pair@$$CBV?$basic_string@DU?$char_traits@D@std@@V?$allocator@D@2@@std@@H@std@@PEAX@std@@@1@PEAU01@@Z 00000001400343c0 f i log4z.obj
 0001:00033420       ??$_Freenode0@V?$allocator@U?$_Tree_node@U?$pair@$$CBV?$basic_string@DU?$char_traits@D@std@@V?$allocator@D@2@@std@@ULoggerInfo@log4z@zsummer@@@std@@PEAX@std@@@std@@@?$_Tree_node@U?$pair@$$CBV?$basic_string@DU?$char_traits@D@std@@V?$allocator@D@2@@std@@ULoggerInfo@log4z@zsummer@@@std@@PEAX@std@@SAXAEAV?$allocator@U?$_Tree_node@U?$pair@$$CBV?$basic_string@DU?$char_traits@D@std@@V?$allocator@D@2@@std@@ULoggerInfo@log4z@zsummer@@@std@@PEAX@std@@@1@PEAU01@@Z 0000000140034420 f i log4z.obj
 0001:00033480       ??$_Freenode@V?$allocator@U?$_List_node@U?$pair@_JV?$basic_string@DU?$char_traits@D@std@@V?$allocator@D@2@@std@@@std@@PEAX@std@@@std@@@?$_List_node@U?$pair@_JV?$basic_string@DU?$char_traits@D@std@@V?$allocator@D@2@@std@@@std@@PEAX@std@@SAXAEAV?$allocator@U?$_List_node@U?$pair@_JV?$basic_string@DU?$char_traits@D@std@@V?$allocator@D@2@@std@@@std@@PEAX@std@@@1@PEAU01@@Z 0000000140034480 f i log4z.obj
 0001:000334d0       ??$_Freenode@V?$allocator@U?$_Tree_node@U?$pair@$$CBV?$basic_string@DU?$char_traits@D@std@@V?$allocator@D@2@@std@@H@std@@PEAX@std@@@std@@@?$_Tree_node@U?$pair@$$CBV?$basic_string@DU?$char_traits@D@std@@V?$allocator@D@2@@std@@H@std@@PEAX@std@@SAXAEAV?$allocator@U?$_Tree_node@U?$pair@$$CBV?$basic_string@DU?$char_traits@D@std@@V?$allocator@D@2@@std@@H@std@@PEAX@std@@@1@PEAU01@@Z 00000001400344d0 f i log4z.obj
 0001:00033520       ??$_Freenode@V?$allocator@U?$_Tree_node@U?$pair@$$CBV?$basic_string@DU?$char_traits@D@std@@V?$allocator@D@2@@std@@ULoggerInfo@log4z@zsummer@@@std@@PEAX@std@@@std@@@?$_Tree_node@U?$pair@$$CBV?$basic_string@DU?$char_traits@D@std@@V?$allocator@D@2@@std@@ULoggerInfo@log4z@zsummer@@@std@@PEAX@std@@SAXAEAV?$allocator@U?$_Tree_node@U?$pair@$$CBV?$basic_string@DU?$char_traits@D@std@@V?$allocator@D@2@@std@@ULoggerInfo@log4z@zsummer@@@std@@PEAX@std@@@1@PEAU01@@Z 0000000140034520 f i log4z.obj
 0001:00033570       ??$_Get_size_of_n@$07@std@@YA_K_K@Z 0000000140034570 f i log4z.obj
 0001:000335c0       ??$_Get_size_of_n@$0BA@@std@@YA_K_K@Z 00000001400345c0 f i log4z.obj
 0001:00033600       ??$_Get_size_of_n@$0DI@@std@@YA_K_K@Z 0000000140034600 f i log4z.obj
 0001:00033640       ??$_Get_size_of_n@$0EI@@std@@YA_K_K@Z 0000000140034640 f i log4z.obj
 0001:00033680       ??$_Get_size_of_n@$0OI@@std@@YA_K_K@Z 0000000140034680 f i log4z.obj
 0001:000336d0       ??$_Get_unwrapped@AEBV?$_String_iterator@V?$_String_val@U?$_Simple_types@D@std@@@std@@@std@@@std@@YA?A_TAEBV?$_String_iterator@V?$_String_val@U?$_Simple_types@D@std@@@std@@@0@@Z 00000001400346d0 f i log4z.obj
 0001:000336f0       ??$_Get_unwrapped_n@AEAPEAPEAPEAULogData@log4z@zsummer@@_J@std@@YA?A_TAEAPEAPEAPEAULogData@log4z@zsummer@@_J@Z 00000001400346f0 f i log4z.obj
 0001:00033710       ??$_Get_unwrapped_n@AEAV?$_String_iterator@V?$_String_val@U?$_Simple_types@D@std@@@std@@@std@@_J@std@@YA?A_TAEAV?$_String_iterator@V?$_String_val@U?$_Simple_types@D@std@@@std@@@0@_J@Z 0000000140034710 f i log4z.obj
 0001:00033750       ??$_Idl_distance@PEAPEAPEAULogData@log4z@zsummer@@PEAPEAPEAU123@@std@@YA?A_PAEBQEAPEAPEAULogData@log4z@zsummer@@0@Z 0000000140034750 f i log4z.obj
 0001:00033780       ??$_Idl_distance@V?$_String_iterator@V?$_String_val@U?$_Simple_types@D@std@@@std@@@std@@PEAD@std@@YA?A_PAEBQEAD0@Z 0000000140034780 f i log4z.obj
 0001:000337a0       ??$_Lower_bound_duplicate@V?$basic_string@DU?$char_traits@D@std@@V?$allocator@D@2@@std@@@?$_Tree@V?$_Tmap_traits@V?$basic_string@DU?$char_traits@D@std@@V?$allocator@D@2@@std@@HU?$less@V?$basic_string@DU?$char_traits@D@std@@V?$allocator@D@2@@std@@@2@V?$allocator@U?$pair@$$CBV?$basic_string@DU?$char_traits@D@std@@V?$allocator@D@2@@std@@H@std@@@2@$0A@@std@@@std@@IEBA_NQEAU?$_Tree_node@U?$pair@$$CBV?$basic_string@DU?$char_traits@D@std@@V?$allocator@D@2@@std@@H@std@@PEAX@1@AEBV?$basic_string@DU?$char_traits@D@std@@V?$allocator@D@2@@1@@Z 00000001400347a0 f i log4z.obj
 0001:000337a0       ??$_Lower_bound_duplicate@V?$basic_string@DU?$char_traits@D@std@@V?$allocator@D@2@@std@@@?$_Tree@V?$_Tmap_traits@V?$basic_string@DU?$char_traits@D@std@@V?$allocator@D@2@@std@@ULoggerInfo@log4z@zsummer@@U?$less@V?$basic_string@DU?$char_traits@D@std@@V?$allocator@D@2@@std@@@2@V?$allocator@U?$pair@$$CBV?$basic_string@DU?$char_traits@D@std@@V?$allocator@D@2@@std@@ULoggerInfo@log4z@zsummer@@@std@@@2@$0A@@std@@@std@@IEBA_NQEAU?$_Tree_node@U?$pair@$$CBV?$basic_string@DU?$char_traits@D@std@@V?$allocator@D@2@@std@@ULoggerInfo@log4z@zsummer@@@std@@PEAX@1@AEBV?$basic_string@DU?$char_traits@D@std@@V?$allocator@D@2@@1@@Z 00000001400347a0 f i log4z.obj
 0001:00033820       ??$_Pocma@V?$allocator@D@std@@@std@@YAXAEAV?$allocator@D@0@0@Z 0000000140034820 f i log4z.obj
 0001:00033820       ??$_Pocma@V?$allocator@_W@std@@@std@@YAXAEAV?$allocator@_W@0@0@Z 0000000140034820 f i exception_handler.obj
 0001:00033840       ??$_Reallocate_for@V<lambda_1>@?1??assign@?$basic_string@DU?$char_traits@D@std@@V?$allocator@D@2@@std@@QEAAAEAV34@QEBD_K@Z@PEBD@?$basic_string@DU?$char_traits@D@std@@V?$allocator@D@2@@std@@AEAAAEAV01@_KV<lambda_1>@?1??assign@01@QEAAAEAV01@QEBD0@Z@PEBD@Z 0000000140034840 f i log4z.obj
 0001:00033960       ??$_Reallocate_grow_by@V<lambda_1>@?1??append@?$basic_string@DU?$char_traits@D@std@@V?$allocator@D@2@@std@@QEAAAEAV34@QEBD_K@Z@PEBD_K@?$basic_string@DU?$char_traits@D@std@@V?$allocator@D@2@@std@@AEAAAEAV01@_KV<lambda_1>@?1??append@01@QEAAAEAV01@QEBD0@Z@PEBD_K@Z 0000000140034960 f i log4z.obj
 0001:00033b30       ??$_Seek_wrapped@PEAPEAPEAULogData@log4z@zsummer@@PEAPEAPEAU123@@std@@YAXAEAPEAPEAPEAULogData@log4z@zsummer@@$$QEAPEAPEAPEAU123@@Z 0000000140034b30 f i log4z.obj
 0001:00033b60       ??$_Seek_wrapped@V?$_String_iterator@V?$_String_val@U?$_Simple_types@D@std@@@std@@@std@@AEAPEAD@std@@YAXAEAV?$_String_iterator@V?$_String_val@U?$_Simple_types@D@std@@@std@@@0@AEAPEAD@Z 0000000140034b60 f i log4z.obj
 0001:00033b90       ??$_Swap_adl@PEAPEAPEAULogData@log4z@zsummer@@@std@@YAXAEAPEAPEAPEAULogData@log4z@zsummer@@0@Z 0000000140034b90 f i log4z.obj
 0001:00033b90       ??$_Swap_adl@PEAU?$_List_node@U?$pair@_JV?$basic_string@DU?$char_traits@D@std@@V?$allocator@D@2@@std@@@std@@PEAX@std@@@std@@YAXAEAPEAU?$_List_node@U?$pair@_JV?$basic_string@DU?$char_traits@D@std@@V?$allocator@D@2@@std@@@std@@PEAX@0@0@Z 0000000140034b90 f i log4z.obj
 0001:00033bc0       ??$_Traits_compare@U?$char_traits@D@std@@@std@@YAHQEBD_K01@Z 0000000140034bc0 f i log4z.obj
 0001:00033c40       ??$_Traits_find@U?$char_traits@D@std@@@std@@YA_KQEBD_K101@Z 0000000140034c40 f i log4z.obj
 0001:00033d50       ??$_Traits_find_ch@U?$char_traits@D@std@@@std@@YA_KQEBD_K1D@Z 0000000140034d50 f i log4z.obj
 0001:00033dd0       ??$_Traits_rfind@U?$char_traits@D@std@@@std@@YA_KQEBD_K101@Z 0000000140034dd0 f i log4z.obj
 0001:00033ec0       ??$_Try_emplace@AEBV?$basic_string@DU?$char_traits@D@std@@V?$allocator@D@2@@std@@$$V@?$map@V?$basic_string@DU?$char_traits@D@std@@V?$allocator@D@2@@std@@HU?$less@V?$basic_string@DU?$char_traits@D@std@@V?$allocator@D@2@@std@@@2@V?$allocator@U?$pair@$$CBV?$basic_string@DU?$char_traits@D@std@@V?$allocator@D@2@@std@@H@std@@@2@@std@@AEAA?AU?$pair@PEAU?$_Tree_node@U?$pair@$$CBV?$basic_string@DU?$char_traits@D@std@@V?$allocator@D@2@@std@@H@std@@PEAX@std@@_N@1@AEBV?$basic_string@DU?$char_traits@D@std@@V?$allocator@D@2@@1@@Z 0000000140034ec0 f i log4z.obj
 0001:00034070       ??$_Try_emplace@V?$basic_string@DU?$char_traits@D@std@@V?$allocator@D@2@@std@@$$V@?$map@V?$basic_string@DU?$char_traits@D@std@@V?$allocator@D@2@@std@@HU?$less@V?$basic_string@DU?$char_traits@D@std@@V?$allocator@D@2@@std@@@2@V?$allocator@U?$pair@$$CBV?$basic_string@DU?$char_traits@D@std@@V?$allocator@D@2@@std@@H@std@@@2@@std@@AEAA?AU?$pair@PEAU?$_Tree_node@U?$pair@$$CBV?$basic_string@DU?$char_traits@D@std@@V?$allocator@D@2@@std@@H@std@@PEAX@std@@_N@1@$$QEAV?$basic_string@DU?$char_traits@D@std@@V?$allocator@D@2@@1@@Z 0000000140035070 f i log4z.obj
 0001:00034220       ??$_Uninitialized_copy_unchecked@PEAPEAPEAULogData@log4z@zsummer@@PEAPEAPEAU123@@std@@YAPEAPEAPEAULogData@log4z@zsummer@@PEAPEAPEAU123@QEAPEAPEAU123@0@Z 0000000140035220 f i log4z.obj
 0001:000342b0       ??$_Uninitialized_move@PEAPEAULogData@log4z@zsummer@@V?$allocator@PEAULogData@log4z@zsummer@@@std@@@std@@YAPEAPEAULogData@log4z@zsummer@@QEAPEAU123@0PEAPEAU123@AEAV?$allocator@PEAULogData@log4z@zsummer@@@0@@Z 00000001400352b0 f i log4z.obj
 0001:000342b0       ??$_Uninitialized_move@PEAPEAVExceptionHandler@google_breakpad@@V?$allocator@PEAVExceptionHandler@google_breakpad@@@std@@@std@@YAPEAPEAVExceptionHandler@google_breakpad@@QEAPEAV12@0PEAPEAV12@AEAV?$allocator@PEAVExceptionHandler@google_breakpad@@@0@@Z 00000001400352b0 f i exception_handler.obj
 0001:00034390       ??$_Uninitialized_value_construct_n_unchecked1@PEAPEAPEAULogData@log4z@zsummer@@_K@std@@YAPEAPEAPEAULogData@log4z@zsummer@@PEAPEAPEAU123@_K@Z 0000000140035390 f i log4z.obj
 0001:000343c0       ??$_Zero_range@PEAD@std@@YAPEADQEAD0@Z 00000001400353c0 f i string_utils.obj
 0001:000343c0       ??$_Zero_range@PEAPEAPEAULogData@log4z@zsummer@@@std@@YAPEAPEAPEAULogData@log4z@zsummer@@QEAPEAPEAU123@0@Z 00000001400353c0 f i log4z.obj
 0001:000343c0       ??$_Zero_range@PEA_W@std@@YAPEA_WQEA_W0@Z 00000001400353c0 f i string_utils.obj
 0001:00034420       ??$construct@PEAULogData@log4z@zsummer@@AEBQEAU123@@?$_Default_allocator_traits@V?$allocator@PEAULogData@log4z@zsummer@@@std@@@std@@SAXAEAV?$allocator@PEAULogData@log4z@zsummer@@@1@QEAPEAULogData@log4z@zsummer@@AEBQEAU345@@Z 0000000140035420 f i log4z.obj
 0001:00034420       ??$construct@PEAULogData@log4z@zsummer@@PEAU123@@?$_Default_allocator_traits@V?$allocator@PEAULogData@log4z@zsummer@@@std@@@std@@SAXAEAV?$allocator@PEAULogData@log4z@zsummer@@@1@QEAPEAULogData@log4z@zsummer@@$$QEAPEAU345@@Z 0000000140035420 f i log4z.obj
 0001:00034420       ??$construct@PEAVExceptionHandler@google_breakpad@@PEAV12@@?$_Default_allocator_traits@V?$allocator@PEAVExceptionHandler@google_breakpad@@@std@@@std@@SAXAEAV?$allocator@PEAVExceptionHandler@google_breakpad@@@1@QEAPEAVExceptionHandler@google_breakpad@@$$QEAPEAV34@@Z 0000000140035420 f i exception_handler.obj
 0001:00034470       ??$construct@U?$pair@$$CBV?$basic_string@DU?$char_traits@D@std@@V?$allocator@D@2@@std@@H@std@@AEBUpiecewise_construct_t@2@V?$tuple@$$QEAV?$basic_string@DU?$char_traits@D@std@@V?$allocator@D@2@@std@@@2@V?$tuple@$$V@2@@?$_Default_allocator_traits@V?$allocator@U?$_Tree_node@U?$pair@$$CBV?$basic_string@DU?$char_traits@D@std@@V?$allocator@D@2@@std@@H@std@@PEAX@std@@@std@@@std@@SAXAEAV?$allocator@U?$_Tree_node@U?$pair@$$CBV?$basic_string@DU?$char_traits@D@std@@V?$allocator@D@2@@std@@H@std@@PEAX@std@@@1@QEAU?$pair@$$CBV?$basic_string@DU?$char_traits@D@std@@V?$allocator@D@2@@std@@H@1@AEBUpiecewise_construct_t@1@$$QEAV?$tuple@$$QEAV?$basic_string@DU?$char_traits@D@std@@V?$allocator@D@2@@std@@@1@$$QEAV?$tuple@$$V@1@@Z 0000000140035470 f i log4z.obj
 0001:00034540       ??$construct@U?$pair@$$CBV?$basic_string@DU?$char_traits@D@std@@V?$allocator@D@2@@std@@H@std@@AEBUpiecewise_construct_t@2@V?$tuple@AEBV?$basic_string@DU?$char_traits@D@std@@V?$allocator@D@2@@std@@@2@V?$tuple@$$V@2@@?$_Default_allocator_traits@V?$allocator@U?$_Tree_node@U?$pair@$$CBV?$basic_string@DU?$char_traits@D@std@@V?$allocator@D@2@@std@@H@std@@PEAX@std@@@std@@@std@@SAXAEAV?$allocator@U?$_Tree_node@U?$pair@$$CBV?$basic_string@DU?$char_traits@D@std@@V?$allocator@D@2@@std@@H@std@@PEAX@std@@@1@QEAU?$pair@$$CBV?$basic_string@DU?$char_traits@D@std@@V?$allocator@D@2@@std@@H@1@AEBUpiecewise_construct_t@1@$$QEAV?$tuple@AEBV?$basic_string@DU?$char_traits@D@std@@V?$allocator@D@2@@std@@@1@$$QEAV?$tuple@$$V@1@@Z 0000000140035540 f i log4z.obj
 0001:00034610       ??$construct@U?$pair@$$CBV?$basic_string@DU?$char_traits@D@std@@V?$allocator@D@2@@std@@ULoggerInfo@log4z@zsummer@@@std@@U?$pair@V?$basic_string@DU?$char_traits@D@std@@V?$allocator@D@2@@std@@ULoggerInfo@log4z@zsummer@@@2@@?$_Default_allocator_traits@V?$allocator@U?$_Tree_node@U?$pair@$$CBV?$basic_string@DU?$char_traits@D@std@@V?$allocator@D@2@@std@@ULoggerInfo@log4z@zsummer@@@std@@PEAX@std@@@std@@@std@@SAXAEAV?$allocator@U?$_Tree_node@U?$pair@$$CBV?$basic_string@DU?$char_traits@D@std@@V?$allocator@D@2@@std@@ULoggerInfo@log4z@zsummer@@@std@@PEAX@std@@@1@QEAU?$pair@$$CBV?$basic_string@DU?$char_traits@D@std@@V?$allocator@D@2@@std@@ULoggerInfo@log4z@zsummer@@@1@$$QEAU?$pair@V?$basic_string@DU?$char_traits@D@std@@V?$allocator@D@2@@std@@ULoggerInfo@log4z@zsummer@@@1@@Z 0000000140035610 f i log4z.obj
 0001:00034670       ??$construct@U?$pair@_JV?$basic_string@DU?$char_traits@D@std@@V?$allocator@D@2@@std@@@std@@AEBU12@@?$_Default_allocator_traits@V?$allocator@U?$_List_node@U?$pair@_JV?$basic_string@DU?$char_traits@D@std@@V?$allocator@D@2@@std@@@std@@PEAX@std@@@std@@@std@@SAXAEAV?$allocator@U?$_List_node@U?$pair@_JV?$basic_string@DU?$char_traits@D@std@@V?$allocator@D@2@@std@@@std@@PEAX@std@@@1@QEAU?$pair@_JV?$basic_string@DU?$char_traits@D@std@@V?$allocator@D@2@@std@@@1@AEBU31@@Z 0000000140035670 f i log4z.obj
 0001:000346d0       ??$construct@U?$pair@_JV?$basic_string@DU?$char_traits@D@std@@V?$allocator@D@2@@std@@@std@@U12@@?$_Default_allocator_traits@V?$allocator@U?$_List_node@U?$pair@_JV?$basic_string@DU?$char_traits@D@std@@V?$allocator@D@2@@std@@@std@@PEAX@std@@@std@@@std@@SAXAEAV?$allocator@U?$_List_node@U?$pair@_JV?$basic_string@DU?$char_traits@D@std@@V?$allocator@D@2@@std@@@std@@PEAX@std@@@1@QEAU?$pair@_JV?$basic_string@DU?$char_traits@D@std@@V?$allocator@D@2@@std@@@1@$$QEAU31@@Z 00000001400356d0 f i log4z.obj
 0001:00034730       ??$destroy@U?$pair@$$CBV?$basic_string@DU?$char_traits@D@std@@V?$allocator@D@2@@std@@H@std@@@?$_Default_allocator_traits@V?$allocator@U?$_Tree_node@U?$pair@$$CBV?$basic_string@DU?$char_traits@D@std@@V?$allocator@D@2@@std@@H@std@@PEAX@std@@@std@@@std@@SAXAEAV?$allocator@U?$_Tree_node@U?$pair@$$CBV?$basic_string@DU?$char_traits@D@std@@V?$allocator@D@2@@std@@H@std@@PEAX@std@@@1@QEAU?$pair@$$CBV?$basic_string@DU?$char_traits@D@std@@V?$allocator@D@2@@std@@H@1@@Z 0000000140035730 f i log4z.obj
 0001:00034750       ??$destroy@U?$pair@$$CBV?$basic_string@DU?$char_traits@D@std@@V?$allocator@D@2@@std@@ULoggerInfo@log4z@zsummer@@@std@@@?$_Default_allocator_traits@V?$allocator@U?$_Tree_node@U?$pair@$$CBV?$basic_string@DU?$char_traits@D@std@@V?$allocator@D@2@@std@@ULoggerInfo@log4z@zsummer@@@std@@PEAX@std@@@std@@@std@@SAXAEAV?$allocator@U?$_Tree_node@U?$pair@$$CBV?$basic_string@DU?$char_traits@D@std@@V?$allocator@D@2@@std@@ULoggerInfo@log4z@zsummer@@@std@@PEAX@std@@@1@QEAU?$pair@$$CBV?$basic_string@DU?$char_traits@D@std@@V?$allocator@D@2@@std@@ULoggerInfo@log4z@zsummer@@@1@@Z 0000000140035750 f i log4z.obj
 0001:00034770       ??$destroy@U?$pair@_JV?$basic_string@DU?$char_traits@D@std@@V?$allocator@D@2@@std@@@std@@@?$_Default_allocator_traits@V?$allocator@U?$_List_node@U?$pair@_JV?$basic_string@DU?$char_traits@D@std@@V?$allocator@D@2@@std@@@std@@PEAX@std@@@std@@@std@@SAXAEAV?$allocator@U?$_List_node@U?$pair@_JV?$basic_string@DU?$char_traits@D@std@@V?$allocator@D@2@@std@@@std@@PEAX@std@@@1@QEAU?$pair@_JV?$basic_string@DU?$char_traits@D@std@@V?$allocator@D@2@@std@@@1@@Z 0000000140035770 f i log4z.obj
 0001:00034790       ??$emplace@U?$pair@V?$basic_string@DU?$char_traits@D@std@@V?$allocator@D@2@@std@@ULoggerInfo@log4z@zsummer@@@std@@@?$_Tree@V?$_Tmap_traits@V?$basic_string@DU?$char_traits@D@std@@V?$allocator@D@2@@std@@ULoggerInfo@log4z@zsummer@@U?$less@V?$basic_string@DU?$char_traits@D@std@@V?$allocator@D@2@@std@@@2@V?$allocator@U?$pair@$$CBV?$basic_string@DU?$char_traits@D@std@@V?$allocator@D@2@@std@@ULoggerInfo@log4z@zsummer@@@std@@@2@$0A@@std@@@std@@QEAA?AU?$pair@V?$_Tree_iterator@V?$_Tree_val@U?$_Tree_simple_types@U?$pair@$$CBV?$basic_string@DU?$char_traits@D@std@@V?$allocator@D@2@@std@@ULoggerInfo@log4z@zsummer@@@std@@@std@@@std@@@std@@_N@1@$$QEAU?$pair@V?$basic_string@DU?$char_traits@D@std@@V?$allocator@D@2@@std@@ULoggerInfo@log4z@zsummer@@@1@@Z 0000000140035790 f i log4z.obj
 0001:00034800       ??$exchange@PEAU?$_List_node@U?$pair@_JV?$basic_string@DU?$char_traits@D@std@@V?$allocator@D@2@@std@@@std@@PEAX@std@@$$T@std@@YAPEAU?$_List_node@U?$pair@_JV?$basic_string@DU?$char_traits@D@std@@V?$allocator@D@2@@std@@@std@@PEAX@0@AEAPEAU10@$$QEA$$T@Z 0000000140035800 f i log4z.obj
 0001:00034800       ??$exchange@PEAU?$_List_node@U?$pair@_JV?$basic_string@DU?$char_traits@D@std@@V?$allocator@D@2@@std@@@std@@PEAX@std@@AEAPEAU12@@std@@YAPEAU?$_List_node@U?$pair@_JV?$basic_string@DU?$char_traits@D@std@@V?$allocator@D@2@@std@@@std@@PEAX@0@AEAPEAU10@0@Z 0000000140035800 f i log4z.obj
 0001:00034800       ??$exchange@PEAU?$_List_node@U?$pair@_JV?$basic_string@DU?$char_traits@D@std@@V?$allocator@D@2@@std@@@std@@PEAX@std@@PEAU12@@std@@YAPEAU?$_List_node@U?$pair@_JV?$basic_string@DU?$char_traits@D@std@@V?$allocator@D@2@@std@@@std@@PEAX@0@AEAPEAU10@$$QEAPEAU10@@Z 0000000140035800 f i log4z.obj
 0001:00034800       ??$exchange@PEAU?$_Tree_node@U?$pair@$$CBV?$basic_string@DU?$char_traits@D@std@@V?$allocator@D@2@@std@@H@std@@PEAX@std@@$$T@std@@YAPEAU?$_Tree_node@U?$pair@$$CBV?$basic_string@DU?$char_traits@D@std@@V?$allocator@D@2@@std@@H@std@@PEAX@0@AEAPEAU10@$$QEA$$T@Z 0000000140035800 f i log4z.obj
 0001:00034800       ??$exchange@PEAU?$_Tree_node@U?$pair@$$CBV?$basic_string@DU?$char_traits@D@std@@V?$allocator@D@2@@std@@H@std@@PEAX@std@@AEAPEAU12@@std@@YAPEAU?$_Tree_node@U?$pair@$$CBV?$basic_string@DU?$char_traits@D@std@@V?$allocator@D@2@@std@@H@std@@PEAX@0@AEAPEAU10@0@Z 0000000140035800 f i log4z.obj
 0001:00034800       ??$exchange@PEAU?$_Tree_node@U?$pair@$$CBV?$basic_string@DU?$char_traits@D@std@@V?$allocator@D@2@@std@@ULoggerInfo@log4z@zsummer@@@std@@PEAX@std@@$$T@std@@YAPEAU?$_Tree_node@U?$pair@$$CBV?$basic_string@DU?$char_traits@D@std@@V?$allocator@D@2@@std@@ULoggerInfo@log4z@zsummer@@@std@@PEAX@0@AEAPEAU10@$$QEA$$T@Z 0000000140035800 f i log4z.obj
 0001:00034800       ??$exchange@PEAU?$_Tree_node@U?$pair@$$CBV?$basic_string@DU?$char_traits@D@std@@V?$allocator@D@2@@std@@ULoggerInfo@log4z@zsummer@@@std@@PEAX@std@@AEAPEAU12@@std@@YAPEAU?$_Tree_node@U?$pair@$$CBV?$basic_string@DU?$char_traits@D@std@@V?$allocator@D@2@@std@@ULoggerInfo@log4z@zsummer@@@std@@PEAX@0@AEAPEAU10@0@Z 0000000140035800 f i log4z.obj
 0001:00034800       ??$exchange@PEAU?$_Tree_node@U?$pair@$$CBVQString@@V1@@std@@PEAX@std@@$$T@std@@YAPEAU?$_Tree_node@U?$pair@$$CBVQString@@V1@@std@@PEAX@0@AEAPEAU10@$$QEA$$T@Z 0000000140035800 f i httpdownloader.obj
 0001:00034800       ??$exchange@PEAU?$_Tree_node@U?$pair@$$CBVQString@@V1@@std@@PEAX@std@@AEAPEAU12@@std@@YAPEAU?$_Tree_node@U?$pair@$$CBVQString@@V1@@std@@PEAX@0@AEAPEAU10@0@Z 0000000140035800 f i httpdownloader.obj
 0001:00034800       ??$exchange@PEAU?$_Tree_node@U?$pair@$$CBVQString@@_N@std@@PEAX@std@@$$T@std@@YAPEAU?$_Tree_node@U?$pair@$$CBVQString@@_N@std@@PEAX@0@AEAPEAU10@$$QEA$$T@Z 0000000140035800 f i httpdownloader.obj
 0001:00034800       ??$exchange@PEAU?$_Tree_node@U?$pair@$$CBVQString@@_N@std@@PEAX@std@@AEAPEAU12@@std@@YAPEAU?$_Tree_node@U?$pair@$$CBVQString@@_N@std@@PEAX@0@AEAPEAU10@0@Z 0000000140035800 f i httpdownloader.obj
 0001:00034800       ??$exchange@PEAU_Container_proxy@std@@$$T@std@@YAPEAU_Container_proxy@0@AEAPEAU10@$$QEA$$T@Z 0000000140035800 f i log4z.obj
 0001:00034800       ??$exchange@PEAV?$QMapData@V?$map@VQString@@V1@U?$less@VQString@@@std@@V?$allocator@U?$pair@$$CBVQString@@V1@@std@@@3@@std@@@@$$T@std@@YAPEAV?$QMapData@V?$map@VQString@@V1@U?$less@VQString@@@std@@V?$allocator@U?$pair@$$CBVQString@@V1@@std@@@3@@std@@@@AEAPEAV1@$$QEA$$T@Z 0000000140035800 f i httpdownloader.obj
 0001:00034800       ??$exchange@PEAV?$QMapData@V?$map@VQString@@_NU?$less@VQString@@@std@@V?$allocator@U?$pair@$$CBVQString@@_N@std@@@3@@std@@@@$$T@std@@YAPEAV?$QMapData@V?$map@VQString@@_NU?$less@VQString@@@std@@V?$allocator@U?$pair@$$CBVQString@@_N@std@@@3@@std@@@@AEAPEAV1@$$QEA$$T@Z 0000000140035800 f i httpdownloader.obj
 0001:00034800       ??$exchange@PEAVTrayIcon@@AEAPEAV1@@std@@YAPEAVTrayIcon@@AEAPEAV1@0@Z 0000000140035800 f i trayicon.obj
 0001:00034800       ??$exchange@_K_K@std@@YA_KAEA_K$$QEA_K@Z 0000000140035800 f i log4z.obj
 0001:00034840       ??$forward_as_tuple@AEBV?$basic_string@DU?$char_traits@D@std@@V?$allocator@D@2@@std@@@std@@YA?AV?$tuple@AEBV?$basic_string@DU?$char_traits@D@std@@V?$allocator@D@2@@std@@@0@AEBV?$basic_string@DU?$char_traits@D@std@@V?$allocator@D@2@@0@@Z 0000000140035840 f i log4z.obj
 0001:00034870       ??$forward_as_tuple@V?$basic_string@DU?$char_traits@D@std@@V?$allocator@D@2@@std@@@std@@YA?AV?$tuple@$$QEAV?$basic_string@DU?$char_traits@D@std@@V?$allocator@D@2@@std@@@0@$$QEAV?$basic_string@DU?$char_traits@D@std@@V?$allocator@D@2@@0@@Z 0000000140035870 f i log4z.obj
 0001:000348a0       ??$insert@U?$pair@V?$basic_string@DU?$char_traits@D@std@@V?$allocator@D@2@@std@@ULoggerInfo@log4z@zsummer@@@std@@$0A@@?$map@V?$basic_string@DU?$char_traits@D@std@@V?$allocator@D@2@@std@@ULoggerInfo@log4z@zsummer@@U?$less@V?$basic_string@DU?$char_traits@D@std@@V?$allocator@D@2@@std@@@2@V?$allocator@U?$pair@$$CBV?$basic_string@DU?$char_traits@D@std@@V?$allocator@D@2@@std@@ULoggerInfo@log4z@zsummer@@@std@@@2@@std@@QEAA?AU?$pair@V?$_Tree_iterator@V?$_Tree_val@U?$_Tree_simple_types@U?$pair@$$CBV?$basic_string@DU?$char_traits@D@std@@V?$allocator@D@2@@std@@ULoggerInfo@log4z@zsummer@@@std@@@std@@@std@@@std@@_N@1@$$QEAU?$pair@V?$basic_string@DU?$char_traits@D@std@@V?$allocator@D@2@@std@@ULoggerInfo@log4z@zsummer@@@1@@Z 00000001400358a0 f i log4z.obj
 0001:000348e0       ??$make_pair@AEAV?$basic_string@DU?$char_traits@D@std@@V?$allocator@D@2@@std@@AEAULoggerInfo@log4z@zsummer@@@std@@YA?AU?$pair@V?$basic_string@DU?$char_traits@D@std@@V?$allocator@D@2@@std@@ULoggerInfo@log4z@zsummer@@@0@AEAV?$basic_string@DU?$char_traits@D@std@@V?$allocator@D@2@@0@AEAULoggerInfo@log4z@zsummer@@@Z 00000001400358e0 f i log4z.obj
 0001:00034950       ??$make_pair@AEBV?$basic_string@DU?$char_traits@D@std@@V?$allocator@D@2@@std@@AEAY00$$CBD@std@@YA?AU?$pair@V?$basic_string@DU?$char_traits@D@std@@V?$allocator@D@2@@std@@PEBD@0@AEBV?$basic_string@DU?$char_traits@D@std@@V?$allocator@D@2@@0@AEAY00$$CBD@Z 0000000140035950 f i log4z.obj
 0001:000349b0       ??$make_pair@V?$basic_string@DU?$char_traits@D@std@@V?$allocator@D@2@@std@@V12@@std@@YA?AU?$pair@V?$basic_string@DU?$char_traits@D@std@@V?$allocator@D@2@@std@@V12@@0@$$QEAV?$basic_string@DU?$char_traits@D@std@@V?$allocator@D@2@@0@0@Z 00000001400359b0 f i log4z.obj
 0001:00034a00       ??$make_pair@_JAEAV?$basic_string@DU?$char_traits@D@std@@V?$allocator@D@2@@std@@@std@@YA?AU?$pair@_JV?$basic_string@DU?$char_traits@D@std@@V?$allocator@D@2@@std@@@0@$$QEA_JAEAV?$basic_string@DU?$char_traits@D@std@@V?$allocator@D@2@@0@@Z 0000000140035a00 f i log4z.obj
 0001:00034a70       ??$transform@V?$_String_iterator@V?$_String_val@U?$_Simple_types@D@std@@@std@@@std@@V12@P6AHH@Z@std@@YA?AV?$_String_iterator@V?$_String_val@U?$_Simple_types@D@std@@@std@@@0@V10@0V10@P6AHH@Z@Z 0000000140035a70 f i log4z.obj
 0001:00034b50       ??$uninitialized_copy@PEAPEAPEAULogData@log4z@zsummer@@PEAPEAPEAU123@@std@@YAPEAPEAPEAULogData@log4z@zsummer@@QEAPEAPEAU123@0PEAPEAPEAU123@@Z 0000000140035b50 f i log4z.obj
 0001:00034bf0       ??0?$_Alloc_construct_ptr@V?$allocator@U?$_List_node@U?$pair@_JV?$basic_string@DU?$char_traits@D@std@@V?$allocator@D@2@@std@@@std@@PEAX@std@@@std@@@std@@QEAA@AEAV?$allocator@U?$_List_node@U?$pair@_JV?$basic_string@DU?$char_traits@D@std@@V?$allocator@D@2@@std@@@std@@PEAX@std@@@1@@Z 0000000140035bf0 f i log4z.obj
 0001:00034bf0       ??0?$_Alloc_construct_ptr@V?$allocator@U?$_List_node@UAppMemory@google_breakpad@@PEAX@std@@@std@@@std@@QEAA@AEAV?$allocator@U?$_List_node@UAppMemory@google_breakpad@@PEAX@std@@@1@@Z 0000000140035bf0 f i exception_handler.obj
 0001:00034bf0       ??0?$_Alloc_construct_ptr@V?$allocator@U?$_Tree_node@U?$pair@$$CBV?$basic_string@DU?$char_traits@D@std@@V?$allocator@D@2@@std@@H@std@@PEAX@std@@@std@@@std@@QEAA@AEAV?$allocator@U?$_Tree_node@U?$pair@$$CBV?$basic_string@DU?$char_traits@D@std@@V?$allocator@D@2@@std@@H@std@@PEAX@std@@@1@@Z 0000000140035bf0 f i log4z.obj
 0001:00034bf0       ??0?$_Alloc_construct_ptr@V?$allocator@U?$_Tree_node@U?$pair@$$CBV?$basic_string@DU?$char_traits@D@std@@V?$allocator@D@2@@std@@ULoggerInfo@log4z@zsummer@@@std@@PEAX@std@@@std@@@std@@QEAA@AEAV?$allocator@U?$_Tree_node@U?$pair@$$CBV?$basic_string@DU?$char_traits@D@std@@V?$allocator@D@2@@std@@ULoggerInfo@log4z@zsummer@@@std@@PEAX@std@@@1@@Z 0000000140035bf0 f i log4z.obj
 0001:00034bf0       ??0?$_Alloc_construct_ptr@V?$allocator@U?$_Tree_node@U?$pair@$$CBVQString@@V1@@std@@PEAX@std@@@std@@@std@@QEAA@AEAV?$allocator@U?$_Tree_node@U?$pair@$$CBVQString@@V1@@std@@PEAX@std@@@1@@Z 0000000140035bf0 f i httpdownloader.obj
 0001:00034bf0       ??0?$_Alloc_construct_ptr@V?$allocator@U?$_Tree_node@U?$pair@$$CBVQString@@_N@std@@PEAX@std@@@std@@@std@@QEAA@AEAV?$allocator@U?$_Tree_node@U?$pair@$$CBVQString@@_N@std@@PEAX@std@@@1@@Z 0000000140035bf0 f i httpdownloader.obj
 0001:00034bf0       ??0?$_List_node_insert_op2@V?$allocator@U?$_List_node@U?$pair@_JV?$basic_string@DU?$char_traits@D@std@@V?$allocator@D@2@@std@@@std@@PEAX@std@@@std@@@std@@QEAA@AEAV?$allocator@U?$_List_node@U?$pair@_JV?$basic_string@DU?$char_traits@D@std@@V?$allocator@D@2@@std@@@std@@PEAX@std@@@1@@Z 0000000140035bf0 f i log4z.obj
 0001:00034bf0       ??0_Container_proxy@std@@QEAA@PEAU_Container_base12@1@@Z 0000000140035bf0 f i log4z.obj
 0001:00034c20       ??0?$_Deque_unchecked_const_iterator@V?$_Deque_val@U?$_Deque_simple_types@PEAULogData@log4z@zsummer@@@std@@@std@@@std@@QEAA@_KPEBU_Container_base12@1@@Z 0000000140035c20 f i log4z.obj
 0001:00034c50       ??0?$_Deque_unchecked_iterator@V?$_Deque_val@U?$_Deque_simple_types@PEAULogData@log4z@zsummer@@@std@@@std@@@std@@QEAA@_KPEBU_Container_base12@1@@Z 0000000140035c50 f i log4z.obj
 0001:00034c90       ??0?$_Deque_val@U?$_Deque_simple_types@PEAULogData@log4z@zsummer@@@std@@@std@@QEAA@XZ 0000000140035c90 f i log4z.obj
 0001:00034cf0       ??0?$_List_unchecked_const_iterator@V?$_List_val@U?$_List_simple_types@U?$pair@_JV?$basic_string@DU?$char_traits@D@std@@V?$allocator@D@2@@std@@@std@@@std@@@std@@U_Iterator_base0@2@@std@@QEAA@PEAU?$_List_node@U?$pair@_JV?$basic_string@DU?$char_traits@D@std@@V?$allocator@D@2@@std@@@std@@PEAX@1@PEBV?$_List_val@U?$_List_simple_types@U?$pair@_JV?$basic_string@DU?$char_traits@D@std@@V?$allocator@D@2@@std@@@std@@@std@@@1@@Z 0000000140035cf0 f i log4z.obj
 0001:00034cf0       ??0?$_List_unchecked_const_iterator@V?$_List_val@U?$_List_simple_types@UAppMemory@google_breakpad@@@std@@@std@@U_Iterator_base0@2@@std@@QEAA@PEAU?$_List_node@UAppMemory@google_breakpad@@PEAX@1@PEBV?$_List_val@U?$_List_simple_types@UAppMemory@google_breakpad@@@std@@@1@@Z 0000000140035cf0 f i exception_handler.obj
 0001:00034cf0       ??0?$_String_const_iterator@V?$_String_val@U?$_Simple_types@D@std@@@std@@@std@@QEAA@PEBDPEBU_Container_base0@1@@Z 0000000140035cf0 f i log4z.obj
 0001:00034cf0       ??0?$_Tree_unchecked_const_iterator@V?$_Tree_val@U?$_Tree_simple_types@U?$pair@$$CBV?$basic_string@DU?$char_traits@D@std@@V?$allocator@D@2@@std@@H@std@@@std@@@std@@U_Iterator_base0@2@@std@@QEAA@PEAU?$_Tree_node@U?$pair@$$CBV?$basic_string@DU?$char_traits@D@std@@V?$allocator@D@2@@std@@H@std@@PEAX@1@PEBV?$_Tree_val@U?$_Tree_simple_types@U?$pair@$$CBV?$basic_string@DU?$char_traits@D@std@@V?$allocator@D@2@@std@@H@std@@@std@@@1@@Z 0000000140035cf0 f i log4z.obj
 0001:00034cf0       ??0?$_Tree_unchecked_const_iterator@V?$_Tree_val@U?$_Tree_simple_types@U?$pair@$$CBV?$basic_string@DU?$char_traits@D@std@@V?$allocator@D@2@@std@@ULoggerInfo@log4z@zsummer@@@std@@@std@@@std@@U_Iterator_base0@2@@std@@QEAA@PEAU?$_Tree_node@U?$pair@$$CBV?$basic_string@DU?$char_traits@D@std@@V?$allocator@D@2@@std@@ULoggerInfo@log4z@zsummer@@@std@@PEAX@1@PEBV?$_Tree_val@U?$_Tree_simple_types@U?$pair@$$CBV?$basic_string@DU?$char_traits@D@std@@V?$allocator@D@2@@std@@ULoggerInfo@log4z@zsummer@@@std@@@std@@@1@@Z 0000000140035cf0 f i log4z.obj
 0001:00034cf0       ??0?$_Tree_unchecked_const_iterator@V?$_Tree_val@U?$_Tree_simple_types@U?$pair@$$CBVQString@@V1@@std@@@std@@@std@@U_Iterator_base0@2@@std@@QEAA@PEAU?$_Tree_node@U?$pair@$$CBVQString@@V1@@std@@PEAX@1@PEBV?$_Tree_val@U?$_Tree_simple_types@U?$pair@$$CBVQString@@V1@@std@@@std@@@1@@Z 0000000140035cf0 f i httpdownloader.obj
 0001:00034cf0       ??0?$_Tree_unchecked_const_iterator@V?$_Tree_val@U?$_Tree_simple_types@U?$pair@$$CBVQString@@_N@std@@@std@@@std@@U_Iterator_base0@2@@std@@QEAA@PEAU?$_Tree_node@U?$pair@$$CBVQString@@_N@std@@PEAX@1@PEBV?$_Tree_val@U?$_Tree_simple_types@U?$pair@$$CBVQString@@_N@std@@@std@@@1@@Z 0000000140035cf0 f i httpdownloader.obj
 0001:00034cf0       ??0?$_Vector_const_iterator@V?$_Vector_val@U?$_Simple_types@PEAVExceptionHandler@google_breakpad@@@std@@@std@@@std@@QEAA@PEAPEAVExceptionHandler@google_breakpad@@PEBU_Container_base0@1@@Z 0000000140035cf0 f i exception_handler.obj
 0001:00034d30       ??0?$_List_val@U?$_List_simple_types@U?$pair@_JV?$basic_string@DU?$char_traits@D@std@@V?$allocator@D@2@@std@@@std@@@std@@@std@@QEAA@XZ 0000000140035d30 f i log4z.obj
 0001:00034d30       ??0?$_List_val@U?$_List_simple_types@UAppMemory@google_breakpad@@@std@@@std@@QEAA@XZ 0000000140035d30 f i exception_handler.obj
 0001:00034d30       ??0?$_Tree_val@U?$_Tree_simple_types@U?$pair@$$CBV?$basic_string@DU?$char_traits@D@std@@V?$allocator@D@2@@std@@H@std@@@std@@@std@@QEAA@XZ 0000000140035d30 f i log4z.obj
 0001:00034d30       ??0?$_Tree_val@U?$_Tree_simple_types@U?$pair@$$CBV?$basic_string@DU?$char_traits@D@std@@V?$allocator@D@2@@std@@ULoggerInfo@log4z@zsummer@@@std@@@std@@@std@@QEAA@XZ 0000000140035d30 f i log4z.obj
 0001:00034d30       ??0?$_Tree_val@U?$_Tree_simple_types@U?$pair@$$CBVQString@@V1@@std@@@std@@@std@@QEAA@XZ 0000000140035d30 f i httpdownloader.obj
 0001:00034d30       ??0?$_Tree_val@U?$_Tree_simple_types@U?$pair@$$CBVQString@@_N@std@@@std@@@std@@QEAA@XZ 0000000140035d30 f i httpdownloader.obj
 0001:00034d30       ??0?$iterator@U?$Node@PEAVQWidget@@PEAVWidgetData@@@QHashPrivate@@@QHashPrivate@@QEAA@XZ 0000000140035d30 f i FramelessHelper.obj
 0001:00034d60       ??0?$_List_const_iterator@V?$_List_val@U?$_List_simple_types@UAppMemory@google_breakpad@@@std@@@std@@@std@@QEAA@PEAU?$_List_node@UAppMemory@google_breakpad@@PEAX@1@PEBV?$_List_val@U?$_List_simple_types@UAppMemory@google_breakpad@@@std@@@1@@Z 0000000140035d60 f i exception_handler.obj
 0001:00034d60       ??0?$_List_unchecked_iterator@V?$_List_val@U?$_List_simple_types@UAppMemory@google_breakpad@@@std@@@std@@@std@@QEAA@PEAU?$_List_node@UAppMemory@google_breakpad@@PEAX@1@PEBV?$_List_val@U?$_List_simple_types@UAppMemory@google_breakpad@@@std@@@1@@Z 0000000140035d60 f i exception_handler.obj
 0001:00034d60       ??0?$_String_iterator@V?$_String_val@U?$_Simple_types@D@std@@@std@@@std@@QEAA@PEBDPEBU_Container_base0@1@@Z 0000000140035d60 f i log4z.obj
 0001:00034d60       ??0?$_Tree_const_iterator@V?$_Tree_val@U?$_Tree_simple_types@U?$pair@$$CBV?$basic_string@DU?$char_traits@D@std@@V?$allocator@D@2@@std@@H@std@@@std@@@std@@@std@@QEAA@PEAU?$_Tree_node@U?$pair@$$CBV?$basic_string@DU?$char_traits@D@std@@V?$allocator@D@2@@std@@H@std@@PEAX@1@PEBV?$_Tree_val@U?$_Tree_simple_types@U?$pair@$$CBV?$basic_string@DU?$char_traits@D@std@@V?$allocator@D@2@@std@@H@std@@@std@@@1@@Z 0000000140035d60 f i log4z.obj
 0001:00034d60       ??0?$_Tree_const_iterator@V?$_Tree_val@U?$_Tree_simple_types@U?$pair@$$CBV?$basic_string@DU?$char_traits@D@std@@V?$allocator@D@2@@std@@ULoggerInfo@log4z@zsummer@@@std@@@std@@@std@@@std@@QEAA@PEAU?$_Tree_node@U?$pair@$$CBV?$basic_string@DU?$char_traits@D@std@@V?$allocator@D@2@@std@@ULoggerInfo@log4z@zsummer@@@std@@PEAX@1@PEBV?$_Tree_val@U?$_Tree_simple_types@U?$pair@$$CBV?$basic_string@DU?$char_traits@D@std@@V?$allocator@D@2@@std@@ULoggerInfo@log4z@zsummer@@@std@@@std@@@1@@Z 0000000140035d60 f i log4z.obj
 0001:00034d60       ??0?$_Tree_const_iterator@V?$_Tree_val@U?$_Tree_simple_types@U?$pair@$$CBVQString@@V1@@std@@@std@@@std@@@std@@QEAA@PEAU?$_Tree_node@U?$pair@$$CBVQString@@V1@@std@@PEAX@1@PEBV?$_Tree_val@U?$_Tree_simple_types@U?$pair@$$CBVQString@@V1@@std@@@std@@@1@@Z 0000000140035d60 f i httpdownloader.obj
 0001:00034d60       ??0?$_Tree_const_iterator@V?$_Tree_val@U?$_Tree_simple_types@U?$pair@$$CBVQString@@_N@std@@@std@@@std@@@std@@QEAA@PEAU?$_Tree_node@U?$pair@$$CBVQString@@_N@std@@PEAX@1@PEBV?$_Tree_val@U?$_Tree_simple_types@U?$pair@$$CBVQString@@_N@std@@@std@@@1@@Z 0000000140035d60 f i httpdownloader.obj
 0001:00034d60       ??0?$_Tree_unchecked_iterator@V?$_Tree_val@U?$_Tree_simple_types@U?$pair@$$CBVQString@@V1@@std@@@std@@@std@@@std@@QEAA@PEAU?$_Tree_node@U?$pair@$$CBVQString@@V1@@std@@PEAX@1@PEBV?$_Tree_val@U?$_Tree_simple_types@U?$pair@$$CBVQString@@V1@@std@@@std@@@1@@Z 0000000140035d60 f i httpdownloader.obj
 0001:00034d60       ??0?$_Tree_unchecked_iterator@V?$_Tree_val@U?$_Tree_simple_types@U?$pair@$$CBVQString@@_N@std@@@std@@@std@@@std@@QEAA@PEAU?$_Tree_node@U?$pair@$$CBVQString@@_N@std@@PEAX@1@PEBV?$_Tree_val@U?$_Tree_simple_types@U?$pair@$$CBVQString@@_N@std@@@std@@@1@@Z 0000000140035d60 f i httpdownloader.obj
 0001:00034d60       ??0?$_Vector_iterator@V?$_Vector_val@U?$_Simple_types@PEAVExceptionHandler@google_breakpad@@@std@@@std@@@std@@QEAA@PEAPEAVExceptionHandler@google_breakpad@@PEBU_Container_base0@1@@Z 0000000140035d60 f i exception_handler.obj
 0001:00034da0       ??0?$_Tree@V?$_Tmap_traits@V?$basic_string@DU?$char_traits@D@std@@V?$allocator@D@2@@std@@HU?$less@V?$basic_string@DU?$char_traits@D@std@@V?$allocator@D@2@@std@@@2@V?$allocator@U?$pair@$$CBV?$basic_string@DU?$char_traits@D@std@@V?$allocator@D@2@@std@@H@std@@@2@$0A@@std@@@std@@QEAA@AEBU?$less@V?$basic_string@DU?$char_traits@D@std@@V?$allocator@D@2@@std@@@1@@Z 0000000140035da0 f i log4z.obj
 0001:00034df0       ??0?$_Tree@V?$_Tmap_traits@V?$basic_string@DU?$char_traits@D@std@@V?$allocator@D@2@@std@@ULoggerInfo@log4z@zsummer@@U?$less@V?$basic_string@DU?$char_traits@D@std@@V?$allocator@D@2@@std@@@2@V?$allocator@U?$pair@$$CBV?$basic_string@DU?$char_traits@D@std@@V?$allocator@D@2@@std@@ULoggerInfo@log4z@zsummer@@@std@@@2@$0A@@std@@@std@@QEAA@AEBU?$less@V?$basic_string@DU?$char_traits@D@std@@V?$allocator@D@2@@std@@@1@@Z 0000000140035df0 f i log4z.obj
 0001:00034e40       ??0?$_List_const_iterator@V?$_List_val@U?$_List_simple_types@UAppMemory@google_breakpad@@@std@@@std@@@std@@QEAA@XZ 0000000140035e40 f i exception_handler.obj
 0001:00034e40       ??0?$_Tree_const_iterator@V?$_Tree_val@U?$_Tree_simple_types@U?$pair@$$CBV?$basic_string@DU?$char_traits@D@std@@V?$allocator@D@2@@std@@H@std@@@std@@@std@@@std@@QEAA@XZ 0000000140035e40 f i log4z.obj
 0001:00034e60       ??0?$_List_iterator@V?$_List_val@U?$_List_simple_types@UAppMemory@google_breakpad@@@std@@@std@@@std@@QEAA@PEAU?$_List_node@UAppMemory@google_breakpad@@PEAX@1@PEBV?$_List_val@U?$_List_simple_types@UAppMemory@google_breakpad@@@std@@@1@@Z 0000000140035e60 f i exception_handler.obj
 0001:00034e60       ??0?$_Tree_iterator@V?$_Tree_val@U?$_Tree_simple_types@U?$pair@$$CBV?$basic_string@DU?$char_traits@D@std@@V?$allocator@D@2@@std@@H@std@@@std@@@std@@@std@@QEAA@PEAU?$_Tree_node@U?$pair@$$CBV?$basic_string@DU?$char_traits@D@std@@V?$allocator@D@2@@std@@H@std@@PEAX@1@PEBV?$_Tree_val@U?$_Tree_simple_types@U?$pair@$$CBV?$basic_string@DU?$char_traits@D@std@@V?$allocator@D@2@@std@@H@std@@@std@@@1@@Z 0000000140035e60 f i log4z.obj
 0001:00034e60       ??0?$_Tree_iterator@V?$_Tree_val@U?$_Tree_simple_types@U?$pair@$$CBV?$basic_string@DU?$char_traits@D@std@@V?$allocator@D@2@@std@@ULoggerInfo@log4z@zsummer@@@std@@@std@@@std@@@std@@QEAA@PEAU?$_Tree_node@U?$pair@$$CBV?$basic_string@DU?$char_traits@D@std@@V?$allocator@D@2@@std@@ULoggerInfo@log4z@zsummer@@@std@@PEAX@1@PEBV?$_Tree_val@U?$_Tree_simple_types@U?$pair@$$CBV?$basic_string@DU?$char_traits@D@std@@V?$allocator@D@2@@std@@ULoggerInfo@log4z@zsummer@@@std@@@std@@@1@@Z 0000000140035e60 f i log4z.obj
 0001:00034e60       ??0?$_Tree_iterator@V?$_Tree_val@U?$_Tree_simple_types@U?$pair@$$CBVQString@@V1@@std@@@std@@@std@@@std@@QEAA@PEAU?$_Tree_node@U?$pair@$$CBVQString@@V1@@std@@PEAX@1@PEBV?$_Tree_val@U?$_Tree_simple_types@U?$pair@$$CBVQString@@V1@@std@@@std@@@1@@Z 0000000140035e60 f i httpdownloader.obj
 0001:00034e60       ??0?$_Tree_iterator@V?$_Tree_val@U?$_Tree_simple_types@U?$pair@$$CBVQString@@_N@std@@@std@@@std@@@std@@QEAA@PEAU?$_Tree_node@U?$pair@$$CBVQString@@_N@std@@PEAX@1@PEBV?$_Tree_val@U?$_Tree_simple_types@U?$pair@$$CBVQString@@_N@std@@@std@@@1@@Z 0000000140035e60 f i httpdownloader.obj
 0001:00034ea0       ??0?$_Tree_iterator@V?$_Tree_val@U?$_Tree_simple_types@U?$pair@$$CBV?$basic_string@DU?$char_traits@D@std@@V?$allocator@D@2@@std@@H@std@@@std@@@std@@@std@@QEAA@XZ 0000000140035ea0 f i log4z.obj
 0001:00034ec0       ??0?$_Tree_temp_node_alloc@V?$allocator@U?$_Tree_node@U?$pair@$$CBV?$basic_string@DU?$char_traits@D@std@@V?$allocator@D@2@@std@@H@std@@PEAX@std@@@std@@@std@@QEAA@AEAV?$allocator@U?$_Tree_node@U?$pair@$$CBV?$basic_string@DU?$char_traits@D@std@@V?$allocator@D@2@@std@@H@std@@PEAX@std@@@1@@Z 0000000140035ec0 f i log4z.obj
 0001:00034f00       ??0?$_Tree_temp_node_alloc@V?$allocator@U?$_Tree_node@U?$pair@$$CBV?$basic_string@DU?$char_traits@D@std@@V?$allocator@D@2@@std@@ULoggerInfo@log4z@zsummer@@@std@@PEAX@std@@@std@@@std@@QEAA@AEAV?$allocator@U?$_Tree_node@U?$pair@$$CBV?$basic_string@DU?$char_traits@D@std@@V?$allocator@D@2@@std@@ULoggerInfo@log4z@zsummer@@@std@@PEAX@std@@@1@@Z 0000000140035f00 f i log4z.obj
 0001:00034f40       ??0?$QExplicitlySharedDataPointerV2@V?$QMapData@V?$map@VQString@@V1@U?$less@VQString@@@std@@V?$allocator@U?$pair@$$CBVQString@@V1@@std@@@3@@std@@@@@QtPrivate@@QEAA@XZ 0000000140035f40 f i httpdownloader.obj
 0001:00034f40       ??0?$QExplicitlySharedDataPointerV2@V?$QMapData@V?$map@VQString@@_NU?$less@VQString@@@std@@V?$allocator@U?$pair@$$CBVQString@@_N@std@@@3@@std@@@@@QtPrivate@@QEAA@XZ 0000000140035f40 f i httpdownloader.obj
 0001:00034f40       ??0?$QHash@PEAVQWidget@@PEAVWidgetData@@@@QEAA@XZ 0000000140035f40 f i FramelessHelper.obj
 0001:00034f40       ??0?$_List_unchecked_const_iterator@V?$_List_val@U?$_List_simple_types@UAppMemory@google_breakpad@@@std@@@std@@U_Iterator_base0@2@@std@@QEAA@XZ 0000000140035f40 f i exception_handler.obj
 0001:00034f40       ??0?$_Tree_unchecked_const_iterator@V?$_Tree_val@U?$_Tree_simple_types@U?$pair@$$CBV?$basic_string@DU?$char_traits@D@std@@V?$allocator@D@2@@std@@H@std@@@std@@@std@@U_Iterator_base0@2@@std@@QEAA@XZ 0000000140035f40 f i log4z.obj
 0001:00034f40       ??0Log4zFileHandler@log4z@zsummer@@QEAA@XZ 0000000140035f40 f i log4z.obj
 0001:00034f40       ??0_Container_base12@std@@QEAA@XZ 0000000140035f40 f i log4z.obj
 0001:00034f60       ??0?$_Uninitialized_backout@PEAPEAPEAULogData@log4z@zsummer@@@std@@QEAA@PEAPEAPEAULogData@log4z@zsummer@@@Z 0000000140035f60 f i log4z.obj
 0001:00034f90       ??0?$_Uninitialized_backout_al@V?$allocator@D@std@@@std@@QEAA@PEADAEAV?$allocator@D@1@@Z 0000000140035f90 f i string_utils.obj
 0001:00034f90       ??0?$_Uninitialized_backout_al@V?$allocator@PEAULogData@log4z@zsummer@@@std@@@std@@QEAA@PEAPEAULogData@log4z@zsummer@@AEAV?$allocator@PEAULogData@log4z@zsummer@@@1@@Z 0000000140035f90 f i log4z.obj
 0001:00034f90       ??0?$_Uninitialized_backout_al@V?$allocator@PEAVExceptionHandler@google_breakpad@@@std@@@std@@QEAA@PEAPEAVExceptionHandler@google_breakpad@@AEAV?$allocator@PEAVExceptionHandler@google_breakpad@@@1@@Z 0000000140035f90 f i exception_handler.obj
 0001:00034f90       ??0?$_Uninitialized_backout_al@V?$allocator@_W@std@@@std@@QEAA@PEA_WAEAV?$allocator@_W@1@@Z 0000000140035f90 f i string_utils.obj
 0001:00034fd0       ??0?$basic_string@DU?$char_traits@D@std@@V?$allocator@D@2@@std@@QEAA@$$QEAV01@@Z 0000000140035fd0 f i log4z.obj
 0001:00035050       ??0?$basic_string@DU?$char_traits@D@std@@V?$allocator@D@2@@std@@QEAA@AEBV01@@Z 0000000140036050 f i log4z.obj
 0001:000350f0       ??0?$basic_string@DU?$char_traits@D@std@@V?$allocator@D@2@@std@@QEAA@AEBV01@_K1AEBV?$allocator@D@1@@Z 00000001400360f0 f i log4z.obj
 0001:000351a0       ??0?$basic_string@DU?$char_traits@D@std@@V?$allocator@D@2@@std@@QEAA@QEBD_K@Z 00000001400361a0 f i log4z.obj
 0001:000351f0       ??0?$basic_string@DU?$char_traits@D@std@@V?$allocator@D@2@@std@@QEAA@XZ 00000001400361f0 f i log4z.obj
 0001:00035250       ??0?$deque@PEAULogData@log4z@zsummer@@V?$allocator@PEAULogData@log4z@zsummer@@@std@@@std@@QEAA@XZ 0000000140036250 f i log4z.obj
 0001:000352c0       ??0?$list@U?$pair@_JV?$basic_string@DU?$char_traits@D@std@@V?$allocator@D@2@@std@@@std@@V?$allocator@U?$pair@_JV?$basic_string@DU?$char_traits@D@std@@V?$allocator@D@2@@std@@@std@@@2@@std@@QEAA@$$QEAV01@@Z 00000001400362c0 f i log4z.obj
 0001:00035330       ??0?$list@U?$pair@_JV?$basic_string@DU?$char_traits@D@std@@V?$allocator@D@2@@std@@@std@@V?$allocator@U?$pair@_JV?$basic_string@DU?$char_traits@D@std@@V?$allocator@D@2@@std@@@std@@@2@@std@@QEAA@AEBV01@@Z 0000000140036330 f i log4z.obj
 0001:000353d0       ??0?$list@U?$pair@_JV?$basic_string@DU?$char_traits@D@std@@V?$allocator@D@2@@std@@@std@@V?$allocator@U?$pair@_JV?$basic_string@DU?$char_traits@D@std@@V?$allocator@D@2@@std@@@std@@@2@@std@@QEAA@XZ 00000001400363d0 f i log4z.obj
 0001:00035410       ??0?$map@V?$basic_string@DU?$char_traits@D@std@@V?$allocator@D@2@@std@@HU?$less@V?$basic_string@DU?$char_traits@D@std@@V?$allocator@D@2@@std@@@2@V?$allocator@U?$pair@$$CBV?$basic_string@DU?$char_traits@D@std@@V?$allocator@D@2@@std@@H@std@@@2@@std@@QEAA@XZ 0000000140036410 f i log4z.obj
 0001:00035440       ??0?$map@V?$basic_string@DU?$char_traits@D@std@@V?$allocator@D@2@@std@@ULoggerInfo@log4z@zsummer@@U?$less@V?$basic_string@DU?$char_traits@D@std@@V?$allocator@D@2@@std@@@2@V?$allocator@U?$pair@$$CBV?$basic_string@DU?$char_traits@D@std@@V?$allocator@D@2@@std@@ULoggerInfo@log4z@zsummer@@@std@@@2@@std@@QEAA@XZ 0000000140036440 f i log4z.obj
 0001:00035470       ??0?$pair@_JV?$basic_string@DU?$char_traits@D@std@@V?$allocator@D@2@@std@@@std@@QEAA@$$QEAU01@@Z 0000000140036470 f i log4z.obj
 0001:000354c0       ??0?$pair@_JV?$basic_string@DU?$char_traits@D@std@@V?$allocator@D@2@@std@@@std@@QEAA@AEBU01@@Z 00000001400364c0 f i log4z.obj
 0001:00035510       ??0?$tuple@$$QEAV?$basic_string@DU?$char_traits@D@std@@V?$allocator@D@2@@std@@@std@@QEAA@$$QEAV01@@Z 0000000140036510 f i log4z.obj
 0001:00035510       ??0?$tuple@AEBV?$basic_string@DU?$char_traits@D@std@@V?$allocator@D@2@@std@@@std@@QEAA@$$QEAV01@@Z 0000000140036510 f i log4z.obj
 0001:00035550       ??0?$vector@PEAULogData@log4z@zsummer@@V?$allocator@PEAULogData@log4z@zsummer@@@std@@@std@@QEAA@XZ 0000000140036550 f i log4z.obj
 0001:00035550       ??0?$vector@PEAVExceptionHandler@google_breakpad@@V?$allocator@PEAVExceptionHandler@google_breakpad@@@std@@@std@@QEAA@XZ 0000000140036550 f i exception_handler.obj
 0001:000355a0       ??0AutoLock@log4z@zsummer@@QEAA@AEAVLockHelper@12@@Z 00000001400365a0 f i log4z.obj
 0001:000355e0       ??0ILog4zManager@log4z@zsummer@@QEAA@XZ 00000001400365e0 f i log4z.obj
 0001:00035600       ??0Log4zStream@log4z@zsummer@@QEAA@PEADH@Z 0000000140036600 f i log4z.obj
 0001:00035650       ??0LoggerInfo@log4z@zsummer@@QEAA@$$QEAU012@@Z 0000000140036650 f i log4z.obj
 0001:000357f0       ??0LoggerInfo@log4z@zsummer@@QEAA@AEBU012@@Z 00000001400367f0 f i log4z.obj
 0001:00035990       ??0LoggerInfo@log4z@zsummer@@QEAA@XZ 0000000140036990 f i log4z.obj
 0001:00035ab0       ??0ThreadHelper@log4z@zsummer@@QEAA@XZ 0000000140036ab0 f i log4z.obj
 0001:00035ae0       ??1?$_Alloc_construct_ptr@V?$allocator@U?$_List_node@U?$pair@_JV?$basic_string@DU?$char_traits@D@std@@V?$allocator@D@2@@std@@@std@@PEAX@std@@@std@@@std@@QEAA@XZ 0000000140036ae0 f i log4z.obj
 0001:00035b30       ??1?$_Alloc_construct_ptr@V?$allocator@U?$_Tree_node@U?$pair@$$CBV?$basic_string@DU?$char_traits@D@std@@V?$allocator@D@2@@std@@H@std@@PEAX@std@@@std@@@std@@QEAA@XZ 0000000140036b30 f i log4z.obj
 0001:00035b80       ??1?$_Alloc_construct_ptr@V?$allocator@U?$_Tree_node@U?$pair@$$CBV?$basic_string@DU?$char_traits@D@std@@V?$allocator@D@2@@std@@ULoggerInfo@log4z@zsummer@@@std@@PEAX@std@@@std@@@std@@QEAA@XZ 0000000140036b80 f i log4z.obj
 0001:00035bd0       ??1?$_List_node_emplace_op2@V?$allocator@U?$_List_node@U?$pair@_JV?$basic_string@DU?$char_traits@D@std@@V?$allocator@D@2@@std@@@std@@PEAX@std@@@std@@@std@@QEAA@XZ 0000000140036bd0 f i log4z.obj
 0001:00035c30       ??1?$_List_node_insert_op2@V?$allocator@U?$_List_node@U?$pair@_JV?$basic_string@DU?$char_traits@D@std@@V?$allocator@D@2@@std@@@std@@PEAX@std@@@std@@@std@@QEAA@XZ 0000000140036c30 f i log4z.obj
 0001:00035ce0       ??1?$_Tree@V?$_Tmap_traits@V?$basic_string@DU?$char_traits@D@std@@V?$allocator@D@2@@std@@HU?$less@V?$basic_string@DU?$char_traits@D@std@@V?$allocator@D@2@@std@@@2@V?$allocator@U?$pair@$$CBV?$basic_string@DU?$char_traits@D@std@@V?$allocator@D@2@@std@@H@std@@@2@$0A@@std@@@std@@QEAA@XZ 0000000140036ce0 f i log4z.obj
 0001:00035d20       ??1?$_Tree@V?$_Tmap_traits@V?$basic_string@DU?$char_traits@D@std@@V?$allocator@D@2@@std@@ULoggerInfo@log4z@zsummer@@U?$less@V?$basic_string@DU?$char_traits@D@std@@V?$allocator@D@2@@std@@@2@V?$allocator@U?$pair@$$CBV?$basic_string@DU?$char_traits@D@std@@V?$allocator@D@2@@std@@ULoggerInfo@log4z@zsummer@@@std@@@2@$0A@@std@@@std@@QEAA@XZ 0000000140036d20 f i log4z.obj
 0001:00035d60       ??1?$_Tree_temp_node@V?$allocator@U?$_Tree_node@U?$pair@$$CBV?$basic_string@DU?$char_traits@D@std@@V?$allocator@D@2@@std@@H@std@@PEAX@std@@@std@@@std@@QEAA@XZ 0000000140036d60 f i log4z.obj
 0001:00035e00       ??1?$_Tree_temp_node@V?$allocator@U?$_Tree_node@U?$pair@$$CBV?$basic_string@DU?$char_traits@D@std@@V?$allocator@D@2@@std@@ULoggerInfo@log4z@zsummer@@@std@@PEAX@std@@@std@@@std@@QEAA@XZ 0000000140036e00 f i log4z.obj
 0001:00035ea0       ??1?$_Tree_temp_node_alloc@V?$allocator@U?$_Tree_node@U?$pair@$$CBV?$basic_string@DU?$char_traits@D@std@@V?$allocator@D@2@@std@@H@std@@PEAX@std@@@std@@@std@@QEAA@XZ 0000000140036ea0 f i log4z.obj
 0001:00035ec0       ??1?$_Tree_temp_node_alloc@V?$allocator@U?$_Tree_node@U?$pair@$$CBV?$basic_string@DU?$char_traits@D@std@@V?$allocator@D@2@@std@@ULoggerInfo@log4z@zsummer@@@std@@PEAX@std@@@std@@@std@@QEAA@XZ 0000000140036ec0 f i log4z.obj
 0001:00035ee0       ??1?$_Uninitialized_backout@PEAPEAPEAULogData@log4z@zsummer@@@std@@QEAA@XZ 0000000140036ee0 f i log4z.obj
 0001:00035f10       ??1?$_Uninitialized_backout_al@V?$allocator@D@std@@@std@@QEAA@XZ 0000000140036f10 f i string_utils.obj
 0001:00035f10       ??1?$_Uninitialized_backout_al@V?$allocator@PEAULogData@log4z@zsummer@@@std@@@std@@QEAA@XZ 0000000140036f10 f i log4z.obj
 0001:00035f10       ??1?$_Uninitialized_backout_al@V?$allocator@PEAVExceptionHandler@google_breakpad@@@std@@@std@@QEAA@XZ 0000000140036f10 f i exception_handler.obj
 0001:00035f10       ??1?$_Uninitialized_backout_al@V?$allocator@_W@std@@@std@@QEAA@XZ 0000000140036f10 f i string_utils.obj
 0001:00035f40       ??1?$deque@PEAULogData@log4z@zsummer@@V?$allocator@PEAULogData@log4z@zsummer@@@std@@@std@@QEAA@XZ 0000000140036f40 f i log4z.obj
 0001:00035fa0       ??1?$list@U?$pair@_JV?$basic_string@DU?$char_traits@D@std@@V?$allocator@D@2@@std@@@std@@V?$allocator@U?$pair@_JV?$basic_string@DU?$char_traits@D@std@@V?$allocator@D@2@@std@@@std@@@2@@std@@QEAA@XZ 0000000140036fa0 f i log4z.obj
 0001:00035fc0       ??1?$map@V?$basic_string@DU?$char_traits@D@std@@V?$allocator@D@2@@std@@HU?$less@V?$basic_string@DU?$char_traits@D@std@@V?$allocator@D@2@@std@@@2@V?$allocator@U?$pair@$$CBV?$basic_string@DU?$char_traits@D@std@@V?$allocator@D@2@@std@@H@std@@@2@@std@@QEAA@XZ 0000000140036fc0 f i log4z.obj
 0001:00035fe0       ??1?$map@V?$basic_string@DU?$char_traits@D@std@@V?$allocator@D@2@@std@@ULoggerInfo@log4z@zsummer@@U?$less@V?$basic_string@DU?$char_traits@D@std@@V?$allocator@D@2@@std@@@2@V?$allocator@U?$pair@$$CBV?$basic_string@DU?$char_traits@D@std@@V?$allocator@D@2@@std@@ULoggerInfo@log4z@zsummer@@@std@@@2@@std@@QEAA@XZ 0000000140036fe0 f i log4z.obj
 0001:00036000       ??1?$pair@$$CBV?$basic_string@DU?$char_traits@D@std@@V?$allocator@D@2@@std@@H@std@@QEAA@XZ 0000000140037000 f i log4z.obj
 0001:00036000       ??1?$pair@V?$basic_string@DU?$char_traits@D@std@@V?$allocator@D@2@@std@@PEBD@std@@QEAA@XZ 0000000140037000 f i log4z.obj
 0001:00036020       ??1?$pair@$$CBV?$basic_string@DU?$char_traits@D@std@@V?$allocator@D@2@@std@@ULoggerInfo@log4z@zsummer@@@std@@QEAA@XZ 0000000140037020 f i log4z.obj
 0001:00036020       ??1?$pair@V?$basic_string@DU?$char_traits@D@std@@V?$allocator@D@2@@std@@ULoggerInfo@log4z@zsummer@@@std@@QEAA@XZ 0000000140037020 f i log4z.obj
 0001:00036050       ??1?$pair@V?$basic_string@DU?$char_traits@D@std@@V?$allocator@D@2@@std@@V12@@std@@QEAA@XZ 0000000140037050 f i log4z.obj
 0001:00036080       ??1?$pair@_JV?$basic_string@DU?$char_traits@D@std@@V?$allocator@D@2@@std@@@std@@QEAA@XZ 0000000140037080 f i log4z.obj
 0001:000360a0       ??1?$vector@PEAULogData@log4z@zsummer@@V?$allocator@PEAULogData@log4z@zsummer@@@std@@@std@@QEAA@XZ 00000001400370a0 f i log4z.obj
 0001:000360a0       ??1?$vector@PEAVExceptionHandler@google_breakpad@@V?$allocator@PEAVExceptionHandler@google_breakpad@@@std@@@std@@QEAA@XZ 00000001400370a0 f i exception_handler.obj
 0001:000360c0       ??1AutoLock@log4z@zsummer@@QEAA@XZ 00000001400370c0 f i log4z.obj
 0001:000360e0       ??1ILog4zManager@log4z@zsummer@@UEAA@XZ 00000001400370e0 f i log4z.obj
 0001:00036100       ??1Log4zFileHandler@log4z@zsummer@@QEAA@XZ 0000000140037100 f i log4z.obj
 0001:00036120       ??1LoggerInfo@log4z@zsummer@@QEAA@XZ 0000000140037120 f i log4z.obj
 0001:00036190       ??1ThreadHelper@log4z@zsummer@@UEAA@XZ 0000000140037190 f i log4z.obj
 0001:000361b0       ??4?$basic_string@DU?$char_traits@D@std@@V?$allocator@D@2@@std@@QEAAAEAV01@$$QEAV01@@Z 00000001400371b0 f i log4z.obj
 0001:00036230       ??4?$basic_string@DU?$char_traits@D@std@@V?$allocator@D@2@@std@@QEAAAEAV01@AEBV01@@Z 0000000140037230 f i log4z.obj
 0001:000362d0       ??4?$basic_string@DU?$char_traits@D@std@@V?$allocator@D@2@@std@@QEAAAEAV01@QEBD@Z 00000001400372d0 f i log4z.obj
 0001:00036300       ??6Log4zStream@log4z@zsummer@@QEAAAEAV012@H@Z 0000000140037300 f i log4z.obj
 0001:00036330       ??6Log4zStream@log4z@zsummer@@QEAAAEAV012@PEBD@Z 0000000140037330 f i log4z.obj
 0001:00036360       ??6Log4zStream@log4z@zsummer@@QEAAAEAV012@_N@Z 0000000140037360 f i log4z.obj
 0001:000363d0       ??$qHashEquals@PEAVQWidget@@@@YA_NAEBQEAVQWidget@@0@Z 00000001400373d0 f i FramelessHelper.obj
 0001:000363d0       ??8?$_List_const_iterator@V?$_List_val@U?$_List_simple_types@UAppMemory@google_breakpad@@@std@@@std@@@std@@QEBA_NAEBV01@@Z 00000001400373d0 f i exception_handler.obj
 0001:000363d0       ??8?$_List_unchecked_const_iterator@V?$_List_val@U?$_List_simple_types@U?$pair@_JV?$basic_string@DU?$char_traits@D@std@@V?$allocator@D@2@@std@@@std@@@std@@@std@@U_Iterator_base0@2@@std@@QEBA_NAEBV01@@Z 00000001400373d0 f i log4z.obj
 0001:000363d0       ??8?$_List_unchecked_const_iterator@V?$_List_val@U?$_List_simple_types@UAppMemory@google_breakpad@@@std@@@std@@U_Iterator_base0@2@@std@@QEBA_NAEBV01@@Z 00000001400373d0 f i exception_handler.obj
 0001:000363d0       ??8?$_Tree_const_iterator@V?$_Tree_val@U?$_Tree_simple_types@U?$pair@$$CBV?$basic_string@DU?$char_traits@D@std@@V?$allocator@D@2@@std@@H@std@@@std@@@std@@@std@@QEBA_NAEBV01@@Z 00000001400373d0 f i log4z.obj
 0001:000363d0       ??8?$_Tree_const_iterator@V?$_Tree_val@U?$_Tree_simple_types@U?$pair@$$CBV?$basic_string@DU?$char_traits@D@std@@V?$allocator@D@2@@std@@ULoggerInfo@log4z@zsummer@@@std@@@std@@@std@@@std@@QEBA_NAEBV01@@Z 00000001400373d0 f i log4z.obj
 0001:000363d0       ??8?$_Tree_const_iterator@V?$_Tree_val@U?$_Tree_simple_types@U?$pair@$$CBVQString@@V1@@std@@@std@@@std@@@std@@QEBA_NAEBV01@@Z 00000001400373d0 f i httpdownloader.obj
 0001:000363d0       ??8?$_Tree_const_iterator@V?$_Tree_val@U?$_Tree_simple_types@U?$pair@$$CBVQString@@_N@std@@@std@@@std@@@std@@QEBA_NAEBV01@@Z 00000001400373d0 f i httpdownloader.obj
 0001:000363d0       ??8?$_Tree_unchecked_const_iterator@V?$_Tree_val@U?$_Tree_simple_types@U?$pair@$$CBVQString@@V1@@std@@@std@@@std@@U_Iterator_base0@2@@std@@QEBA_NAEBV01@@Z 00000001400373d0 f i httpdownloader.obj
 0001:000363d0       ??8?$_Tree_unchecked_const_iterator@V?$_Tree_val@U?$_Tree_simple_types@U?$pair@$$CBVQString@@_N@std@@@std@@@std@@U_Iterator_base0@2@@std@@QEBA_NAEBV01@@Z 00000001400373d0 f i httpdownloader.obj
 0001:00036410       ??8?$_String_const_iterator@V?$_String_val@U?$_Simple_types@D@std@@@std@@@std@@QEBA_NAEBV01@@Z 0000000140037410 f i log4z.obj
 0001:00036410       ??8?$_Vector_const_iterator@V?$_Vector_val@U?$_Simple_types@PEAVExceptionHandler@google_breakpad@@@std@@@std@@@std@@QEBA_NAEBV01@@Z 0000000140037410 f i exception_handler.obj
 0001:00036460       ??9?$_List_const_iterator@V?$_List_val@U?$_List_simple_types@UAppMemory@google_breakpad@@@std@@@std@@@std@@QEBA_NAEBV01@@Z 0000000140037460 f i exception_handler.obj
 0001:00036460       ??9?$_List_unchecked_const_iterator@V?$_List_val@U?$_List_simple_types@U?$pair@_JV?$basic_string@DU?$char_traits@D@std@@V?$allocator@D@2@@std@@@std@@@std@@@std@@U_Iterator_base0@2@@std@@QEBA_NAEBV01@@Z 0000000140037460 f i log4z.obj
 0001:00036460       ??9?$_List_unchecked_const_iterator@V?$_List_val@U?$_List_simple_types@UAppMemory@google_breakpad@@@std@@@std@@U_Iterator_base0@2@@std@@QEBA_NAEBV01@@Z 0000000140037460 f i exception_handler.obj
 0001:00036460       ??9?$_Tree_const_iterator@V?$_Tree_val@U?$_Tree_simple_types@U?$pair@$$CBV?$basic_string@DU?$char_traits@D@std@@V?$allocator@D@2@@std@@H@std@@@std@@@std@@@std@@QEBA_NAEBV01@@Z 0000000140037460 f i log4z.obj
 0001:00036460       ??9?$_Tree_const_iterator@V?$_Tree_val@U?$_Tree_simple_types@U?$pair@$$CBV?$basic_string@DU?$char_traits@D@std@@V?$allocator@D@2@@std@@ULoggerInfo@log4z@zsummer@@@std@@@std@@@std@@@std@@QEBA_NAEBV01@@Z 0000000140037460 f i log4z.obj
 0001:00036460       ??9?$_Tree_const_iterator@V?$_Tree_val@U?$_Tree_simple_types@U?$pair@$$CBVQString@@_N@std@@@std@@@std@@@std@@QEBA_NAEBV01@@Z 0000000140037460 f i httpdownloader.obj
 0001:00036460       ??9?$_Tree_unchecked_const_iterator@V?$_Tree_val@U?$_Tree_simple_types@U?$pair@$$CBVQString@@V1@@std@@@std@@@std@@U_Iterator_base0@2@@std@@QEBA_NAEBV01@@Z 0000000140037460 f i httpdownloader.obj
 0001:00036460       ??9?$_Tree_unchecked_const_iterator@V?$_Tree_val@U?$_Tree_simple_types@U?$pair@$$CBVQString@@_N@std@@@std@@@std@@U_Iterator_base0@2@@std@@QEBA_NAEBV01@@Z 0000000140037460 f i httpdownloader.obj
 0001:000364a0       ??9?$_String_const_iterator@V?$_String_val@U?$_Simple_types@D@std@@@std@@@std@@QEBA_NAEBV01@@Z 00000001400374a0 f i log4z.obj
 0001:000364a0       ??9?$_Vector_const_iterator@V?$_Vector_val@U?$_Simple_types@PEAVExceptionHandler@google_breakpad@@@std@@@std@@@std@@QEBA_NAEBV01@@Z 00000001400374a0 f i exception_handler.obj
 0001:000364e0       ??A?$basic_string@DU?$char_traits@D@std@@V?$allocator@D@2@@std@@QEAAAEAD_K@Z 00000001400374e0 f i log4z.obj
 0001:00036510       ??A?$map@V?$basic_string@DU?$char_traits@D@std@@V?$allocator@D@2@@std@@HU?$less@V?$basic_string@DU?$char_traits@D@std@@V?$allocator@D@2@@std@@@2@V?$allocator@U?$pair@$$CBV?$basic_string@DU?$char_traits@D@std@@V?$allocator@D@2@@std@@H@std@@@2@@std@@QEAAAEAH$$QEAV?$basic_string@DU?$char_traits@D@std@@V?$allocator@D@2@@1@@Z 0000000140037510 f i log4z.obj
 0001:00036550       ??A?$map@V?$basic_string@DU?$char_traits@D@std@@V?$allocator@D@2@@std@@HU?$less@V?$basic_string@DU?$char_traits@D@std@@V?$allocator@D@2@@std@@@2@V?$allocator@U?$pair@$$CBV?$basic_string@DU?$char_traits@D@std@@V?$allocator@D@2@@std@@H@std@@@2@@std@@QEAAAEAHAEBV?$basic_string@DU?$char_traits@D@std@@V?$allocator@D@2@@1@@Z 0000000140037550 f i log4z.obj
 0001:00036580       ??C?$_Tree_iterator@V?$_Tree_val@U?$_Tree_simple_types@U?$pair@$$CBV?$basic_string@DU?$char_traits@D@std@@V?$allocator@D@2@@std@@H@std@@@std@@@std@@@std@@QEBAPEAU?$pair@$$CBV?$basic_string@DU?$char_traits@D@std@@V?$allocator@D@2@@std@@H@1@XZ 0000000140037580 f i log4z.obj
 0001:00036580       ??C?$_Tree_iterator@V?$_Tree_val@U?$_Tree_simple_types@U?$pair@$$CBV?$basic_string@DU?$char_traits@D@std@@V?$allocator@D@2@@std@@ULoggerInfo@log4z@zsummer@@@std@@@std@@@std@@@std@@QEBAPEAU?$pair@$$CBV?$basic_string@DU?$char_traits@D@std@@V?$allocator@D@2@@std@@ULoggerInfo@log4z@zsummer@@@1@XZ 0000000140037580 f i log4z.obj
 0001:00036580       ??C?$_Tree_iterator@V?$_Tree_val@U?$_Tree_simple_types@U?$pair@$$CBVQString@@V1@@std@@@std@@@std@@@std@@QEBAPEAU?$pair@$$CBVQString@@V1@@1@XZ 0000000140037580 f i httpdownloader.obj
 0001:000365a0       ??D?$_Deque_unchecked_const_iterator@V?$_Deque_val@U?$_Deque_simple_types@PEAULogData@log4z@zsummer@@@std@@@std@@@std@@QEBAAEBQEAULogData@log4z@zsummer@@XZ 00000001400375a0 f i log4z.obj
 0001:00036610       ??D?$_Deque_unchecked_iterator@V?$_Deque_val@U?$_Deque_simple_types@PEAULogData@log4z@zsummer@@@std@@@std@@@std@@QEBAAEAPEAULogData@log4z@zsummer@@XZ 0000000140037610 f i log4z.obj
 0001:00036630       ??D?$_List_const_iterator@V?$_List_val@U?$_List_simple_types@UAppMemory@google_breakpad@@@std@@@std@@@std@@QEBAAEBUAppMemory@google_breakpad@@XZ 0000000140037630 f i exception_handler.obj
 0001:00036630       ??D?$_List_unchecked_const_iterator@V?$_List_val@U?$_List_simple_types@U?$pair@_JV?$basic_string@DU?$char_traits@D@std@@V?$allocator@D@2@@std@@@std@@@std@@@std@@U_Iterator_base0@2@@std@@QEBAAEBU?$pair@_JV?$basic_string@DU?$char_traits@D@std@@V?$allocator@D@2@@std@@@1@XZ 0000000140037630 f i log4z.obj
 0001:00036630       ??D?$_List_unchecked_const_iterator@V?$_List_val@U?$_List_simple_types@UAppMemory@google_breakpad@@@std@@@std@@U_Iterator_base0@2@@std@@QEBAAEBUAppMemory@google_breakpad@@XZ 0000000140037630 f i exception_handler.obj
 0001:00036650       ??D?$_String_iterator@V?$_String_val@U?$_Simple_types@D@std@@@std@@@std@@QEBAAEADXZ 0000000140037650 f i log4z.obj
 0001:00036650       ??D?$_Vector_iterator@V?$_Vector_val@U?$_Simple_types@PEAVExceptionHandler@google_breakpad@@@std@@@std@@@std@@QEBAAEAPEAVExceptionHandler@google_breakpad@@XZ 0000000140037650 f i exception_handler.obj
 0001:00036670       ??D?$_Tree_const_iterator@V?$_Tree_val@U?$_Tree_simple_types@U?$pair@$$CBV?$basic_string@DU?$char_traits@D@std@@V?$allocator@D@2@@std@@H@std@@@std@@@std@@@std@@QEBAAEBU?$pair@$$CBV?$basic_string@DU?$char_traits@D@std@@V?$allocator@D@2@@std@@H@1@XZ 0000000140037670 f i log4z.obj
 0001:00036670       ??D?$_Tree_const_iterator@V?$_Tree_val@U?$_Tree_simple_types@U?$pair@$$CBV?$basic_string@DU?$char_traits@D@std@@V?$allocator@D@2@@std@@ULoggerInfo@log4z@zsummer@@@std@@@std@@@std@@@std@@QEBAAEBU?$pair@$$CBV?$basic_string@DU?$char_traits@D@std@@V?$allocator@D@2@@std@@ULoggerInfo@log4z@zsummer@@@1@XZ 0000000140037670 f i log4z.obj
 0001:00036670       ??D?$_Tree_const_iterator@V?$_Tree_val@U?$_Tree_simple_types@U?$pair@$$CBVQString@@V1@@std@@@std@@@std@@@std@@QEBAAEBU?$pair@$$CBVQString@@V1@@1@XZ 0000000140037670 f i httpdownloader.obj
 0001:00036670       ??D?$_Tree_const_iterator@V?$_Tree_val@U?$_Tree_simple_types@U?$pair@$$CBVQString@@_N@std@@@std@@@std@@@std@@QEBAAEBU?$pair@$$CBVQString@@_N@1@XZ 0000000140037670 f i httpdownloader.obj
 0001:00036670       ??D?$_Tree_unchecked_const_iterator@V?$_Tree_val@U?$_Tree_simple_types@U?$pair@$$CBVQString@@V1@@std@@@std@@@std@@U_Iterator_base0@2@@std@@QEBAAEBU?$pair@$$CBVQString@@V1@@1@XZ 0000000140037670 f i httpdownloader.obj
 0001:00036670       ??D?$_Tree_unchecked_const_iterator@V?$_Tree_val@U?$_Tree_simple_types@U?$pair@$$CBVQString@@_N@std@@@std@@@std@@U_Iterator_base0@2@@std@@QEBAAEBU?$pair@$$CBVQString@@_N@1@XZ 0000000140037670 f i httpdownloader.obj
 0001:00036690       ??D?$_Tree_iterator@V?$_Tree_val@U?$_Tree_simple_types@U?$pair@$$CBV?$basic_string@DU?$char_traits@D@std@@V?$allocator@D@2@@std@@H@std@@@std@@@std@@@std@@QEBAAEAU?$pair@$$CBV?$basic_string@DU?$char_traits@D@std@@V?$allocator@D@2@@std@@H@1@XZ 0000000140037690 f i log4z.obj
 0001:00036690       ??D?$_Tree_iterator@V?$_Tree_val@U?$_Tree_simple_types@U?$pair@$$CBV?$basic_string@DU?$char_traits@D@std@@V?$allocator@D@2@@std@@ULoggerInfo@log4z@zsummer@@@std@@@std@@@std@@@std@@QEBAAEAU?$pair@$$CBV?$basic_string@DU?$char_traits@D@std@@V?$allocator@D@2@@std@@ULoggerInfo@log4z@zsummer@@@1@XZ 0000000140037690 f i log4z.obj
 0001:00036690       ??D?$_Tree_iterator@V?$_Tree_val@U?$_Tree_simple_types@U?$pair@$$CBVQString@@V1@@std@@@std@@@std@@@std@@QEBAAEAU?$pair@$$CBVQString@@V1@@1@XZ 0000000140037690 f i httpdownloader.obj
 0001:000366b0       ??E?$_List_const_iterator@V?$_List_val@U?$_List_simple_types@UAppMemory@google_breakpad@@@std@@@std@@@std@@QEAAAEAV01@XZ 00000001400376b0 f i exception_handler.obj
 0001:000366b0       ??E?$_List_unchecked_const_iterator@V?$_List_val@U?$_List_simple_types@U?$pair@_JV?$basic_string@DU?$char_traits@D@std@@V?$allocator@D@2@@std@@@std@@@std@@@std@@U_Iterator_base0@2@@std@@QEAAAEAV01@XZ 00000001400376b0 f i log4z.obj
 0001:000366b0       ??E?$_List_unchecked_const_iterator@V?$_List_val@U?$_List_simple_types@UAppMemory@google_breakpad@@@std@@@std@@U_Iterator_base0@2@@std@@QEAAAEAV01@XZ 00000001400376b0 f i exception_handler.obj
 0001:000366d0       ??E?$_String_const_iterator@V?$_String_val@U?$_Simple_types@D@std@@@std@@@std@@QEAAAEAV01@XZ 00000001400376d0 f i log4z.obj
 0001:000366f0       ??E?$_String_iterator@V?$_String_val@U?$_Simple_types@D@std@@@std@@@std@@QEAAAEAV01@XZ 00000001400376f0 f i log4z.obj
 0001:00036710       ??E?$_Tree_const_iterator@V?$_Tree_val@U?$_Tree_simple_types@U?$pair@$$CBV?$basic_string@DU?$char_traits@D@std@@V?$allocator@D@2@@std@@ULoggerInfo@log4z@zsummer@@@std@@@std@@@std@@@std@@QEAAAEAV01@XZ 0000000140037710 f i log4z.obj
 0001:00036710       ??E?$_Tree_const_iterator@V?$_Tree_val@U?$_Tree_simple_types@U?$pair@$$CBVQString@@V1@@std@@@std@@@std@@@std@@QEAAAEAV01@XZ 0000000140037710 f i httpdownloader.obj
 0001:00036710       ??E?$_Tree_const_iterator@V?$_Tree_val@U?$_Tree_simple_types@U?$pair@$$CBVQString@@_N@std@@@std@@@std@@@std@@QEAAAEAV01@XZ 0000000140037710 f i httpdownloader.obj
 0001:00036730       ??E?$_Tree_iterator@V?$_Tree_val@U?$_Tree_simple_types@U?$pair@$$CBV?$basic_string@DU?$char_traits@D@std@@V?$allocator@D@2@@std@@ULoggerInfo@log4z@zsummer@@@std@@@std@@@std@@@std@@QEAAAEAV01@XZ 0000000140037730 f i log4z.obj
 0001:00036730       ??E?$_Tree_iterator@V?$_Tree_val@U?$_Tree_simple_types@U?$pair@$$CBVQString@@V1@@std@@@std@@@std@@@std@@QEAAAEAV01@XZ 0000000140037730 f i httpdownloader.obj
 0001:00036730       ??E?$_Tree_iterator@V?$_Tree_val@U?$_Tree_simple_types@U?$pair@$$CBVQString@@_N@std@@@std@@@std@@@std@@QEAAAEAV01@XZ 0000000140037730 f i httpdownloader.obj
 0001:00036750       ??E?$_Tree_unchecked_const_iterator@V?$_Tree_val@U?$_Tree_simple_types@U?$pair@$$CBV?$basic_string@DU?$char_traits@D@std@@V?$allocator@D@2@@std@@ULoggerInfo@log4z@zsummer@@@std@@@std@@@std@@U_Iterator_base0@2@@std@@QEAAAEAV01@XZ 0000000140037750 f i log4z.obj
 0001:00036750       ??E?$_Tree_unchecked_const_iterator@V?$_Tree_val@U?$_Tree_simple_types@U?$pair@$$CBVQString@@V1@@std@@@std@@@std@@U_Iterator_base0@2@@std@@QEAAAEAV01@XZ 0000000140037750 f i httpdownloader.obj
 0001:00036750       ??E?$_Tree_unchecked_const_iterator@V?$_Tree_val@U?$_Tree_simple_types@U?$pair@$$CBVQString@@_N@std@@@std@@@std@@U_Iterator_base0@2@@std@@QEAAAEAV01@XZ 0000000140037750 f i httpdownloader.obj
 0001:000367e0       ??R<lambda_1>@?1??append@?$basic_string@DU?$char_traits@D@std@@V?$allocator@D@2@@std@@QEAAAEAV23@QEBD_K@Z@QEBA@QEAD0101@Z 00000001400377e0 f i log4z.obj
 0001:00036860       ??R<lambda_1>@?1??assign@?$basic_string@DU?$char_traits@D@std@@V?$allocator@D@2@@std@@QEAAAEAV23@QEBD_K@Z@QEBA@QEAD10@Z 0000000140037860 f i log4z.obj
 0001:000368c0       ??R?$less@V?$basic_string@DU?$char_traits@D@std@@V?$allocator@D@2@@std@@@std@@QEBA_NAEBV?$basic_string@DU?$char_traits@D@std@@V?$allocator@D@2@@1@0@Z 00000001400378c0 f i log4z.obj
 0001:000368f0       ??Y?$basic_string@DU?$char_traits@D@std@@V?$allocator@D@2@@std@@QEAAAEAV01@QEBD@Z 00000001400378f0 f i log4z.obj
 0001:00036914       ??_ELogerManager@log4z@zsummer@@WBA@EAAPEAXI@Z 0000000140037914 f i log4z.obj
 0001:00036920       ??_G?$pair@$$CBV?$basic_string@DU?$char_traits@D@std@@V?$allocator@D@2@@std@@H@std@@QEAAPEAXI@Z 0000000140037920 f i log4z.obj
 0001:00036960       ??_G?$pair@$$CBV?$basic_string@DU?$char_traits@D@std@@V?$allocator@D@2@@std@@ULoggerInfo@log4z@zsummer@@@std@@QEAAPEAXI@Z 0000000140037960 f i log4z.obj
 0001:000369a0       ??_G?$pair@_JV?$basic_string@DU?$char_traits@D@std@@V?$allocator@D@2@@std@@@std@@QEAAPEAXI@Z 00000001400379a0 f i log4z.obj
 0001:000369e0       ??_EILog4zManager@log4z@zsummer@@UEAAPEAXI@Z 00000001400379e0 f i log4z.obj
 0001:000369e0       ??_GILog4zManager@log4z@zsummer@@UEAAPEAXI@Z 00000001400379e0 f i log4z.obj
 0001:00036a20       ??_ELockHelper@log4z@zsummer@@UEAAPEAXI@Z 0000000140037a20 f i log4z.obj
 0001:00036a20       ??_GLockHelper@log4z@zsummer@@UEAAPEAXI@Z 0000000140037a20 f i log4z.obj
 0001:00036a60       ??_ELogerManager@log4z@zsummer@@UEAAPEAXI@Z 0000000140037a60 f i log4z.obj
 0001:00036a60       ??_GLogerManager@log4z@zsummer@@UEAAPEAXI@Z 0000000140037a60 f i log4z.obj
 0001:00036aa0       ??_ESemHelper@log4z@zsummer@@UEAAPEAXI@Z 0000000140037aa0 f i log4z.obj
 0001:00036aa0       ??_GSemHelper@log4z@zsummer@@UEAAPEAXI@Z 0000000140037aa0 f i log4z.obj
 0001:00036ae0       ??_EThreadHelper@log4z@zsummer@@UEAAPEAXI@Z 0000000140037ae0 f i log4z.obj
 0001:00036ae0       ??_GThreadHelper@log4z@zsummer@@UEAAPEAXI@Z 0000000140037ae0 f i log4z.obj
 0001:00036b20       ?_Alloc_sentinel_and_proxy@?$_Tree@V?$_Tmap_traits@V?$basic_string@DU?$char_traits@D@std@@V?$allocator@D@2@@std@@HU?$less@V?$basic_string@DU?$char_traits@D@std@@V?$allocator@D@2@@std@@@2@V?$allocator@U?$pair@$$CBV?$basic_string@DU?$char_traits@D@std@@V?$allocator@D@2@@std@@H@std@@@2@$0A@@std@@@std@@IEAAXXZ 0000000140037b20 f i log4z.obj
 0001:00036b90       ?_Alloc_sentinel_and_proxy@?$_Tree@V?$_Tmap_traits@V?$basic_string@DU?$char_traits@D@std@@V?$allocator@D@2@@std@@ULoggerInfo@log4z@zsummer@@U?$less@V?$basic_string@DU?$char_traits@D@std@@V?$allocator@D@2@@std@@@2@V?$allocator@U?$pair@$$CBV?$basic_string@DU?$char_traits@D@std@@V?$allocator@D@2@@std@@ULoggerInfo@log4z@zsummer@@@std@@@2@$0A@@std@@@std@@IEAAXXZ 0000000140037b90 f i log4z.obj
 0001:00036c00       ?_Alloc_sentinel_and_proxy@?$list@U?$pair@_JV?$basic_string@DU?$char_traits@D@std@@V?$allocator@D@2@@std@@@std@@V?$allocator@U?$pair@_JV?$basic_string@DU?$char_traits@D@std@@V?$allocator@D@2@@std@@@std@@@2@@std@@AEAAXXZ 0000000140037c00 f i log4z.obj
 0001:00036ca0       ?_Allocate@?$_Alloc_construct_ptr@V?$allocator@U?$_List_node@U?$pair@_JV?$basic_string@DU?$char_traits@D@std@@V?$allocator@D@2@@std@@@std@@PEAX@std@@@std@@@std@@QEAAXXZ 0000000140037ca0 f i log4z.obj
 0001:00036ce0       ?_Allocate@?$_Alloc_construct_ptr@V?$allocator@U?$_Tree_node@U?$pair@$$CBV?$basic_string@DU?$char_traits@D@std@@V?$allocator@D@2@@std@@H@std@@PEAX@std@@@std@@@std@@QEAAXXZ 0000000140037ce0 f i log4z.obj
 0001:00036d20       ?_Allocate@?$_Alloc_construct_ptr@V?$allocator@U?$_Tree_node@U?$pair@$$CBV?$basic_string@DU?$char_traits@D@std@@V?$allocator@D@2@@std@@ULoggerInfo@log4z@zsummer@@@std@@PEAX@std@@@std@@@std@@QEAAXXZ 0000000140037d20 f i log4z.obj
 0001:00036d60       ?_Calculate_growth@?$vector@PEAULogData@log4z@zsummer@@V?$allocator@PEAULogData@log4z@zsummer@@@std@@@std@@AEBA_K_K@Z 0000000140037d60 f i log4z.obj
 0001:00036d60       ?_Calculate_growth@?$vector@PEAVExceptionHandler@google_breakpad@@V?$allocator@PEAVExceptionHandler@google_breakpad@@@std@@@std@@AEBA_K_K@Z 0000000140037d60 f i exception_handler.obj
 0001:00036df0       ?_Change_array@?$vector@PEAULogData@log4z@zsummer@@V?$allocator@PEAULogData@log4z@zsummer@@@std@@@std@@AEAAXQEAPEAULogData@log4z@zsummer@@_K1@Z 0000000140037df0 f i log4z.obj
 0001:00036df0       ?_Change_array@?$vector@PEAVExceptionHandler@google_breakpad@@V?$allocator@PEAVExceptionHandler@google_breakpad@@@std@@@std@@AEAAXQEAPEAVExceptionHandler@google_breakpad@@_K1@Z 0000000140037df0 f i exception_handler.obj
 0001:00036ee0       ?_Check_grow_by_1@?$_Tree@V?$_Tmap_traits@V?$basic_string@DU?$char_traits@D@std@@V?$allocator@D@2@@std@@HU?$less@V?$basic_string@DU?$char_traits@D@std@@V?$allocator@D@2@@std@@@2@V?$allocator@U?$pair@$$CBV?$basic_string@DU?$char_traits@D@std@@V?$allocator@D@2@@std@@H@std@@@2@$0A@@std@@@std@@IEAAXXZ 0000000140037ee0 f i log4z.obj
 0001:00036f20       ?_Check_grow_by_1@?$_Tree@V?$_Tmap_traits@V?$basic_string@DU?$char_traits@D@std@@V?$allocator@D@2@@std@@ULoggerInfo@log4z@zsummer@@U?$less@V?$basic_string@DU?$char_traits@D@std@@V?$allocator@D@2@@std@@@2@V?$allocator@U?$pair@$$CBV?$basic_string@DU?$char_traits@D@std@@V?$allocator@D@2@@std@@ULoggerInfo@log4z@zsummer@@@std@@@2@$0A@@std@@@std@@IEAAXXZ 0000000140037f20 f i log4z.obj
 0001:00036f60       ?_Check_offset@?$_String_val@U?$_Simple_types@D@std@@@std@@QEBAX_K@Z 0000000140037f60 f i log4z.obj
 0001:00036f60       ?_Check_offset@?$_String_val@U?$_Simple_types@_W@std@@@std@@QEBAX_K@Z 0000000140037f60 f i string_utils.obj
 0001:00036f90       ?_Check_offset_exclusive@?$_String_val@U?$_Simple_types@D@std@@@std@@QEBAX_K@Z 0000000140037f90 f i log4z.obj
 0001:00036fc0       ?_Clamp_suffix_size@?$_String_val@U?$_Simple_types@D@std@@@std@@QEBA_K_K0@Z 0000000140037fc0 f i log4z.obj
 0001:00036fc0       ?_Clamp_suffix_size@?$_String_val@U?$_Simple_types@_W@std@@@std@@QEBA_K_K0@Z 0000000140037fc0 f i string_utils.obj
 0001:00037000       ?_Eos@?$basic_string@DU?$char_traits@D@std@@V?$allocator@D@2@@std@@AEAAX_K@Z 0000000140038000 f i log4z.obj
 0001:00037060       ?_Equal@?$basic_string@DU?$char_traits@D@std@@V?$allocator@D@2@@std@@QEBA_NAEBV12@@Z 0000000140038060 f i log4z.obj
 0001:000370d0       ?_Getblock@?$_Deque_val@U?$_Deque_simple_types@PEAULogData@log4z@zsummer@@@std@@@std@@QEBA_K_K@Z 00000001400380d0 f i log4z.obj
 0001:00037100       ?_Getblock@?$deque@PEAULogData@log4z@zsummer@@V?$allocator@PEAULogData@log4z@zsummer@@@std@@@std@@AEBA_K_K@Z 0000000140038100 f i log4z.obj
 0001:00037140       ?_Growmap@?$deque@PEAULogData@log4z@zsummer@@V?$allocator@PEAULogData@log4z@zsummer@@@std@@@std@@AEAAX_K@Z 0000000140038140 f i log4z.obj
 0001:00037570       ?_Insert_node@?$_Tree_val@U?$_Tree_simple_types@U?$pair@$$CBV?$basic_string@DU?$char_traits@D@std@@V?$allocator@D@2@@std@@H@std@@@std@@@std@@QEAAPEAU?$_Tree_node@U?$pair@$$CBV?$basic_string@DU?$char_traits@D@std@@V?$allocator@D@2@@std@@H@std@@PEAX@2@U?$_Tree_id@PEAU?$_Tree_node@U?$pair@$$CBV?$basic_string@DU?$char_traits@D@std@@V?$allocator@D@2@@std@@H@std@@PEAX@std@@@2@QEAU32@@Z 0000000140038570 f i log4z.obj
 0001:00037570       ?_Insert_node@?$_Tree_val@U?$_Tree_simple_types@U?$pair@$$CBV?$basic_string@DU?$char_traits@D@std@@V?$allocator@D@2@@std@@ULoggerInfo@log4z@zsummer@@@std@@@std@@@std@@QEAAPEAU?$_Tree_node@U?$pair@$$CBV?$basic_string@DU?$char_traits@D@std@@V?$allocator@D@2@@std@@ULoggerInfo@log4z@zsummer@@@std@@PEAX@2@U?$_Tree_id@PEAU?$_Tree_node@U?$pair@$$CBV?$basic_string@DU?$char_traits@D@std@@V?$allocator@D@2@@std@@ULoggerInfo@log4z@zsummer@@@std@@PEAX@std@@@2@QEAU32@@Z 0000000140038570 f i log4z.obj
 0001:00037570       ?_Insert_node@?$_Tree_val@U?$_Tree_simple_types@U?$pair@$$CBVQString@@V1@@std@@@std@@@std@@QEAAPEAU?$_Tree_node@U?$pair@$$CBVQString@@V1@@std@@PEAX@2@U?$_Tree_id@PEAU?$_Tree_node@U?$pair@$$CBVQString@@V1@@std@@PEAX@std@@@2@QEAU32@@Z 0000000140038570 f i httpdownloader.obj
 0001:00037570       ?_Insert_node@?$_Tree_val@U?$_Tree_simple_types@U?$pair@$$CBVQString@@_N@std@@@std@@@std@@QEAAPEAU?$_Tree_node@U?$pair@$$CBVQString@@_N@std@@PEAX@2@U?$_Tree_id@PEAU?$_Tree_node@U?$pair@$$CBVQString@@_N@std@@PEAX@std@@@2@QEAU32@@Z 0000000140038570 f i httpdownloader.obj
 0001:00037860       ?_Lrotate@?$_Tree_val@U?$_Tree_simple_types@U?$pair@$$CBV?$basic_string@DU?$char_traits@D@std@@V?$allocator@D@2@@std@@H@std@@@std@@@std@@QEAAXPEAU?$_Tree_node@U?$pair@$$CBV?$basic_string@DU?$char_traits@D@std@@V?$allocator@D@2@@std@@H@std@@PEAX@2@@Z 0000000140038860 f i log4z.obj
 0001:00037860       ?_Lrotate@?$_Tree_val@U?$_Tree_simple_types@U?$pair@$$CBV?$basic_string@DU?$char_traits@D@std@@V?$allocator@D@2@@std@@ULoggerInfo@log4z@zsummer@@@std@@@std@@@std@@QEAAXPEAU?$_Tree_node@U?$pair@$$CBV?$basic_string@DU?$char_traits@D@std@@V?$allocator@D@2@@std@@ULoggerInfo@log4z@zsummer@@@std@@PEAX@2@@Z 0000000140038860 f i log4z.obj
 0001:00037860       ?_Lrotate@?$_Tree_val@U?$_Tree_simple_types@U?$pair@$$CBVQString@@V1@@std@@@std@@@std@@QEAAXPEAU?$_Tree_node@U?$pair@$$CBVQString@@V1@@std@@PEAX@2@@Z 0000000140038860 f i httpdownloader.obj
 0001:00037860       ?_Lrotate@?$_Tree_val@U?$_Tree_simple_types@U?$pair@$$CBVQString@@_N@std@@@std@@@std@@QEAAXPEAU?$_Tree_node@U?$pair@$$CBVQString@@_N@std@@PEAX@2@@Z 0000000140038860 f i httpdownloader.obj
 0001:00037940       ?_Map@?$deque@PEAULogData@log4z@zsummer@@V?$allocator@PEAULogData@log4z@zsummer@@@std@@@std@@AEAAAEAPEAPEAPEAULogData@log4z@zsummer@@XZ 0000000140038940 f i log4z.obj
 0001:00037960       ?_Mapsize@?$deque@PEAULogData@log4z@zsummer@@V?$allocator@PEAULogData@log4z@zsummer@@@std@@@std@@AEAAAEA_KXZ 0000000140038960 f i log4z.obj
 0001:00037980       ?_Memcpy_val_from@?$basic_string@DU?$char_traits@D@std@@V?$allocator@D@2@@std@@AEAAXAEBV12@@Z 0000000140038980 f i log4z.obj
 0001:00037980       ?_Memcpy_val_from@?$basic_string@_WU?$char_traits@_W@std@@V?$allocator@_W@2@@std@@AEAAXAEBV12@@Z 0000000140038980 f i exception_handler.obj
 0001:000379d0       ?_Min@?$_Tree_val@U?$_Tree_simple_types@U?$pair@$$CBV?$basic_string@DU?$char_traits@D@std@@V?$allocator@D@2@@std@@ULoggerInfo@log4z@zsummer@@@std@@@std@@@std@@SAPEAU?$_Tree_node@U?$pair@$$CBV?$basic_string@DU?$char_traits@D@std@@V?$allocator@D@2@@std@@ULoggerInfo@log4z@zsummer@@@std@@PEAX@2@PEAU32@@Z 00000001400389d0 f i log4z.obj
 0001:000379d0       ?_Min@?$_Tree_val@U?$_Tree_simple_types@U?$pair@$$CBVQString@@V1@@std@@@std@@@std@@SAPEAU?$_Tree_node@U?$pair@$$CBVQString@@V1@@std@@PEAX@2@PEAU32@@Z 00000001400389d0 f i httpdownloader.obj
 0001:000379d0       ?_Min@?$_Tree_val@U?$_Tree_simple_types@U?$pair@$$CBVQString@@_N@std@@@std@@@std@@SAPEAU?$_Tree_node@U?$pair@$$CBVQString@@_N@std@@PEAX@2@PEAU32@@Z 00000001400389d0 f i httpdownloader.obj
 0001:00037a00       ?_Myoff@?$deque@PEAULogData@log4z@zsummer@@V?$allocator@PEAULogData@log4z@zsummer@@@std@@@std@@AEAAAEA_KXZ 0000000140038a00 f i log4z.obj
 0001:00037a20       ?_Mysize@?$deque@PEAULogData@log4z@zsummer@@V?$allocator@PEAULogData@log4z@zsummer@@@std@@@std@@AEAAAEA_KXZ 0000000140038a20 f i log4z.obj
 0001:00037a20       ?_Mysize@?$deque@PEAULogData@log4z@zsummer@@V?$allocator@PEAULogData@log4z@zsummer@@@std@@@std@@AEBAAEB_KXZ 0000000140038a20 f i log4z.obj
 0001:00037a40       ?_Orphan_all@?$deque@PEAULogData@log4z@zsummer@@V?$allocator@PEAULogData@log4z@zsummer@@@std@@@std@@AEAAXXZ 0000000140038a40 f i log4z.obj
 0001:00037a60       ?_Release@?$_Alloc_construct_ptr@V?$allocator@U?$_List_node@U?$pair@_JV?$basic_string@DU?$char_traits@D@std@@V?$allocator@D@2@@std@@@std@@PEAX@std@@@std@@@std@@QEAAPEAU?$_List_node@U?$pair@_JV?$basic_string@DU?$char_traits@D@std@@V?$allocator@D@2@@std@@@std@@PEAX@2@XZ 0000000140038a60 f i log4z.obj
 0001:00037a60       ?_Release@?$_Alloc_construct_ptr@V?$allocator@U?$_Tree_node@U?$pair@$$CBV?$basic_string@DU?$char_traits@D@std@@V?$allocator@D@2@@std@@H@std@@PEAX@std@@@std@@@std@@QEAAPEAU?$_Tree_node@U?$pair@$$CBV?$basic_string@DU?$char_traits@D@std@@V?$allocator@D@2@@std@@H@std@@PEAX@2@XZ 0000000140038a60 f i log4z.obj
 0001:00037a60       ?_Release@?$_Alloc_construct_ptr@V?$allocator@U?$_Tree_node@U?$pair@$$CBV?$basic_string@DU?$char_traits@D@std@@V?$allocator@D@2@@std@@ULoggerInfo@log4z@zsummer@@@std@@PEAX@std@@@std@@@std@@QEAAPEAU?$_Tree_node@U?$pair@$$CBV?$basic_string@DU?$char_traits@D@std@@V?$allocator@D@2@@std@@ULoggerInfo@log4z@zsummer@@@std@@PEAX@2@XZ 0000000140038a60 f i log4z.obj
 0001:00037a60       ?_Release@?$_Alloc_construct_ptr@V?$allocator@U?$_Tree_node@U?$pair@$$CBVQString@@V1@@std@@PEAX@std@@@std@@@std@@QEAAPEAU?$_Tree_node@U?$pair@$$CBVQString@@V1@@std@@PEAX@2@XZ 0000000140038a60 f i httpdownloader.obj
 0001:00037a60       ?_Release@?$_Alloc_construct_ptr@V?$allocator@U?$_Tree_node@U?$pair@$$CBVQString@@_N@std@@PEAX@std@@@std@@@std@@QEAAPEAU?$_Tree_node@U?$pair@$$CBVQString@@_N@std@@PEAX@2@XZ 0000000140038a60 f i httpdownloader.obj
 0001:00037a90       ?_Release@?$_Uninitialized_backout@PEAPEAPEAULogData@log4z@zsummer@@@std@@QEAAPEAPEAPEAULogData@log4z@zsummer@@XZ 0000000140038a90 f i log4z.obj
 0001:00037a90       ?_Release@?$_Uninitialized_backout_al@V?$allocator@D@std@@@std@@QEAAPEADXZ 0000000140038a90 f i string_utils.obj
 0001:00037a90       ?_Release@?$_Uninitialized_backout_al@V?$allocator@PEAULogData@log4z@zsummer@@@std@@@std@@QEAAPEAPEAULogData@log4z@zsummer@@XZ 0000000140038a90 f i log4z.obj
 0001:00037a90       ?_Release@?$_Uninitialized_backout_al@V?$allocator@PEAVExceptionHandler@google_breakpad@@@std@@@std@@QEAAPEAPEAVExceptionHandler@google_breakpad@@XZ 0000000140038a90 f i exception_handler.obj
 0001:00037a90       ?_Release@?$_Uninitialized_backout_al@V?$allocator@_W@std@@@std@@QEAAPEA_WXZ 0000000140038a90 f i string_utils.obj
 0001:00037ab0       ?_Rrotate@?$_Tree_val@U?$_Tree_simple_types@U?$pair@$$CBV?$basic_string@DU?$char_traits@D@std@@V?$allocator@D@2@@std@@H@std@@@std@@@std@@QEAAXPEAU?$_Tree_node@U?$pair@$$CBV?$basic_string@DU?$char_traits@D@std@@V?$allocator@D@2@@std@@H@std@@PEAX@2@@Z 0000000140038ab0 f i log4z.obj
 0001:00037ab0       ?_Rrotate@?$_Tree_val@U?$_Tree_simple_types@U?$pair@$$CBV?$basic_string@DU?$char_traits@D@std@@V?$allocator@D@2@@std@@ULoggerInfo@log4z@zsummer@@@std@@@std@@@std@@QEAAXPEAU?$_Tree_node@U?$pair@$$CBV?$basic_string@DU?$char_traits@D@std@@V?$allocator@D@2@@std@@ULoggerInfo@log4z@zsummer@@@std@@PEAX@2@@Z 0000000140038ab0 f i log4z.obj
 0001:00037ab0       ?_Rrotate@?$_Tree_val@U?$_Tree_simple_types@U?$pair@$$CBVQString@@V1@@std@@@std@@@std@@QEAAXPEAU?$_Tree_node@U?$pair@$$CBVQString@@V1@@std@@PEAX@2@@Z 0000000140038ab0 f i httpdownloader.obj
 0001:00037ab0       ?_Rrotate@?$_Tree_val@U?$_Tree_simple_types@U?$pair@$$CBVQString@@_N@std@@@std@@@std@@QEAAXPEAU?$_Tree_node@U?$pair@$$CBVQString@@_N@std@@PEAX@2@@Z 0000000140038ab0 f i httpdownloader.obj
 0001:00037b90       ?_Seek_to@?$_String_const_iterator@V?$_String_val@U?$_Simple_types@D@std@@@std@@@std@@QEAAXPEBD@Z 0000000140038b90 f i log4z.obj
 0001:00037bc0       ?_Swap_proxy_and_iterators@?$basic_string@DU?$char_traits@D@std@@V?$allocator@D@2@@std@@AEAAXAEAV12@@Z 0000000140038bc0 f i log4z.obj
 0001:00037bc0       ?_Swap_proxy_and_iterators@?$basic_string@_WU?$char_traits@_W@std@@V?$allocator@_W@2@@std@@AEAAXAEAV12@@Z 0000000140038bc0 f i exception_handler.obj
 0001:00037bf0       ?_Swap_proxy_and_iterators@_Container_base12@std@@QEAAXAEAU12@@Z 0000000140038bf0 f i log4z.obj
 0001:00037c20       ?_Swap_proxy_and_iterators_unlocked@_Container_base12@std@@AEAAXAEAU12@@Z 0000000140038c20 f i log4z.obj
 0001:00037ca0       ?_Swap_val@?$list@U?$pair@_JV?$basic_string@DU?$char_traits@D@std@@V?$allocator@D@2@@std@@@std@@V?$allocator@U?$pair@_JV?$basic_string@DU?$char_traits@D@std@@V?$allocator@D@2@@std@@@std@@@2@@std@@AEAAXAEAV12@@Z 0000000140038ca0 f i log4z.obj
 0001:00037d10       ?_Take_contents@?$basic_string@DU?$char_traits@D@std@@V?$allocator@D@2@@std@@AEAAXAEAV12@@Z 0000000140038d10 f i log4z.obj
 0001:00037e10       ?_Throw_tree_length_error@std@@YAXXZ 0000000140038e10 f i log4z.obj
 0001:00037e30       ?_Tidy@?$deque@PEAULogData@log4z@zsummer@@V?$allocator@PEAULogData@log4z@zsummer@@@std@@@std@@AEAAXXZ 0000000140038e30 f i log4z.obj
 0001:00037f90       ?_Tidy@?$list@U?$pair@_JV?$basic_string@DU?$char_traits@D@std@@V?$allocator@D@2@@std@@@std@@V?$allocator@U?$pair@_JV?$basic_string@DU?$char_traits@D@std@@V?$allocator@D@2@@std@@@std@@@2@@std@@AEAAXXZ 0000000140038f90 f i log4z.obj
 0001:00037ff0       ?_Tidy@?$vector@PEAULogData@log4z@zsummer@@V?$allocator@PEAULogData@log4z@zsummer@@@std@@@std@@AEAAXXZ 0000000140038ff0 f i log4z.obj
 0001:00037ff0       ?_Tidy@?$vector@PEAVExceptionHandler@google_breakpad@@V?$allocator@PEAVExceptionHandler@google_breakpad@@@std@@@std@@AEAAXXZ 0000000140038ff0 f i exception_handler.obj
 0001:000380c0       ?_Tidy_init@?$basic_string@DU?$char_traits@D@std@@V?$allocator@D@2@@std@@AEAAXXZ 00000001400390c0 f i log4z.obj
 0001:00038130       ?_Transfer_before@?$_List_node_emplace_op2@V?$allocator@U?$_List_node@U?$pair@_JV?$basic_string@DU?$char_traits@D@std@@V?$allocator@D@2@@std@@@std@@PEAX@std@@@std@@@std@@QEAAPEAU?$_List_node@U?$pair@_JV?$basic_string@DU?$char_traits@D@std@@V?$allocator@D@2@@std@@@std@@PEAX@2@QEAU32@@Z 0000000140039130 f i log4z.obj
 0001:00038130       ?_Transfer_before@?$_List_node_emplace_op2@V?$allocator@U?$_List_node@UAppMemory@google_breakpad@@PEAX@std@@@std@@@std@@QEAAPEAU?$_List_node@UAppMemory@google_breakpad@@PEAX@2@QEAU32@@Z 0000000140039130 f i exception_handler.obj
 0001:000381c0       ?_Unchecked_begin@?$deque@PEAULogData@log4z@zsummer@@V?$allocator@PEAULogData@log4z@zsummer@@@std@@@std@@QEAA?AV?$_Deque_unchecked_iterator@V?$_Deque_val@U?$_Deque_simple_types@PEAULogData@log4z@zsummer@@@std@@@std@@@2@XZ 00000001400391c0 f i log4z.obj
 0001:00038220       ?_Unchecked_begin@?$list@U?$pair@_JV?$basic_string@DU?$char_traits@D@std@@V?$allocator@D@2@@std@@@std@@V?$allocator@U?$pair@_JV?$basic_string@DU?$char_traits@D@std@@V?$allocator@D@2@@std@@@std@@@2@@std@@QEBA?AV?$_List_unchecked_const_iterator@V?$_List_val@U?$_List_simple_types@U?$pair@_JV?$basic_string@DU?$char_traits@D@std@@V?$allocator@D@2@@std@@@std@@@std@@@std@@U_Iterator_base0@2@@2@XZ 0000000140039220 f i log4z.obj
 0001:00038250       ?_Unchecked_end@?$list@U?$pair@_JV?$basic_string@DU?$char_traits@D@std@@V?$allocator@D@2@@std@@@std@@V?$allocator@U?$pair@_JV?$basic_string@DU?$char_traits@D@std@@V?$allocator@D@2@@std@@@std@@@2@@std@@QEBA?AV?$_List_unchecked_const_iterator@V?$_List_val@U?$_List_simple_types@U?$pair@_JV?$basic_string@DU?$char_traits@D@std@@V?$allocator@D@2@@std@@@std@@@std@@@std@@U_Iterator_base0@2@@2@XZ 0000000140039250 f i log4z.obj
 0001:00038280       ?_Unchecked_erase@?$list@U?$pair@_JV?$basic_string@DU?$char_traits@D@std@@V?$allocator@D@2@@std@@@std@@V?$allocator@U?$pair@_JV?$basic_string@DU?$char_traits@D@std@@V?$allocator@D@2@@std@@@std@@@2@@std@@AEAAPEAU?$_List_node@U?$pair@_JV?$basic_string@DU?$char_traits@D@std@@V?$allocator@D@2@@std@@@std@@PEAX@2@QEAU32@@Z 0000000140039280 f i log4z.obj
 0001:00038310       ?_Unwrapped@?$_String_iterator@V?$_String_val@U?$_Simple_types@D@std@@@std@@@std@@QEBAPEADXZ 0000000140039310 f i log4z.obj
 0001:00038330       ?_Xlen@?$deque@PEAULogData@log4z@zsummer@@V?$allocator@PEAULogData@log4z@zsummer@@@std@@@std@@AEBAXXZ 0000000140039330 f i log4z.obj
 0001:00038350       ?_Xlength@?$vector@DV?$allocator@D@std@@@std@@CAXXZ 0000000140039350 f i string_utils.obj
 0001:00038350       ?_Xlength@?$vector@PEAULogData@log4z@zsummer@@V?$allocator@PEAULogData@log4z@zsummer@@@std@@@std@@CAXXZ 0000000140039350 f i log4z.obj
 0001:00038350       ?_Xlength@?$vector@PEAVExceptionHandler@google_breakpad@@V?$allocator@PEAVExceptionHandler@google_breakpad@@@std@@@std@@CAXXZ 0000000140039350 f i exception_handler.obj
 0001:00038350       ?_Xlength@?$vector@_WV?$allocator@_W@std@@@std@@CAXXZ 0000000140039350 f i string_utils.obj
 0001:00038370       ?_Xran@?$_String_val@U?$_Simple_types@D@std@@@std@@SAXXZ 0000000140039370 f i log4z.obj
 0001:00038370       ?_Xran@?$_String_val@U?$_Simple_types@_W@std@@@std@@SAXXZ 0000000140039370 f i string_utils.obj
 0001:00038390       ?allocate@?$allocator@PEAPEAULogData@log4z@zsummer@@@std@@QEAAPEAPEAPEAULogData@log4z@zsummer@@_K@Z 0000000140039390 f i log4z.obj
 0001:00038390       ?allocate@?$allocator@PEAULogData@log4z@zsummer@@@std@@QEAAPEAPEAULogData@log4z@zsummer@@_K@Z 0000000140039390 f i log4z.obj
 0001:00038390       ?allocate@?$allocator@PEAVExceptionHandler@google_breakpad@@@std@@QEAAPEAPEAVExceptionHandler@google_breakpad@@_K@Z 0000000140039390 f i exception_handler.obj
 0001:000383c0       ?allocate@?$allocator@U?$_List_node@U?$pair@_JV?$basic_string@DU?$char_traits@D@std@@V?$allocator@D@2@@std@@@std@@PEAX@std@@@std@@QEAAPEAU?$_List_node@U?$pair@_JV?$basic_string@DU?$char_traits@D@std@@V?$allocator@D@2@@std@@@std@@PEAX@2@_K@Z 00000001400393c0 f i log4z.obj
 0001:000383f0       ?allocate@?$allocator@U?$_Tree_node@U?$pair@$$CBV?$basic_string@DU?$char_traits@D@std@@V?$allocator@D@2@@std@@H@std@@PEAX@std@@@std@@QEAAPEAU?$_Tree_node@U?$pair@$$CBV?$basic_string@DU?$char_traits@D@std@@V?$allocator@D@2@@std@@H@std@@PEAX@2@_K@Z 00000001400393f0 f i log4z.obj
 0001:00038420       ?allocate@?$allocator@U?$_Tree_node@U?$pair@$$CBV?$basic_string@DU?$char_traits@D@std@@V?$allocator@D@2@@std@@ULoggerInfo@log4z@zsummer@@@std@@PEAX@std@@@std@@QEAAPEAU?$_Tree_node@U?$pair@$$CBV?$basic_string@DU?$char_traits@D@std@@V?$allocator@D@2@@std@@ULoggerInfo@log4z@zsummer@@@std@@PEAX@2@_K@Z 0000000140039420 f i log4z.obj
 0001:00038450       ?allocate@?$allocator@U_Container_proxy@std@@@std@@QEAAPEAU_Container_proxy@2@_K@Z 0000000140039450 f i log4z.obj
 0001:00038480       ?append@?$basic_string@DU?$char_traits@D@std@@V?$allocator@D@2@@std@@QEAAAEAV12@QEBD@Z 0000000140039480 f i log4z.obj
 0001:000384c0       ?append@?$basic_string@DU?$char_traits@D@std@@V?$allocator@D@2@@std@@QEAAAEAV12@QEBD_K@Z 00000001400394c0 f i log4z.obj
 0001:000385c0       ?assign@?$basic_string@DU?$char_traits@D@std@@V?$allocator@D@2@@std@@QEAAAEAV12@QEBD@Z 00000001400395c0 f i log4z.obj
 0001:00038600       ?assign@?$basic_string@DU?$char_traits@D@std@@V?$allocator@D@2@@std@@QEAAAEAV12@QEBD_K@Z 0000000140039600 f i log4z.obj
 0001:000386c0       ?at@?$basic_string@DU?$char_traits@D@std@@V?$allocator@D@2@@std@@QEAAAEAD_K@Z 00000001400396c0 f i log4z.obj
 0001:00038700       ?back@?$list@U?$pair@_JV?$basic_string@DU?$char_traits@D@std@@V?$allocator@D@2@@std@@@std@@V?$allocator@U?$pair@_JV?$basic_string@DU?$char_traits@D@std@@V?$allocator@D@2@@std@@@std@@@2@@std@@QEAAAEAU?$pair@_JV?$basic_string@DU?$char_traits@D@std@@V?$allocator@D@2@@std@@@2@XZ 0000000140039700 f i log4z.obj
 0001:00038720       ?back@?$vector@PEAULogData@log4z@zsummer@@V?$allocator@PEAULogData@log4z@zsummer@@@std@@@std@@QEAAAEAPEAULogData@log4z@zsummer@@XZ 0000000140039720 f i log4z.obj
 0001:00038720       ?back@?$vector@PEAVExceptionHandler@google_breakpad@@V?$allocator@PEAVExceptionHandler@google_breakpad@@@std@@@std@@QEAAAEAPEAVExceptionHandler@google_breakpad@@XZ 0000000140039720 f i exception_handler.obj
 0001:00038750       ?begin@?$_Tree@V?$_Tmap_traits@V?$basic_string@DU?$char_traits@D@std@@V?$allocator@D@2@@std@@ULoggerInfo@log4z@zsummer@@U?$less@V?$basic_string@DU?$char_traits@D@std@@V?$allocator@D@2@@std@@@2@V?$allocator@U?$pair@$$CBV?$basic_string@DU?$char_traits@D@std@@V?$allocator@D@2@@std@@ULoggerInfo@log4z@zsummer@@@std@@@2@$0A@@std@@@std@@QEAA?AV?$_Tree_iterator@V?$_Tree_val@U?$_Tree_simple_types@U?$pair@$$CBV?$basic_string@DU?$char_traits@D@std@@V?$allocator@D@2@@std@@ULoggerInfo@log4z@zsummer@@@std@@@std@@@std@@@2@XZ 0000000140039750 f i log4z.obj
 0001:000387a0       ?begin@?$basic_string@DU?$char_traits@D@std@@V?$allocator@D@2@@std@@QEAA?AV?$_String_iterator@V?$_String_val@U?$_Simple_types@D@std@@@std@@@2@XZ 00000001400397a0 f i log4z.obj
 0001:00038800       ?capacity@?$vector@PEAULogData@log4z@zsummer@@V?$allocator@PEAULogData@log4z@zsummer@@@std@@@std@@QEBA_KXZ 0000000140039800 f i log4z.obj
 0001:00038800       ?capacity@?$vector@PEAVExceptionHandler@google_breakpad@@V?$allocator@PEAVExceptionHandler@google_breakpad@@@std@@@std@@QEBA_KXZ 0000000140039800 f i exception_handler.obj
 0001:00038830       ?clean@Log4zFileHandler@log4z@zsummer@@QEAAXHH@Z 0000000140039830 f i log4z.obj
 0001:00038840       ?clear@?$basic_string@DU?$char_traits@D@std@@V?$allocator@D@2@@std@@QEAAXXZ 0000000140039840 f i log4z.obj
 0001:00038860       ?close@Log4zFileHandler@log4z@zsummer@@QEAAXXZ 0000000140039860 f i log4z.obj
 0001:000388b0       ?compare@?$basic_string@DU?$char_traits@D@std@@V?$allocator@D@2@@std@@QEBAHAEBV12@@Z 00000001400398b0 f i log4z.obj
 0001:00038920       ?deallocate@?$_Default_allocator_traits@V?$allocator@U?$_List_node@U?$pair@_JV?$basic_string@DU?$char_traits@D@std@@V?$allocator@D@2@@std@@@std@@PEAX@std@@@std@@@std@@SAXAEAV?$allocator@U?$_List_node@U?$pair@_JV?$basic_string@DU?$char_traits@D@std@@V?$allocator@D@2@@std@@@std@@PEAX@std@@@2@QEAU?$_List_node@U?$pair@_JV?$basic_string@DU?$char_traits@D@std@@V?$allocator@D@2@@std@@@std@@PEAX@2@_K@Z 0000000140039920 f i log4z.obj
 0001:00038920       ?deallocate@?$allocator@U?$_List_node@U?$pair@_JV?$basic_string@DU?$char_traits@D@std@@V?$allocator@D@2@@std@@@std@@PEAX@std@@@std@@QEAAXQEAU?$_List_node@U?$pair@_JV?$basic_string@DU?$char_traits@D@std@@V?$allocator@D@2@@std@@@std@@PEAX@2@_K@Z 0000000140039920 f i log4z.obj
 0001:00038950       ?deallocate@?$_Default_allocator_traits@V?$allocator@U?$_Tree_node@U?$pair@$$CBV?$basic_string@DU?$char_traits@D@std@@V?$allocator@D@2@@std@@H@std@@PEAX@std@@@std@@@std@@SAXAEAV?$allocator@U?$_Tree_node@U?$pair@$$CBV?$basic_string@DU?$char_traits@D@std@@V?$allocator@D@2@@std@@H@std@@PEAX@std@@@2@QEAU?$_Tree_node@U?$pair@$$CBV?$basic_string@DU?$char_traits@D@std@@V?$allocator@D@2@@std@@H@std@@PEAX@2@_K@Z 0000000140039950 f i log4z.obj
 0001:00038950       ?deallocate@?$allocator@U?$_Tree_node@U?$pair@$$CBV?$basic_string@DU?$char_traits@D@std@@V?$allocator@D@2@@std@@H@std@@PEAX@std@@@std@@QEAAXQEAU?$_Tree_node@U?$pair@$$CBV?$basic_string@DU?$char_traits@D@std@@V?$allocator@D@2@@std@@H@std@@PEAX@2@_K@Z 0000000140039950 f i log4z.obj
 0001:00038980       ?deallocate@?$_Default_allocator_traits@V?$allocator@U?$_Tree_node@U?$pair@$$CBV?$basic_string@DU?$char_traits@D@std@@V?$allocator@D@2@@std@@ULoggerInfo@log4z@zsummer@@@std@@PEAX@std@@@std@@@std@@SAXAEAV?$allocator@U?$_Tree_node@U?$pair@$$CBV?$basic_string@DU?$char_traits@D@std@@V?$allocator@D@2@@std@@ULoggerInfo@log4z@zsummer@@@std@@PEAX@std@@@2@QEAU?$_Tree_node@U?$pair@$$CBV?$basic_string@DU?$char_traits@D@std@@V?$allocator@D@2@@std@@ULoggerInfo@log4z@zsummer@@@std@@PEAX@2@_K@Z 0000000140039980 f i log4z.obj
 0001:00038980       ?deallocate@?$allocator@U?$_Tree_node@U?$pair@$$CBV?$basic_string@DU?$char_traits@D@std@@V?$allocator@D@2@@std@@ULoggerInfo@log4z@zsummer@@@std@@PEAX@std@@@std@@QEAAXQEAU?$_Tree_node@U?$pair@$$CBV?$basic_string@DU?$char_traits@D@std@@V?$allocator@D@2@@std@@ULoggerInfo@log4z@zsummer@@@std@@PEAX@2@_K@Z 0000000140039980 f i log4z.obj
 0001:000389b0       ?deallocate@?$_Default_allocator_traits@V?$allocator@U_Container_proxy@std@@@std@@@std@@SAXAEAV?$allocator@U_Container_proxy@std@@@2@QEAU_Container_proxy@2@_K@Z 00000001400399b0 f i log4z.obj
 0001:000389e0       ?deallocate@?$allocator@PEAPEAULogData@log4z@zsummer@@@std@@QEAAXQEAPEAPEAULogData@log4z@zsummer@@_K@Z 00000001400399e0 f i log4z.obj
 0001:000389e0       ?deallocate@?$allocator@PEAULogData@log4z@zsummer@@@std@@QEAAXQEAPEAULogData@log4z@zsummer@@_K@Z 00000001400399e0 f i log4z.obj
 0001:000389e0       ?deallocate@?$allocator@PEAVExceptionHandler@google_breakpad@@@std@@QEAAXQEAPEAVExceptionHandler@google_breakpad@@_K@Z 00000001400399e0 f i exception_handler.obj
 0001:00038a10       ?empty@?$basic_string@DU?$char_traits@D@std@@V?$allocator@D@2@@std@@QEBA_NXZ 0000000140039a10 f i log4z.obj
 0001:00038a40       ?empty@?$deque@PEAULogData@log4z@zsummer@@V?$allocator@PEAULogData@log4z@zsummer@@@std@@@std@@QEBA_NXZ 0000000140039a40 f i log4z.obj
 0001:00038a80       ?empty@?$list@U?$pair@_JV?$basic_string@DU?$char_traits@D@std@@V?$allocator@D@2@@std@@@std@@V?$allocator@U?$pair@_JV?$basic_string@DU?$char_traits@D@std@@V?$allocator@D@2@@std@@@std@@@2@@std@@QEBA_NXZ 0000000140039a80 f i log4z.obj
 0001:00038ab0       ?empty@?$vector@PEAULogData@log4z@zsummer@@V?$allocator@PEAULogData@log4z@zsummer@@@std@@@std@@QEBA_NXZ 0000000140039ab0 f i log4z.obj
 0001:00038ab0       ?empty@?$vector@PEAVExceptionHandler@google_breakpad@@V?$allocator@PEAVExceptionHandler@google_breakpad@@@std@@@std@@QEBA_NXZ 0000000140039ab0 f i exception_handler.obj
 0001:00038af0       ?end@?$_Tree@V?$_Tmap_traits@V?$basic_string@DU?$char_traits@D@std@@V?$allocator@D@2@@std@@HU?$less@V?$basic_string@DU?$char_traits@D@std@@V?$allocator@D@2@@std@@@2@V?$allocator@U?$pair@$$CBV?$basic_string@DU?$char_traits@D@std@@V?$allocator@D@2@@std@@H@std@@@2@$0A@@std@@@std@@QEAA?AV?$_Tree_iterator@V?$_Tree_val@U?$_Tree_simple_types@U?$pair@$$CBV?$basic_string@DU?$char_traits@D@std@@V?$allocator@D@2@@std@@H@std@@@std@@@std@@@2@XZ 0000000140039af0 f i log4z.obj
 0001:00038af0       ?end@?$_Tree@V?$_Tmap_traits@V?$basic_string@DU?$char_traits@D@std@@V?$allocator@D@2@@std@@ULoggerInfo@log4z@zsummer@@U?$less@V?$basic_string@DU?$char_traits@D@std@@V?$allocator@D@2@@std@@@2@V?$allocator@U?$pair@$$CBV?$basic_string@DU?$char_traits@D@std@@V?$allocator@D@2@@std@@ULoggerInfo@log4z@zsummer@@@std@@@2@$0A@@std@@@std@@QEAA?AV?$_Tree_iterator@V?$_Tree_val@U?$_Tree_simple_types@U?$pair@$$CBV?$basic_string@DU?$char_traits@D@std@@V?$allocator@D@2@@std@@ULoggerInfo@log4z@zsummer@@@std@@@std@@@std@@@2@XZ 0000000140039af0 f i log4z.obj
 0001:00038af0       ?end@?$_Tree@V?$_Tmap_traits@VQString@@V1@U?$less@VQString@@@std@@V?$allocator@U?$pair@$$CBVQString@@V1@@std@@@3@$0A@@std@@@std@@QEAA?AV?$_Tree_iterator@V?$_Tree_val@U?$_Tree_simple_types@U?$pair@$$CBVQString@@V1@@std@@@std@@@std@@@2@XZ 0000000140039af0 f i httpdownloader.obj
 0001:00038af0       ?end@?$_Tree@V?$_Tmap_traits@VQString@@_NU?$less@VQString@@@std@@V?$allocator@U?$pair@$$CBVQString@@_N@std@@@3@$0A@@std@@@std@@QEAA?AV?$_Tree_iterator@V?$_Tree_val@U?$_Tree_simple_types@U?$pair@$$CBVQString@@_N@std@@@std@@@std@@@2@XZ 0000000140039af0 f i httpdownloader.obj
 0001:00038b30       ?end@?$basic_string@DU?$char_traits@D@std@@V?$allocator@D@2@@std@@QEAA?AV?$_String_iterator@V?$_String_val@U?$_Simple_types@D@std@@@std@@@2@XZ 0000000140039b30 f i log4z.obj
 0001:00038ba0       ?eq@?$_Narrow_char_traits@DH@std@@SA_NAEBD0@Z 0000000140039ba0 f i log4z.obj
 0001:00038be0       ?find@?$_Tree@V?$_Tmap_traits@V?$basic_string@DU?$char_traits@D@std@@V?$allocator@D@2@@std@@HU?$less@V?$basic_string@DU?$char_traits@D@std@@V?$allocator@D@2@@std@@@2@V?$allocator@U?$pair@$$CBV?$basic_string@DU?$char_traits@D@std@@V?$allocator@D@2@@std@@H@std@@@2@$0A@@std@@@std@@QEAA?AV?$_Tree_iterator@V?$_Tree_val@U?$_Tree_simple_types@U?$pair@$$CBV?$basic_string@DU?$char_traits@D@std@@V?$allocator@D@2@@std@@H@std@@@std@@@std@@@2@AEBV?$basic_string@DU?$char_traits@D@std@@V?$allocator@D@2@@2@@Z 0000000140039be0 f i log4z.obj
 0001:00038be0       ?find@?$_Tree@V?$_Tmap_traits@V?$basic_string@DU?$char_traits@D@std@@V?$allocator@D@2@@std@@ULoggerInfo@log4z@zsummer@@U?$less@V?$basic_string@DU?$char_traits@D@std@@V?$allocator@D@2@@std@@@2@V?$allocator@U?$pair@$$CBV?$basic_string@DU?$char_traits@D@std@@V?$allocator@D@2@@std@@ULoggerInfo@log4z@zsummer@@@std@@@2@$0A@@std@@@std@@QEAA?AV?$_Tree_iterator@V?$_Tree_val@U?$_Tree_simple_types@U?$pair@$$CBV?$basic_string@DU?$char_traits@D@std@@V?$allocator@D@2@@std@@ULoggerInfo@log4z@zsummer@@@std@@@std@@@std@@@2@AEBV?$basic_string@DU?$char_traits@D@std@@V?$allocator@D@2@@2@@Z 0000000140039be0 f i log4z.obj
 0001:00038c40       ?find@?$basic_string@DU?$char_traits@D@std@@V?$allocator@D@2@@std@@QEBA_KD_K@Z 0000000140039c40 f i log4z.obj
 0001:00038ca0       ?find@?$basic_string@DU?$char_traits@D@std@@V?$allocator@D@2@@std@@QEBA_KQEBD_K@Z 0000000140039ca0 f i log4z.obj
 0001:00038d10       ?flush@Log4zFileHandler@log4z@zsummer@@QEAAXXZ 0000000140039d10 f i log4z.obj
 0001:00038d40       ?front@?$deque@PEAULogData@log4z@zsummer@@V?$allocator@PEAULogData@log4z@zsummer@@@std@@@std@@QEAAAEAPEAULogData@log4z@zsummer@@XZ 0000000140039d40 f i log4z.obj
 0001:00038d70       ?front@?$list@U?$pair@_JV?$basic_string@DU?$char_traits@D@std@@V?$allocator@D@2@@std@@@std@@V?$allocator@U?$pair@_JV?$basic_string@DU?$char_traits@D@std@@V?$allocator@D@2@@std@@@std@@@2@@std@@QEAAAEAU?$pair@_JV?$basic_string@DU?$char_traits@D@std@@V?$allocator@D@2@@std@@@2@XZ 0000000140039d70 f i log4z.obj
 0001:00038d70       ?front@?$list@UAppMemory@google_breakpad@@V?$allocator@UAppMemory@google_breakpad@@@std@@@std@@QEAAAEAUAppMemory@google_breakpad@@XZ 0000000140039d70 f i exception_handler.obj
 0001:00038d90       ?getCurrentLen@Log4zStream@log4z@zsummer@@QEAAHXZ 0000000140039d90 f i log4z.obj
 0001:00038db0       ?getPtr@ILog4zManager@log4z@zsummer@@SAPEAV123@XZ 0000000140039db0 f i log4z.obj
 0001:00038dc0       ?getStatusTotalPopQueue@LogerManager@log4z@zsummer@@UEAA_KXZ 0000000140039dc0 f i log4z.obj
 0001:00038de0       ?getStatusTotalPushQueue@LogerManager@log4z@zsummer@@UEAA_KXZ 0000000140039de0 f i log4z.obj
 0001:00038e00       ?getStatusTotalWriteBytes@LogerManager@log4z@zsummer@@UEAA_KXZ 0000000140039e00 f i log4z.obj
 0001:00038e20       ?getStatusTotalWriteCount@LogerManager@log4z@zsummer@@UEAA_KXZ 0000000140039e20 f i log4z.obj
 0001:00038e40       ?isOpen@Log4zFileHandler@log4z@zsummer@@QEAA_NXZ 0000000140039e40 f i log4z.obj
 0001:00038e70       ?max_size@?$_Default_allocator_traits@V?$allocator@PEAULogData@log4z@zsummer@@@std@@@std@@SA_KAEBV?$allocator@PEAULogData@log4z@zsummer@@@2@@Z 0000000140039e70 f i log4z.obj
 0001:00038e70       ?max_size@?$_Default_allocator_traits@V?$allocator@PEAVExceptionHandler@google_breakpad@@@std@@@std@@SA_KAEBV?$allocator@PEAVExceptionHandler@google_breakpad@@@2@@Z 0000000140039e70 f i exception_handler.obj
 0001:00038e80       ?max_size@?$_Default_allocator_traits@V?$allocator@U?$_List_node@U?$pair@_JV?$basic_string@DU?$char_traits@D@std@@V?$allocator@D@2@@std@@@std@@PEAX@std@@@std@@@std@@SA_KAEBV?$allocator@U?$_List_node@U?$pair@_JV?$basic_string@DU?$char_traits@D@std@@V?$allocator@D@2@@std@@@std@@PEAX@std@@@2@@Z 0000000140039e80 f i log4z.obj
 0001:00038e90       ?max_size@?$_Default_allocator_traits@V?$allocator@U?$_Tree_node@U?$pair@$$CBV?$basic_string@DU?$char_traits@D@std@@V?$allocator@D@2@@std@@H@std@@PEAX@std@@@std@@@std@@SA_KAEBV?$allocator@U?$_Tree_node@U?$pair@$$CBV?$basic_string@DU?$char_traits@D@std@@V?$allocator@D@2@@std@@H@std@@PEAX@std@@@2@@Z 0000000140039e90 f i log4z.obj
 0001:00038ea0       ?max_size@?$_Default_allocator_traits@V?$allocator@U?$_Tree_node@U?$pair@$$CBV?$basic_string@DU?$char_traits@D@std@@V?$allocator@D@2@@std@@ULoggerInfo@log4z@zsummer@@@std@@PEAX@std@@@std@@@std@@SA_KAEBV?$allocator@U?$_Tree_node@U?$pair@$$CBV?$basic_string@DU?$char_traits@D@std@@V?$allocator@D@2@@std@@ULoggerInfo@log4z@zsummer@@@std@@PEAX@std@@@2@@Z 0000000140039ea0 f i log4z.obj
 0001:00038eb0       ?max_size@?$_Tree@V?$_Tmap_traits@V?$basic_string@DU?$char_traits@D@std@@V?$allocator@D@2@@std@@HU?$less@V?$basic_string@DU?$char_traits@D@std@@V?$allocator@D@2@@std@@@2@V?$allocator@U?$pair@$$CBV?$basic_string@DU?$char_traits@D@std@@V?$allocator@D@2@@std@@H@std@@@2@$0A@@std@@@std@@QEBA_KXZ 0000000140039eb0 f i log4z.obj
 0001:00038f00       ?max_size@?$_Tree@V?$_Tmap_traits@V?$basic_string@DU?$char_traits@D@std@@V?$allocator@D@2@@std@@ULoggerInfo@log4z@zsummer@@U?$less@V?$basic_string@DU?$char_traits@D@std@@V?$allocator@D@2@@std@@@2@V?$allocator@U?$pair@$$CBV?$basic_string@DU?$char_traits@D@std@@V?$allocator@D@2@@std@@ULoggerInfo@log4z@zsummer@@@std@@@2@$0A@@std@@@std@@QEBA_KXZ 0000000140039f00 f i log4z.obj
 0001:00038f50       ?max_size@?$deque@PEAULogData@log4z@zsummer@@V?$allocator@PEAULogData@log4z@zsummer@@@std@@@std@@QEBA_KXZ 0000000140039f50 f i log4z.obj
 0001:00038f50       ?max_size@?$vector@PEAULogData@log4z@zsummer@@V?$allocator@PEAULogData@log4z@zsummer@@@std@@@std@@QEBA_KXZ 0000000140039f50 f i log4z.obj
 0001:00038f50       ?max_size@?$vector@PEAVExceptionHandler@google_breakpad@@V?$allocator@PEAVExceptionHandler@google_breakpad@@@std@@@std@@QEBA_KXZ 0000000140039f50 f i exception_handler.obj
 0001:00038fa0       ?max_size@?$list@U?$pair@_JV?$basic_string@DU?$char_traits@D@std@@V?$allocator@D@2@@std@@@std@@V?$allocator@U?$pair@_JV?$basic_string@DU?$char_traits@D@std@@V?$allocator@D@2@@std@@@std@@@2@@std@@QEBA_KXZ 0000000140039fa0 f i log4z.obj
 0001:00038ff0       ?open@Log4zFileHandler@log4z@zsummer@@QEAAJPEBD0@Z 0000000140039ff0 f i log4z.obj
 0001:000390c0       ?pointer_to@?$pointer_traits@PEAU?$pair@$$CBV?$basic_string@DU?$char_traits@D@std@@V?$allocator@D@2@@std@@H@std@@@std@@SAPEAU?$pair@$$CBV?$basic_string@DU?$char_traits@D@std@@V?$allocator@D@2@@std@@H@2@AEAU32@@Z 000000014003a0c0 f i log4z.obj
 0001:000390c0       ?pointer_to@?$pointer_traits@PEAU?$pair@$$CBV?$basic_string@DU?$char_traits@D@std@@V?$allocator@D@2@@std@@ULoggerInfo@log4z@zsummer@@@std@@@std@@SAPEAU?$pair@$$CBV?$basic_string@DU?$char_traits@D@std@@V?$allocator@D@2@@std@@ULoggerInfo@log4z@zsummer@@@2@AEAU32@@Z 000000014003a0c0 f i log4z.obj
 0001:000390c0       ?pointer_to@?$pointer_traits@PEAU?$pair@$$CBVQString@@V1@@std@@@std@@SAPEAU?$pair@$$CBVQString@@V1@@2@AEAU32@@Z 000000014003a0c0 f i httpdownloader.obj
 0001:000390c0       ?pointer_to@?$pointer_traits@PEBU?$pair@$$CBVQString@@_N@std@@@std@@SAPEBU?$pair@$$CBVQString@@_N@2@AEBU32@@Z 000000014003a0c0 f i httpdownloader.obj
 0001:000390c0       ?pointer_to@?$pointer_traits@PEBUAppMemory@google_breakpad@@@std@@SAPEBUAppMemory@google_breakpad@@AEBU34@@Z 000000014003a0c0 f i exception_handler.obj
 0001:000390e0       ?pop_back@?$deque@PEAULogData@log4z@zsummer@@V?$allocator@PEAULogData@log4z@zsummer@@@std@@@std@@QEAAXXZ 000000014003a0e0 f i log4z.obj
 0001:000391d0       ?pop_back@?$vector@PEAULogData@log4z@zsummer@@V?$allocator@PEAULogData@log4z@zsummer@@@std@@@std@@QEAAXXZ 000000014003a1d0 f i log4z.obj
 0001:000391d0       ?pop_back@?$vector@PEAVExceptionHandler@google_breakpad@@V?$allocator@PEAVExceptionHandler@google_breakpad@@@std@@@std@@QEAAXXZ 000000014003a1d0 f i exception_handler.obj
 0001:00039270       ?pop_front@?$deque@PEAULogData@log4z@zsummer@@V?$allocator@PEAULogData@log4z@zsummer@@@std@@@std@@QEAAXXZ 000000014003a270 f i log4z.obj
 0001:00039370       ?pop_front@?$list@U?$pair@_JV?$basic_string@DU?$char_traits@D@std@@V?$allocator@D@2@@std@@@std@@V?$allocator@U?$pair@_JV?$basic_string@DU?$char_traits@D@std@@V?$allocator@D@2@@std@@@std@@@2@@std@@QEAAXXZ 000000014003a370 f i log4z.obj
 0001:000393a0       ?push_back@?$deque@PEAULogData@log4z@zsummer@@V?$allocator@PEAULogData@log4z@zsummer@@@std@@@std@@QEAAXAEBQEAULogData@log4z@zsummer@@@Z 000000014003a3a0 f i log4z.obj
 0001:000393d0       ?push_back@?$list@U?$pair@_JV?$basic_string@DU?$char_traits@D@std@@V?$allocator@D@2@@std@@@std@@V?$allocator@U?$pair@_JV?$basic_string@DU?$char_traits@D@std@@V?$allocator@D@2@@std@@@std@@@2@@std@@QEAAX$$QEAU?$pair@_JV?$basic_string@DU?$char_traits@D@std@@V?$allocator@D@2@@std@@@2@@Z 000000014003a3d0 f i log4z.obj
 0001:00039420       ?push_back@?$vector@PEAULogData@log4z@zsummer@@V?$allocator@PEAULogData@log4z@zsummer@@@std@@@std@@QEAAXAEBQEAULogData@log4z@zsummer@@@Z 000000014003a420 f i log4z.obj
 0001:00039450       ?readContent@Log4zFileHandler@log4z@zsummer@@QEAA?BV?$basic_string@DU?$char_traits@D@std@@V?$allocator@D@2@@std@@XZ 000000014003a450 f i log4z.obj
 0001:00039570       ?removeFile@Log4zFileHandler@log4z@zsummer@@QEAA_NAEBV?$basic_string@DU?$char_traits@D@std@@V?$allocator@D@2@@std@@@Z 000000014003a570 f i log4z.obj
 0001:000395c0       ?rfind@?$basic_string@DU?$char_traits@D@std@@V?$allocator@D@2@@std@@QEBA_KQEBD_K@Z 000000014003a5c0 f i log4z.obj
 0001:00039630       ?size@?$deque@PEAULogData@log4z@zsummer@@V?$allocator@PEAULogData@log4z@zsummer@@@std@@@std@@QEBA_KXZ 000000014003a630 f i log4z.obj
 0001:00039650       ?size@?$vector@PEAULogData@log4z@zsummer@@V?$allocator@PEAULogData@log4z@zsummer@@@std@@@std@@QEBA_KXZ 000000014003a650 f i log4z.obj
 0001:00039650       ?size@?$vector@PEAVExceptionHandler@google_breakpad@@V?$allocator@PEAVExceptionHandler@google_breakpad@@@std@@@std@@QEBA_KXZ 000000014003a650 f i exception_handler.obj
 0001:00039680       ?substr@?$basic_string@DU?$char_traits@D@std@@V?$allocator@D@2@@std@@QEBA?AV12@_K0@Z 000000014003a680 f i log4z.obj
 0001:000396e0       ?swap@?$deque@PEAULogData@log4z@zsummer@@V?$allocator@PEAULogData@log4z@zsummer@@@std@@@std@@QEAAXAEAV12@@Z 000000014003a6e0 f i log4z.obj
 0001:000397d0       ?write@Log4zFileHandler@log4z@zsummer@@QEAAXPEBD_K@Z 000000014003a7d0 f i log4z.obj
 0001:00039830       ?writeChar@Log4zStream@log4z@zsummer@@QEAAAEAV123@D@Z 000000014003a830 f i log4z.obj
 0001:00039890       ?writeLongLong@Log4zStream@log4z@zsummer@@QEAAAEAV123@_JHH@Z 000000014003a890 f i log4z.obj
 0001:000398f0       ?writeString@Log4zStream@log4z@zsummer@@QEAAAEAV123@PEBD@Z 000000014003a8f0 f i log4z.obj
 0001:00039920       ?writeString@Log4zStream@log4z@zsummer@@QEAAAEAV123@PEBD_K@Z 000000014003a920 f i log4z.obj
 0001:000399b0       ?writeULongLong@Log4zStream@log4z@zsummer@@QEAAAEAV123@_KHH@Z 000000014003a9b0 f i log4z.obj
 0001:00039cd0       __local_stdio_printf_options 000000014003acd0 f i log4z.obj
 0001:00039ce0       _vfprintf_l                000000014003ace0 f i log4z.obj
 0001:00039d30       _vsnprintf_l               000000014003ad30 f i log4z.obj
 0001:00039db0       _vsprintf_l                000000014003adb0 f i log4z.obj
 0001:00039e00       printf                     000000014003ae00 f i log4z.obj
 0001:00039e70       sprintf                    000000014003ae70 f i log4z.obj
 0001:00039ec0       ??0RollTitles@@QEAA@PEAVQWidget@@@Z 000000014003aec0 f   rolltitles.obj
 0001:00039f60       ?SetTitle@RollTitles@@QEAAXVQString@@@Z 000000014003af60 f   rolltitles.obj
 0001:00039fb0       ?paintEvent@RollTitles@@EEAAXPEAVQPaintEvent@@@Z 000000014003afb0 f   rolltitles.obj
 0001:0003a1d0       ?timerEvent@RollTitles@@EEAAXPEAVQTimerEvent@@@Z 000000014003b1d0 f   rolltitles.obj
 0001:0003a320       ?resizeEvent@RollTitles@@EEAAXPEAVQResizeEvent@@@Z 000000014003b320 f   rolltitles.obj
 0001:0003a360       ?showEvent@RollTitles@@EEAAXPEAVQShowEvent@@@Z 000000014003b360 f   rolltitles.obj
 0001:0003a390       ?hideEvent@RollTitles@@EEAAXPEAVQHideEvent@@@Z 000000014003b390 f   rolltitles.obj
 0001:0003a3e0       ?UpdateRollingState@RollTitles@@AEAAXXZ 000000014003b3e0 f   rolltitles.obj
 0001:0003a4e0       ??H@YA?AVQString@@AEBV0@0@Z 000000014003b4e0 f i rolltitles.obj
 0001:0003a538       ??_ERollTitles@@WBA@EAAPEAXI@Z 000000014003b538 f i rolltitles.obj
 0001:0003a550       ??_ERollTitles@@UEAAPEAXI@Z 000000014003b550 f i rolltitles.obj
 0001:0003a550       ??_GRollTitles@@UEAAPEAXI@Z 000000014003b550 f i rolltitles.obj
 0001:0003a590       ??0LineProgress@@QEAA@PEAVQWidget@@@Z 000000014003b590 f   lineprogress.obj
 0001:0003a610       ?SetValue@LineProgress@@QEAAXHH@Z 000000014003b610 f   lineprogress.obj
 0001:0003a650       ?paintEvent@LineProgress@@EEAAXPEAVQPaintEvent@@@Z 000000014003b650 f   lineprogress.obj
 0001:0003a830       ??0CSlider@@QEAA@PEAVQWidget@@@Z 000000014003b830 f   slider.obj
 0001:0003a970       ?SetRange@CSlider@@QEAAXHH@Z 000000014003b970 f   slider.obj
 0001:0003a9e0       ?SetStep@CSlider@@QEAAXH@Z 000000014003b9e0 f   slider.obj
 0001:0003aa10       ?SetPos@CSlider@@QEAAXHH@Z 000000014003ba10 f   slider.obj
 0001:0003aa70       ?SetCurPos@CSlider@@QEAAXH@Z 000000014003ba70 f   slider.obj
 0001:0003aac0       ?paintEvent@CSlider@@MEAAXPEAVQPaintEvent@@@Z 000000014003bac0 f   slider.obj
 0001:0003b8c0       ?resizeEvent@CSlider@@MEAAXPEAVQResizeEvent@@@Z 000000014003c8c0 f   slider.obj
 0001:0003b8f0       ?mouseMoveEvent@CSlider@@MEAAXPEAVQMouseEvent@@@Z 000000014003c8f0 f   slider.obj
 0001:0003bd40       ?mousePressEvent@CSlider@@MEAAXPEAVQMouseEvent@@@Z 000000014003cd40 f   slider.obj
 0001:0003c000       ?mouseReleaseEvent@CSlider@@MEAAXPEAVQMouseEvent@@@Z 000000014003d000 f   slider.obj
 0001:0003c040       ?enterEvent@CSlider@@IEAAXPEAVQEvent@@@Z 000000014003d040 f   slider.obj
 0001:0003c070       ?leaveEvent@CSlider@@MEAAXPEAVQEvent@@@Z 000000014003d070 f   slider.obj
 0001:0003c0a0       ?UpdateItemList@CSlider@@AEAAXXZ 000000014003d0a0 f   slider.obj
 0001:0003c360       ?GetStartValue@CSlider@@AEAA?AUTItemRect@1@XZ 000000014003d360 f   slider.obj
 0001:0003c410       ?GetEndValue@CSlider@@AEAA?AUTItemRect@1@XZ 000000014003d410 f   slider.obj
 0001:0003c4c0       ?GetStartAndEndValue@CSlider@@AEAA_NAEAUTItemRect@1@0@Z 000000014003d4c0 f   slider.obj
 0001:0003c5d0       ?UpdateStartValue@CSlider@@AEAAXVQPoint@@@Z 000000014003d5d0 f   slider.obj
 0001:0003c7f0       ?UpdateEndValue@CSlider@@AEAAXVQPoint@@@Z 000000014003d7f0 f   slider.obj
 0001:0003ca40       ?GetValueByPos@CSlider@@AEAAHVQPoint@@@Z 000000014003da40 f   slider.obj
 0001:0003cea0       ??$?0AEAPEAU?$_Tree_node@U?$pair@$$CBVQString@@V1@@std@@PEAX@std@@AEAPEAU01@$0A@@?$pair@PEAU?$_Tree_node@U?$pair@$$CBVQString@@V1@@std@@PEAX@std@@PEAU12@@std@@QEAA@AEAPEAU?$_Tree_node@U?$pair@$$CBVQString@@V1@@std@@PEAX@1@0@Z 000000014003dea0 f i httpdownloader.obj
 0001:0003cea0       ??$?0AEAPEAU?$_Tree_node@U?$pair@$$CBVQString@@_N@std@@PEAX@std@@AEAPEAU01@$0A@@?$pair@PEAU?$_Tree_node@U?$pair@$$CBVQString@@_N@std@@PEAX@std@@PEAU12@@std@@QEAA@AEAPEAU?$_Tree_node@U?$pair@$$CBVQString@@_N@std@@PEAX@1@0@Z 000000014003dea0 f i httpdownloader.obj
 0001:0003cea0       ??$?0PEAU?$QTypedArrayData@PEAVQWidget@@@@PEAPEAVQWidget@@$0A@@?$pair@PEAU?$QTypedArrayData@PEAVQWidget@@@@PEAPEAVQWidget@@@std@@QEAA@$$QEAPEAU?$QTypedArrayData@PEAVQWidget@@@@$$QEAPEAPEAVQWidget@@@Z 000000014003dea0 f i FramelessHelper.obj
 0001:0003cea0       ??$?0PEAU?$QTypedArrayData@PEAVWidgetData@@@@PEAPEAVWidgetData@@$0A@@?$pair@PEAU?$QTypedArrayData@PEAVWidgetData@@@@PEAPEAVWidgetData@@@std@@QEAA@$$QEAPEAU?$QTypedArrayData@PEAVWidgetData@@@@$$QEAPEAPEAVWidgetData@@@Z 000000014003dea0 f i FramelessHelper.obj
 0001:0003cea0       ??$?0PEAU?$QTypedArrayData@UTItemRect@CSlider@@@@PEAUTItemRect@CSlider@@$0A@@?$pair@PEAU?$QTypedArrayData@UTItemRect@CSlider@@@@PEAUTItemRect@CSlider@@@std@@QEAA@$$QEAPEAU?$QTypedArrayData@UTItemRect@CSlider@@@@$$QEAPEAUTItemRect@CSlider@@@Z 000000014003dea0 f i slider.obj
 0001:0003cea0       ??$?0PEAU?$QTypedArrayData@UTNoteItem@NotificationMgr@@@@PEAUTNoteItem@NotificationMgr@@$0A@@?$pair@PEAU?$QTypedArrayData@UTNoteItem@NotificationMgr@@@@PEAUTNoteItem@NotificationMgr@@@std@@QEAA@$$QEAPEAU?$QTypedArrayData@UTNoteItem@NotificationMgr@@@@$$QEAPEAUTNoteItem@NotificationMgr@@@Z 000000014003dea0 f i notificationpane.obj
 0001:0003cea0       ??$?0PEAU?$QTypedArrayData@VQPixmap@@@@PEAVQPixmap@@$0A@@?$pair@PEAU?$QTypedArrayData@VQPixmap@@@@PEAVQPixmap@@@std@@QEAA@$$QEAPEAU?$QTypedArrayData@VQPixmap@@@@$$QEAPEAVQPixmap@@@Z 000000014003dea0 f i moviepicwidget.obj
 0001:0003cea0       ??$?0PEAU?$QTypedArrayData@VQPoint@@@@PEAVQPoint@@$0A@@?$pair@PEAU?$QTypedArrayData@VQPoint@@@@PEAVQPoint@@@std@@QEAA@$$QEAPEAU?$QTypedArrayData@VQPoint@@@@$$QEAPEAVQPoint@@@Z 000000014003dea0 f i slider.obj
 0001:0003cea0       ??$?0PEAU?$QTypedArrayData@VQString@@@@PEAVQString@@$0A@@?$pair@PEAU?$QTypedArrayData@VQString@@@@PEAVQString@@@std@@QEAA@$$QEAPEAU?$QTypedArrayData@VQString@@@@$$QEAPEAVQString@@@Z 000000014003dea0 f i keyhelper.obj
 0001:0003cea0       ??$?0PEAU?$QTypedArrayData@_K@@PEA_K$0A@@?$pair@PEAU?$QTypedArrayData@_K@@PEA_K@std@@QEAA@$$QEAPEAU?$QTypedArrayData@_K@@$$QEAPEA_K@Z 000000014003dea0 f i qxtwindowsystem_win.obj
 0001:0003cef0       ??$?GH@iterator@?$QList@UTItemRect@CSlider@@@@QEBA?AV01@H@Z 000000014003def0 f i slider.obj
 0001:0003cef0       ??$?GH@iterator@?$QList@UTNoteItem@NotificationMgr@@@@QEBA?AV01@H@Z 000000014003def0 f i notificationpane.obj
 0001:0003cf40       ??$?GH@iterator@?$QList@VQPoint@@@@QEBA?AV01@H@Z 000000014003df40 f i slider.obj
 0001:0003cf40       ??$?GH@iterator@?$QList@_K@@QEBA?AV01@H@Z 000000014003df40 f i qxtwindowsystem_win.obj
 0001:0003cf90       ??$?RAEAPEBUTItemRect@CSlider@@AEAPEBU01@@?$less@X@std@@QEBA_NAEAPEBUTItemRect@CSlider@@0@Z 000000014003df90 f i slider.obj
 0001:0003cf90       ??$?RAEAPEBUTNoteItem@NotificationMgr@@AEAPEBU01@@?$less@X@std@@QEBA_NAEAPEBUTNoteItem@NotificationMgr@@0@Z 000000014003df90 f i notificationpane.obj
 0001:0003cf90       ??$?RAEAPEBVQPoint@@AEAPEBV0@@?$less@X@std@@QEBA_NAEAPEBVQPoint@@0@Z 000000014003df90 f i slider.obj
 0001:0003cf90       ??$?RAEAPEBVQString@@AEAPEBV0@@?$less@X@std@@QEBA_NAEAPEBVQString@@0@Z 000000014003df90 f i httpdownloader.obj
 0001:0003cf90       ??$?RAEAPEB_KAEAPEB_K@?$less@X@std@@QEBA_NAEAPEB_K0@Z 000000014003df90 f i qxtwindowsystem_win.obj
 0001:0003cfd0       ??$begin@U?$QArrayDataPointer@UTItemRect@CSlider@@@@@std@@YAPEBUTItemRect@CSlider@@AEBU?$QArrayDataPointer@UTItemRect@CSlider@@@@@Z 000000014003dfd0 f i slider.obj
 0001:0003cfd0       ??$begin@U?$QArrayDataPointer@UTNoteItem@NotificationMgr@@@@@std@@YAPEBUTNoteItem@NotificationMgr@@AEBU?$QArrayDataPointer@UTNoteItem@NotificationMgr@@@@@Z 000000014003dfd0 f i notificationpane.obj
 0001:0003cfd0       ??$begin@U?$QArrayDataPointer@VQPoint@@@@@std@@YAPEBVQPoint@@AEBU?$QArrayDataPointer@VQPoint@@@@@Z 000000014003dfd0 f i slider.obj
 0001:0003cfd0       ??$begin@U?$QArrayDataPointer@VQString@@@@@std@@YAPEBVQString@@AEBU?$QArrayDataPointer@VQString@@@@@Z 000000014003dfd0 f i httpdownloader.obj
 0001:0003cfd0       ??$begin@U?$QArrayDataPointer@_K@@@std@@YAPEB_KAEBU?$QArrayDataPointer@_K@@@Z 000000014003dfd0 f i qxtwindowsystem_win.obj
 0001:0003cff0       ??$destroy@PEAUTItemRect@CSlider@@@std@@YAXQEAUTItemRect@CSlider@@0@Z 000000014003dff0 f i slider.obj
 0001:0003cff0       ??$destroy@PEAUTNoteItem@NotificationMgr@@@std@@YAXQEAUTNoteItem@NotificationMgr@@0@Z 000000014003dff0 f i notificationpane.obj
 0001:0003d040       ??$distance@PEBUTItemRect@CSlider@@@std@@YA_JPEBUTItemRect@CSlider@@0@Z 000000014003e040 f i slider.obj
 0001:0003d040       ??$distance@PEBUTNoteItem@NotificationMgr@@@std@@YA_JPEBUTNoteItem@NotificationMgr@@0@Z 000000014003e040 f i notificationpane.obj
 0001:0003d070       ??$distance@PEBVQPoint@@@std@@YA_JPEBVQPoint@@0@Z 000000014003e070 f i slider.obj
 0001:0003d070       ??$distance@PEB_K@std@@YA_JPEB_K0@Z 000000014003e070 f i qxtwindowsystem_win.obj
 0001:0003d090       ??$emplace@AEBUTItemRect@CSlider@@@?$QMovableArrayOps@UTItemRect@CSlider@@@QtPrivate@@QEAAX_JAEBUTItemRect@CSlider@@@Z 000000014003e090 f i slider.obj
 0001:0003d370       ??$emplace@VQPoint@@@?$QPodArrayOps@VQPoint@@@QtPrivate@@QEAAX_J$$QEAVQPoint@@@Z 000000014003e370 f i slider.obj
 0001:0003d530       ??$emplaceBack@AEBUTItemRect@CSlider@@@?$QList@UTItemRect@CSlider@@@@QEAAAEAUTItemRect@CSlider@@AEBU12@@Z 000000014003e530 f i slider.obj
 0001:0003d5c0       ??$emplaceBack@VQPoint@@@?$QList@VQPoint@@@@QEAAAEAVQPoint@@$$QEAV1@@Z 000000014003e5c0 f i slider.obj
 0001:0003d650       ??$end@U?$QArrayDataPointer@UTItemRect@CSlider@@@@@std@@YAPEBUTItemRect@CSlider@@AEBU?$QArrayDataPointer@UTItemRect@CSlider@@@@@Z 000000014003e650 f i slider.obj
 0001:0003d650       ??$end@U?$QArrayDataPointer@UTNoteItem@NotificationMgr@@@@@std@@YAPEBUTNoteItem@NotificationMgr@@AEBU?$QArrayDataPointer@UTNoteItem@NotificationMgr@@@@@Z 000000014003e650 f i notificationpane.obj
 0001:0003d670       ??$end@U?$QArrayDataPointer@VQPoint@@@@@std@@YAPEBVQPoint@@AEBU?$QArrayDataPointer@VQPoint@@@@@Z 000000014003e670 f i slider.obj
 0001:0003d670       ??$end@U?$QArrayDataPointer@_K@@@std@@YAPEB_KAEBU?$QArrayDataPointer@_K@@@Z 000000014003e670 f i qxtwindowsystem_win.obj
 0001:0003d690       ??$get@$00PEAU?$QTypedArrayData@PEAVQWidget@@@@PEAPEAVQWidget@@@std@@YA$$QEAPEAPEAVQWidget@@$$QEAU?$pair@PEAU?$QTypedArrayData@PEAVQWidget@@@@PEAPEAVQWidget@@@0@@Z 000000014003e690 f i FramelessHelper.obj
 0001:0003d690       ??$get@$00PEAU?$QTypedArrayData@UTItemRect@CSlider@@@@PEAUTItemRect@CSlider@@@std@@YA$$QEAPEAUTItemRect@CSlider@@$$QEAU?$pair@PEAU?$QTypedArrayData@UTItemRect@CSlider@@@@PEAUTItemRect@CSlider@@@0@@Z 000000014003e690 f i slider.obj
 0001:0003d690       ??$get@$00PEAU?$QTypedArrayData@UTNoteItem@NotificationMgr@@@@PEAUTNoteItem@NotificationMgr@@@std@@YA$$QEAPEAUTNoteItem@NotificationMgr@@$$QEAU?$pair@PEAU?$QTypedArrayData@UTNoteItem@NotificationMgr@@@@PEAUTNoteItem@NotificationMgr@@@0@@Z 000000014003e690 f i notificationpane.obj
 0001:0003d690       ??$get@$00PEAU?$QTypedArrayData@VQPixmap@@@@PEAVQPixmap@@@std@@YA$$QEAPEAVQPixmap@@$$QEAU?$pair@PEAU?$QTypedArrayData@VQPixmap@@@@PEAVQPixmap@@@0@@Z 000000014003e690 f i moviepicwidget.obj
 0001:0003d690       ??$get@$00PEAU?$QTypedArrayData@VQPoint@@@@PEAVQPoint@@@std@@YA$$QEAPEAVQPoint@@$$QEAU?$pair@PEAU?$QTypedArrayData@VQPoint@@@@PEAVQPoint@@@0@@Z 000000014003e690 f i slider.obj
 0001:0003d690       ??$get@$00PEAU?$QTypedArrayData@VQString@@@@PEAVQString@@@std@@YA$$QEAPEAVQString@@$$QEAU?$pair@PEAU?$QTypedArrayData@VQString@@@@PEAVQString@@@0@@Z 000000014003e690 f i keyhelper.obj
 0001:0003d690       ??$get@$00PEAU?$QTypedArrayData@_K@@PEA_K@std@@YA$$QEAPEA_K$$QEAU?$pair@PEAU?$QTypedArrayData@_K@@PEA_K@0@@Z 000000014003e690 f i qxtwindowsystem_win.obj
 0001:0003d690       ?takeValue@?$Node@PEAVQWidget@@PEAVWidgetData@@@QHashPrivate@@QEAA$$QEAPEAVWidgetData@@XZ 000000014003e690 f i FramelessHelper.obj
 0001:0003d6b0       ??$make_pair@PEAU?$QTypedArrayData@PEAVQWidget@@@@PEAPEAVQWidget@@@std@@YA?AU?$pair@PEAU?$QTypedArrayData@PEAVQWidget@@@@PEAPEAVQWidget@@@0@$$QEAPEAU?$QTypedArrayData@PEAVQWidget@@@@$$QEAPEAPEAVQWidget@@@Z 000000014003e6b0 f i FramelessHelper.obj
 0001:0003d6b0       ??$make_pair@PEAU?$QTypedArrayData@PEAVWidgetData@@@@PEAPEAVWidgetData@@@std@@YA?AU?$pair@PEAU?$QTypedArrayData@PEAVWidgetData@@@@PEAPEAVWidgetData@@@0@$$QEAPEAU?$QTypedArrayData@PEAVWidgetData@@@@$$QEAPEAPEAVWidgetData@@@Z 000000014003e6b0 f i FramelessHelper.obj
 0001:0003d6b0       ??$make_pair@PEAU?$QTypedArrayData@UTItemRect@CSlider@@@@PEAUTItemRect@CSlider@@@std@@YA?AU?$pair@PEAU?$QTypedArrayData@UTItemRect@CSlider@@@@PEAUTItemRect@CSlider@@@0@$$QEAPEAU?$QTypedArrayData@UTItemRect@CSlider@@@@$$QEAPEAUTItemRect@CSlider@@@Z 000000014003e6b0 f i slider.obj
 0001:0003d6b0       ??$make_pair@PEAU?$QTypedArrayData@UTNoteItem@NotificationMgr@@@@PEAUTNoteItem@NotificationMgr@@@std@@YA?AU?$pair@PEAU?$QTypedArrayData@UTNoteItem@NotificationMgr@@@@PEAUTNoteItem@NotificationMgr@@@0@$$QEAPEAU?$QTypedArrayData@UTNoteItem@NotificationMgr@@@@$$QEAPEAUTNoteItem@NotificationMgr@@@Z 000000014003e6b0 f i notificationpane.obj
 0001:0003d6b0       ??$make_pair@PEAU?$QTypedArrayData@VQPixmap@@@@PEAVQPixmap@@@std@@YA?AU?$pair@PEAU?$QTypedArrayData@VQPixmap@@@@PEAVQPixmap@@@0@$$QEAPEAU?$QTypedArrayData@VQPixmap@@@@$$QEAPEAVQPixmap@@@Z 000000014003e6b0 f i moviepicwidget.obj
 0001:0003d6b0       ??$make_pair@PEAU?$QTypedArrayData@VQPoint@@@@PEAVQPoint@@@std@@YA?AU?$pair@PEAU?$QTypedArrayData@VQPoint@@@@PEAVQPoint@@@0@$$QEAPEAU?$QTypedArrayData@VQPoint@@@@$$QEAPEAVQPoint@@@Z 000000014003e6b0 f i slider.obj
 0001:0003d6b0       ??$make_pair@PEAU?$QTypedArrayData@VQString@@@@PEAVQString@@@std@@YA?AU?$pair@PEAU?$QTypedArrayData@VQString@@@@PEAVQString@@@0@$$QEAPEAU?$QTypedArrayData@VQString@@@@$$QEAPEAVQString@@@Z 000000014003e6b0 f i keyhelper.obj
 0001:0003d6b0       ??$make_pair@PEAU?$QTypedArrayData@_K@@PEA_K@std@@YA?AU?$pair@PEAU?$QTypedArrayData@_K@@PEA_K@0@$$QEAPEAU?$QTypedArrayData@_K@@$$QEAPEA_K@Z 000000014003e6b0 f i qxtwindowsystem_win.obj
 0001:0003d700       ??$qAbs@N@@YANAEBN@Z       000000014003e700 f i slider.obj
 0001:0003d750       ??$qMakeForeachContainer@AEAV?$QList@UTItemRect@CSlider@@@@@QtPrivate@@YA?AV?$QForeachContainer@V?$QList@UTItemRect@CSlider@@@@@0@AEAV?$QList@UTItemRect@CSlider@@@@@Z 000000014003e750 f i slider.obj
 0001:0003d7a0       ??$qMakePair@PEAU?$QTypedArrayData@PEAVQWidget@@@@PEAPEAVQWidget@@@@YA?A_T$$QEAPEAU?$QTypedArrayData@PEAVQWidget@@@@$$QEAPEAPEAVQWidget@@@Z 000000014003e7a0 f i FramelessHelper.obj
 0001:0003d7a0       ??$qMakePair@PEAU?$QTypedArrayData@PEAVWidgetData@@@@PEAPEAVWidgetData@@@@YA?A_T$$QEAPEAU?$QTypedArrayData@PEAVWidgetData@@@@$$QEAPEAPEAVWidgetData@@@Z 000000014003e7a0 f i FramelessHelper.obj
 0001:0003d7a0       ??$qMakePair@PEAU?$QTypedArrayData@UTItemRect@CSlider@@@@PEAUTItemRect@CSlider@@@@YA?A_T$$QEAPEAU?$QTypedArrayData@UTItemRect@CSlider@@@@$$QEAPEAUTItemRect@CSlider@@@Z 000000014003e7a0 f i slider.obj
 0001:0003d7a0       ??$qMakePair@PEAU?$QTypedArrayData@UTNoteItem@NotificationMgr@@@@PEAUTNoteItem@NotificationMgr@@@@YA?A_T$$QEAPEAU?$QTypedArrayData@UTNoteItem@NotificationMgr@@@@$$QEAPEAUTNoteItem@NotificationMgr@@@Z 000000014003e7a0 f i notificationpane.obj
 0001:0003d7a0       ??$qMakePair@PEAU?$QTypedArrayData@VQPixmap@@@@PEAVQPixmap@@@@YA?A_T$$QEAPEAU?$QTypedArrayData@VQPixmap@@@@$$QEAPEAVQPixmap@@@Z 000000014003e7a0 f i moviepicwidget.obj
 0001:0003d7a0       ??$qMakePair@PEAU?$QTypedArrayData@VQPoint@@@@PEAVQPoint@@@@YA?A_T$$QEAPEAU?$QTypedArrayData@VQPoint@@@@$$QEAPEAVQPoint@@@Z 000000014003e7a0 f i slider.obj
 0001:0003d7a0       ??$qMakePair@PEAU?$QTypedArrayData@VQString@@@@PEAVQString@@@@YA?A_T$$QEAPEAU?$QTypedArrayData@VQString@@@@$$QEAPEAVQString@@@Z 000000014003e7a0 f i keyhelper.obj
 0001:0003d7a0       ??$qMakePair@PEAU?$QTypedArrayData@_K@@PEA_K@@YA?A_T$$QEAPEAU?$QTypedArrayData@_K@@$$QEAPEA_K@Z 000000014003e7a0 f i qxtwindowsystem_win.obj
 0001:0003d7f0       ??$q_relocate_overlap_n@UTItemRect@CSlider@@_J@QtPrivate@@YAXPEAUTItemRect@CSlider@@_J0@Z 000000014003e7f0 f i slider.obj
 0001:0003d7f0       ??$q_relocate_overlap_n@UTNoteItem@NotificationMgr@@_J@QtPrivate@@YAXPEAUTNoteItem@NotificationMgr@@_J0@Z 000000014003e7f0 f i notificationpane.obj
 0001:0003d850       ??$q_relocate_overlap_n@VQPoint@@_J@QtPrivate@@YAXPEAVQPoint@@_J0@Z 000000014003e850 f i slider.obj
 0001:0003d850       ??$q_relocate_overlap_n@_K_J@QtPrivate@@YAXPEA_K_J0@Z 000000014003e850 f i qxtwindowsystem_win.obj
 0001:0003d8b0       ??$qt_ptr_swap@PEAVQWidget@@@@YAXAEAPEAPEAVQWidget@@0@Z 000000014003e8b0 f i FramelessHelper.obj
 0001:0003d8b0       ??$qt_ptr_swap@PEAVWidgetData@@@@YAXAEAPEAPEAVWidgetData@@0@Z 000000014003e8b0 f i FramelessHelper.obj
 0001:0003d8b0       ??$qt_ptr_swap@U?$QTypedArrayData@PEAVQWidget@@@@@@YAXAEAPEAU?$QTypedArrayData@PEAVQWidget@@@@0@Z 000000014003e8b0 f i FramelessHelper.obj
 0001:0003d8b0       ??$qt_ptr_swap@U?$QTypedArrayData@PEAVWidgetData@@@@@@YAXAEAPEAU?$QTypedArrayData@PEAVWidgetData@@@@0@Z 000000014003e8b0 f i FramelessHelper.obj
 0001:0003d8b0       ??$qt_ptr_swap@U?$QTypedArrayData@UTItemRect@CSlider@@@@@@YAXAEAPEAU?$QTypedArrayData@UTItemRect@CSlider@@@@0@Z 000000014003e8b0 f i slider.obj
 0001:0003d8b0       ??$qt_ptr_swap@U?$QTypedArrayData@UTNoteItem@NotificationMgr@@@@@@YAXAEAPEAU?$QTypedArrayData@UTNoteItem@NotificationMgr@@@@0@Z 000000014003e8b0 f i notificationpane.obj
 0001:0003d8b0       ??$qt_ptr_swap@U?$QTypedArrayData@VQPixmap@@@@@@YAXAEAPEAU?$QTypedArrayData@VQPixmap@@@@0@Z 000000014003e8b0 f i moviepicwidget.obj
 0001:0003d8b0       ??$qt_ptr_swap@U?$QTypedArrayData@VQPoint@@@@@@YAXAEAPEAU?$QTypedArrayData@VQPoint@@@@0@Z 000000014003e8b0 f i slider.obj
 0001:0003d8b0       ??$qt_ptr_swap@U?$QTypedArrayData@VQString@@@@@@YAXAEAPEAU?$QTypedArrayData@VQString@@@@0@Z 000000014003e8b0 f i keyhelper.obj
 0001:0003d8b0       ??$qt_ptr_swap@U?$QTypedArrayData@_K@@@@YAXAEAPEAU?$QTypedArrayData@_K@@0@Z 000000014003e8b0 f i qxtwindowsystem_win.obj
 0001:0003d8b0       ??$qt_ptr_swap@UTItemRect@CSlider@@@@YAXAEAPEAUTItemRect@CSlider@@0@Z 000000014003e8b0 f i slider.obj
 0001:0003d8b0       ??$qt_ptr_swap@UTNoteItem@NotificationMgr@@@@YAXAEAPEAUTNoteItem@NotificationMgr@@0@Z 000000014003e8b0 f i notificationpane.obj
 0001:0003d8b0       ??$qt_ptr_swap@V?$QMapData@V?$map@VQString@@V1@U?$less@VQString@@@std@@V?$allocator@U?$pair@$$CBVQString@@V1@@std@@@3@@std@@@@@@YAXAEAPEAV?$QMapData@V?$map@VQString@@V1@U?$less@VQString@@@std@@V?$allocator@U?$pair@$$CBVQString@@V1@@std@@@3@@std@@@@0@Z 000000014003e8b0 f i httpdownloader.obj
 0001:0003d8b0       ??$qt_ptr_swap@V?$QMapData@V?$map@VQString@@_NU?$less@VQString@@@std@@V?$allocator@U?$pair@$$CBVQString@@_N@std@@@3@@std@@@@@@YAXAEAPEAV?$QMapData@V?$map@VQString@@_NU?$less@VQString@@@std@@V?$allocator@U?$pair@$$CBVQString@@_N@std@@@3@@std@@@@0@Z 000000014003e8b0 f i httpdownloader.obj
 0001:0003d8b0       ??$qt_ptr_swap@VQPixmap@@@@YAXAEAPEAVQPixmap@@0@Z 000000014003e8b0 f i moviepicwidget.obj
 0001:0003d8b0       ??$qt_ptr_swap@VQPoint@@@@YAXAEAPEAVQPoint@@0@Z 000000014003e8b0 f i slider.obj
 0001:0003d8b0       ??$qt_ptr_swap@VQString@@@@YAXAEAPEAVQString@@0@Z 000000014003e8b0 f i keyhelper.obj
 0001:0003d8b0       ??$qt_ptr_swap@_K@@YAXAEAPEA_K0@Z 000000014003e8b0 f i qxtwindowsystem_win.obj
 0001:0003d8f0       ??0<lambda_1>@?1??copyIfNotEquivalentTo@?$QMapData@V?$map@VQString@@V1@U?$less@VQString@@@std@@V?$allocator@U?$pair@$$CBVQString@@V1@@std@@@3@@std@@@@QEAA_KAEBV?$map@VQString@@V1@U?$less@VQString@@@std@@V?$allocator@U?$pair@$$CBVQString@@V1@@std@@@3@@std@@AEBVQString@@@Z@QEAA@AEA_K1AEBU?$less@VQString@@@4@@Z 000000014003e8f0 f i httpdownloader.obj
 0001:0003d8f0       ??0<lambda_1>@?1??copyIfNotEquivalentTo@?$QMapData@V?$map@VQString@@_NU?$less@VQString@@@std@@V?$allocator@U?$pair@$$CBVQString@@_N@std@@@3@@std@@@@QEAA_KAEBV?$map@VQString@@_NU?$less@VQString@@@std@@V?$allocator@U?$pair@$$CBVQString@@_N@std@@@3@@std@@AEBVQString@@@Z@QEAA@AEA_K1AEBU?$less@VQString@@@4@@Z 000000014003e8f0 f i httpdownloader.obj
 0001:0003d8f0       ??0?$QArrayDataPointer@PEAVQWidget@@@@QEAA@PEAU?$QTypedArrayData@PEAVQWidget@@@@PEAPEAVQWidget@@_J@Z 000000014003e8f0 f i FramelessHelper.obj
 0001:0003d8f0       ??0?$QArrayDataPointer@UTItemRect@CSlider@@@@QEAA@PEAU?$QTypedArrayData@UTItemRect@CSlider@@@@PEAUTItemRect@CSlider@@_J@Z 000000014003e8f0 f i slider.obj
 0001:0003d8f0       ??0?$QArrayDataPointer@UTNoteItem@NotificationMgr@@@@QEAA@PEAU?$QTypedArrayData@UTNoteItem@NotificationMgr@@@@PEAUTNoteItem@NotificationMgr@@_J@Z 000000014003e8f0 f i notificationpane.obj
 0001:0003d8f0       ??0?$QArrayDataPointer@VQPixmap@@@@QEAA@PEAU?$QTypedArrayData@VQPixmap@@@@PEAVQPixmap@@_J@Z 000000014003e8f0 f i moviepicwidget.obj
 0001:0003d8f0       ??0?$QArrayDataPointer@VQPoint@@@@QEAA@PEAU?$QTypedArrayData@VQPoint@@@@PEAVQPoint@@_J@Z 000000014003e8f0 f i slider.obj
 0001:0003d8f0       ??0?$QArrayDataPointer@VQString@@@@QEAA@PEAU?$QTypedArrayData@VQString@@@@PEAVQString@@_J@Z 000000014003e8f0 f i keyhelper.obj
 0001:0003d8f0       ??0?$QArrayDataPointer@_K@@QEAA@PEAU?$QTypedArrayData@_K@@PEA_K_J@Z 000000014003e8f0 f i qxtwindowsystem_win.obj
 0001:0003d940       ??0?$QArrayDataPointer@PEAVQWidget@@@@QEAA@U?$pair@PEAU?$QTypedArrayData@PEAVQWidget@@@@PEAPEAVQWidget@@@std@@_J@Z 000000014003e940 f i FramelessHelper.obj
 0001:0003d940       ??0?$QArrayDataPointer@PEAVWidgetData@@@@QEAA@U?$pair@PEAU?$QTypedArrayData@PEAVWidgetData@@@@PEAPEAVWidgetData@@@std@@_J@Z 000000014003e940 f i FramelessHelper.obj
 0001:0003d940       ??0?$QArrayDataPointer@UTItemRect@CSlider@@@@QEAA@U?$pair@PEAU?$QTypedArrayData@UTItemRect@CSlider@@@@PEAUTItemRect@CSlider@@@std@@_J@Z 000000014003e940 f i slider.obj
 0001:0003d940       ??0?$QArrayDataPointer@UTNoteItem@NotificationMgr@@@@QEAA@U?$pair@PEAU?$QTypedArrayData@UTNoteItem@NotificationMgr@@@@PEAUTNoteItem@NotificationMgr@@@std@@_J@Z 000000014003e940 f i notificationpane.obj
 0001:0003d940       ??0?$QArrayDataPointer@VQString@@@@QEAA@U?$pair@PEAU?$QTypedArrayData@VQString@@@@PEAVQString@@@std@@_J@Z 000000014003e940 f i httpdownloader.obj
 0001:0003d940       ??0?$QArrayDataPointer@_K@@QEAA@U?$pair@PEAU?$QTypedArrayData@_K@@PEA_K@std@@_J@Z 000000014003e940 f i qxtwindowsystem_win.obj
 0001:0003d990       ??0?$QForeachContainer@V?$QList@UTItemRect@CSlider@@@@@QtPrivate@@QEAA@AEBV?$QList@UTItemRect@CSlider@@@@@Z 000000014003e990 f i slider.obj
 0001:0003da20       ??0Inserter@?$QMovableArrayOps@UTItemRect@CSlider@@@QtPrivate@@QEAA@PEAU?$QArrayDataPointer@UTItemRect@CSlider@@@@@Z 000000014003ea20 f i slider.obj
 0001:0003da20       ??0Inserter@?$QMovableArrayOps@UTNoteItem@NotificationMgr@@@QtPrivate@@QEAA@PEAU?$QArrayDataPointer@UTNoteItem@NotificationMgr@@@@@Z 000000014003ea20 f i notificationpane.obj
 0001:0003da20       ??0Inserter@?$QMovableArrayOps@VQString@@@QtPrivate@@QEAA@PEAU?$QArrayDataPointer@VQString@@@@@Z 000000014003ea20 f i httpdownloader.obj
 0001:0003da50       ??0QMarginsF@@QEAA@AEBVQMargins@@@Z 000000014003ea50 f i slider.obj
 0001:0003dad0       ??0QPoint@@QEAA@XZ         000000014003ead0 f i slider.obj
 0001:0003db00       ??0QPointF@@QEAA@AEBVQPoint@@@Z 000000014003eb00 f i slider.obj
 0001:0003db50       ??0QPointF@@QEAA@NN@Z      000000014003eb50 f i slider.obj
 0001:0003db90       ??0QPolygon@@QEAA@XZ       000000014003eb90 f i slider.obj
 0001:0003dbb0       ??0TItemRect@CSlider@@QEAA@XZ 000000014003ebb0 f i slider.obj
 0001:0003dbe0       ??1?$QArrayDataPointer@UTItemRect@CSlider@@@@QEAA@XZ 000000014003ebe0 f i slider.obj
 0001:0003dbe0       ??1?$QArrayDataPointer@UTNoteItem@NotificationMgr@@@@QEAA@XZ 000000014003ebe0 f i notificationpane.obj
 0001:0003dc20       ??1?$QForeachContainer@V?$QList@UTItemRect@CSlider@@@@@QtPrivate@@QEAA@XZ 000000014003ec20 f i slider.obj
 0001:0003dc40       ??1?$QList@UTItemRect@CSlider@@@@QEAA@XZ 000000014003ec40 f i slider.obj
 0001:0003dc40       ??1?$QList@UTNoteItem@NotificationMgr@@@@QEAA@XZ 000000014003ec40 f i notificationpane.obj
 0001:0003dc60       ??1CSlider@@UEAA@XZ        000000014003ec60 f i slider.obj
 0001:0003dc90       ??1Inserter@?$QMovableArrayOps@UTItemRect@CSlider@@@QtPrivate@@QEAA@XZ 000000014003ec90 f i slider.obj
 0001:0003dc90       ??1Inserter@?$QMovableArrayOps@UTNoteItem@NotificationMgr@@@QtPrivate@@QEAA@XZ 000000014003ec90 f i notificationpane.obj
 0001:0003dc90       ??1Inserter@?$QMovableArrayOps@VQString@@@QtPrivate@@QEAA@XZ 000000014003ec90 f i httpdownloader.obj
 0001:0003dcc0       ??1QPolygon@@QEAA@XZ       000000014003ecc0 f i slider.obj
 0001:0003dce0       ??6?$QList@UTItemRect@CSlider@@@@QEAAAEAV0@AEBUTItemRect@CSlider@@@Z 000000014003ece0 f i slider.obj
 0001:0003dd10       ??6?$QList@VQPoint@@@@QEAAAEAV0@$$QEAVQPoint@@@Z 000000014003ed10 f i slider.obj
 0001:0003dd40       ??Econst_iterator@?$QList@UTItemRect@CSlider@@@@QEAAAEAV01@XZ 000000014003ed40 f i slider.obj
 0001:0003dd60       ??_ECSlider@@WBA@EAAPEAXI@Z 000000014003ed60 f i slider.obj
 0001:0003dd70       ??_ECSlider@@UEAAPEAXI@Z   000000014003ed70 f i slider.obj
 0001:0003dd70       ??_GCSlider@@UEAAPEAXI@Z   000000014003ed70 f i slider.obj
 0001:0003ddb0       ?allocate@?$QTypedArrayData@UTItemRect@CSlider@@@@SA?AU?$pair@PEAU?$QTypedArrayData@UTItemRect@CSlider@@@@PEAUTItemRect@CSlider@@@std@@_JW4AllocationOption@QArrayData@@@Z 000000014003edb0 f i slider.obj
 0001:0003ddb0       ?allocate@?$QTypedArrayData@UTNoteItem@NotificationMgr@@@@SA?AU?$pair@PEAU?$QTypedArrayData@UTNoteItem@NotificationMgr@@@@PEAUTNoteItem@NotificationMgr@@@std@@_JW4AllocationOption@QArrayData@@@Z 000000014003edb0 f i notificationpane.obj
 0001:0003de20       ?allocate@?$QTypedArrayData@PEAVQWidget@@@@SA?AU?$pair@PEAU?$QTypedArrayData@PEAVQWidget@@@@PEAPEAVQWidget@@@std@@_JW4AllocationOption@QArrayData@@@Z 000000014003ee20 f i FramelessHelper.obj
 0001:0003de20       ?allocate@?$QTypedArrayData@PEAVWidgetData@@@@SA?AU?$pair@PEAU?$QTypedArrayData@PEAVWidgetData@@@@PEAPEAVWidgetData@@@std@@_JW4AllocationOption@QArrayData@@@Z 000000014003ee20 f i FramelessHelper.obj
 0001:0003de20       ?allocate@?$QTypedArrayData@VQPoint@@@@SA?AU?$pair@PEAU?$QTypedArrayData@VQPoint@@@@PEAVQPoint@@@std@@_JW4AllocationOption@QArrayData@@@Z 000000014003ee20 f i slider.obj
 0001:0003de20       ?allocate@?$QTypedArrayData@_K@@SA?AU?$pair@PEAU?$QTypedArrayData@_K@@PEA_K@std@@_JW4AllocationOption@QArrayData@@@Z 000000014003ee20 f i qxtwindowsystem_win.obj
 0001:0003de90       ?allocateGrow@?$QArrayDataPointer@UTItemRect@CSlider@@@@SA?AU1@AEBU1@_JW4GrowthPosition@QArrayData@@@Z 000000014003ee90 f i slider.obj
 0001:0003de90       ?allocateGrow@?$QArrayDataPointer@UTNoteItem@NotificationMgr@@@@SA?AU1@AEBU1@_JW4GrowthPosition@QArrayData@@@Z 000000014003ee90 f i notificationpane.obj
 0001:0003e140       ?allocateGrow@?$QArrayDataPointer@PEAVQWidget@@@@SA?AU1@AEBU1@_JW4GrowthPosition@QArrayData@@@Z 000000014003f140 f i FramelessHelper.obj
 0001:0003e140       ?allocateGrow@?$QArrayDataPointer@VQPoint@@@@SA?AU1@AEBU1@_JW4GrowthPosition@QArrayData@@@Z 000000014003f140 f i slider.obj
 0001:0003e140       ?allocateGrow@?$QArrayDataPointer@_K@@SA?AU1@AEBU1@_JW4GrowthPosition@QArrayData@@@Z 000000014003f140 f i qxtwindowsystem_win.obj
 0001:0003e3f0       ?allocatedCapacity@?$QArrayDataPointer@UTItemRect@CSlider@@@@QEAA_JXZ 000000014003f3f0 f i slider.obj
 0001:0003e3f0       ?allocatedCapacity@?$QArrayDataPointer@UTNoteItem@NotificationMgr@@@@QEAA_JXZ 000000014003f3f0 f i notificationpane.obj
 0001:0003e3f0       ?allocatedCapacity@?$QArrayDataPointer@_K@@QEAA_JXZ 000000014003f3f0 f i qxtwindowsystem_win.obj
 0001:0003e3f0       ?constAllocatedCapacity@?$QArrayDataPointer@PEAVQWidget@@@@QEBA_JXZ 000000014003f3f0 f i FramelessHelper.obj
 0001:0003e3f0       ?constAllocatedCapacity@?$QArrayDataPointer@UTItemRect@CSlider@@@@QEBA_JXZ 000000014003f3f0 f i slider.obj
 0001:0003e3f0       ?constAllocatedCapacity@?$QArrayDataPointer@UTNoteItem@NotificationMgr@@@@QEBA_JXZ 000000014003f3f0 f i notificationpane.obj
 0001:0003e3f0       ?constAllocatedCapacity@?$QArrayDataPointer@VQPixmap@@@@QEBA_JXZ 000000014003f3f0 f i moviepicwidget.obj
 0001:0003e3f0       ?constAllocatedCapacity@?$QArrayDataPointer@VQPoint@@@@QEBA_JXZ 000000014003f3f0 f i slider.obj
 0001:0003e3f0       ?constAllocatedCapacity@?$QArrayDataPointer@VQString@@@@QEBA_JXZ 000000014003f3f0 f i keyhelper.obj
 0001:0003e3f0       ?constAllocatedCapacity@?$QArrayDataPointer@_K@@QEBA_JXZ 000000014003f3f0 f i qxtwindowsystem_win.obj
 0001:0003e430       ?append@?$QList@UTItemRect@CSlider@@@@QEAAXAEBUTItemRect@CSlider@@@Z 000000014003f430 f i slider.obj
 0001:0003e460       ?append@?$QList@VQPoint@@@@QEAAX$$QEAVQPoint@@@Z 000000014003f460 f i slider.obj
 0001:0003e490       ?bottom@QMargins@@QEBAHXZ  000000014003f490 f i slider.obj
 0001:0003e4a0       ?clear@?$QList@UTItemRect@CSlider@@@@QEAAXXZ 000000014003f4a0 f i slider.obj
 0001:0003e4a0       ?clear@?$QList@UTNoteItem@NotificationMgr@@@@QEAAXXZ 000000014003f4a0 f i notificationpane.obj
 0001:0003e580       ?constEnd@?$QArrayDataPointer@UTItemRect@CSlider@@@@QEBAPEBUTItemRect@CSlider@@XZ 000000014003f580 f i slider.obj
 0001:0003e580       ?end@?$QArrayDataPointer@UTItemRect@CSlider@@@@QEAAPEAUTItemRect@CSlider@@XZ 000000014003f580 f i slider.obj
 0001:0003e580       ?end@?$QArrayDataPointer@UTItemRect@CSlider@@@@QEBAPEBUTItemRect@CSlider@@XZ 000000014003f580 f i slider.obj
 0001:0003e580       ?end@?$QArrayDataPointer@UTNoteItem@NotificationMgr@@@@QEAAPEAUTNoteItem@NotificationMgr@@XZ 000000014003f580 f i notificationpane.obj
 0001:0003e580       ?end@?$QArrayDataPointer@UTNoteItem@NotificationMgr@@@@QEBAPEBUTNoteItem@NotificationMgr@@XZ 000000014003f580 f i notificationpane.obj
 0001:0003e5b0       ?copyAppend@?$QGenericArrayOps@UTItemRect@CSlider@@@QtPrivate@@QEAAXPEBUTItemRect@CSlider@@0@Z 000000014003f5b0 f i slider.obj
 0001:0003e5b0       ?copyAppend@?$QGenericArrayOps@UTNoteItem@NotificationMgr@@@QtPrivate@@QEAAXPEBUTNoteItem@NotificationMgr@@0@Z 000000014003f5b0 f i notificationpane.obj
 0001:0003e660       ?copyAppend@?$QPodArrayOps@PEAVQWidget@@@QtPrivate@@QEAAXPEBQEAVQWidget@@0@Z 000000014003f660 f i FramelessHelper.obj
 0001:0003e660       ?copyAppend@?$QPodArrayOps@VQPoint@@@QtPrivate@@QEAAXPEBVQPoint@@0@Z 000000014003f660 f i slider.obj
 0001:0003e660       ?copyAppend@?$QPodArrayOps@_K@QtPrivate@@QEAAXPEB_K0@Z 000000014003f660 f i qxtwindowsystem_win.obj
 0001:0003e6f0       ?createHole@?$QPodArrayOps@VQPoint@@@QtPrivate@@QEAAPEAVQPoint@@W4GrowthPosition@QArrayData@@_J1@Z 000000014003f6f0 f i slider.obj
 0001:0003e6f0       ?createHole@?$QPodArrayOps@_K@QtPrivate@@QEAAPEA_KW4GrowthPosition@QArrayData@@_J1@Z 000000014003f6f0 f i qxtwindowsystem_win.obj
 0001:0003e7d0       ?dataStart@?$QTypedArrayData@PEAVQWidget@@@@SAPEAPEAVQWidget@@PEAUQArrayData@@_J@Z 000000014003f7d0 f i FramelessHelper.obj
 0001:0003e7d0       ?dataStart@?$QTypedArrayData@UTItemRect@CSlider@@@@SAPEAUTItemRect@CSlider@@PEAUQArrayData@@_J@Z 000000014003f7d0 f i slider.obj
 0001:0003e7d0       ?dataStart@?$QTypedArrayData@UTNoteItem@NotificationMgr@@@@SAPEAUTNoteItem@NotificationMgr@@PEAUQArrayData@@_J@Z 000000014003f7d0 f i notificationpane.obj
 0001:0003e7d0       ?dataStart@?$QTypedArrayData@VQPixmap@@@@SAPEAVQPixmap@@PEAUQArrayData@@_J@Z 000000014003f7d0 f i moviepicwidget.obj
 0001:0003e7d0       ?dataStart@?$QTypedArrayData@VQPoint@@@@SAPEAVQPoint@@PEAUQArrayData@@_J@Z 000000014003f7d0 f i slider.obj
 0001:0003e7d0       ?dataStart@?$QTypedArrayData@VQString@@@@SAPEAVQString@@PEAUQArrayData@@_J@Z 000000014003f7d0 f i keyhelper.obj
 0001:0003e7d0       ?dataStart@?$QTypedArrayData@_K@@SAPEA_KPEAUQArrayData@@_J@Z 000000014003f7d0 f i qxtwindowsystem_win.obj
 0001:0003e810       ?deallocate@?$QTypedArrayData@UTItemRect@CSlider@@@@SAXPEAUQArrayData@@@Z 000000014003f810 f i slider.obj
 0001:0003e810       ?deallocate@?$QTypedArrayData@UTNoteItem@NotificationMgr@@@@SAXPEAUQArrayData@@@Z 000000014003f810 f i notificationpane.obj
 0001:0003e840       ?destroyAll@?$QGenericArrayOps@UTItemRect@CSlider@@@QtPrivate@@QEAAXXZ 000000014003f840 f i slider.obj
 0001:0003e840       ?destroyAll@?$QGenericArrayOps@UTNoteItem@NotificationMgr@@@QtPrivate@@QEAAXXZ 000000014003f840 f i notificationpane.obj
 0001:0003e880       ?detach@?$QArrayDataPointer@UTItemRect@CSlider@@@@QEAAXPEAU1@@Z 000000014003f880 f i slider.obj
 0001:0003e880       ?detach@?$QArrayDataPointer@UTNoteItem@NotificationMgr@@@@QEAAXPEAU1@@Z 000000014003f880 f i notificationpane.obj
 0001:0003e8c0       ?detach@?$QArrayDataPointer@PEAVQWidget@@@@QEAAXPEAU1@@Z 000000014003f8c0 f i FramelessHelper.obj
 0001:0003e8c0       ?detach@?$QArrayDataPointer@VQPoint@@@@QEAAXPEAU1@@Z 000000014003f8c0 f i slider.obj
 0001:0003e8c0       ?detach@?$QArrayDataPointer@_K@@QEAAXPEAU1@@Z 000000014003f8c0 f i qxtwindowsystem_win.obj
 0001:0003e900       ?detach@?$QList@UTItemRect@CSlider@@@@QEAAXXZ 000000014003f900 f i slider.obj
 0001:0003e900       ?detach@?$QList@UTNoteItem@NotificationMgr@@@@QEAAXXZ 000000014003f900 f i notificationpane.obj
 0001:0003e930       ?detach@?$QList@PEAVQWidget@@@@QEAAXXZ 000000014003f930 f i FramelessHelper.obj
 0001:0003e930       ?detach@?$QList@VQPoint@@@@QEAAXXZ 000000014003f930 f i slider.obj
 0001:0003e930       ?detach@?$QList@_K@@QEAAXXZ 000000014003f930 f i qxtwindowsystem_win.obj
 0001:0003e960       ?detachAndGrow@?$QArrayDataPointer@UTItemRect@CSlider@@@@QEAAXW4GrowthPosition@QArrayData@@_JPEAPEBUTItemRect@CSlider@@PEAU1@@Z 000000014003f960 f i slider.obj
 0001:0003ea10       ?detachAndGrow@?$QArrayDataPointer@VQPoint@@@@QEAAXW4GrowthPosition@QArrayData@@_JPEAPEBVQPoint@@PEAU1@@Z 000000014003fa10 f i slider.obj
 0001:0003eac0       ?detachCapacity@?$QArrayDataPointer@PEAVQWidget@@@@QEBA_J_J@Z 000000014003fac0 f i FramelessHelper.obj
 0001:0003eac0       ?detachCapacity@?$QArrayDataPointer@UTItemRect@CSlider@@@@QEBA_J_J@Z 000000014003fac0 f i slider.obj
 0001:0003eac0       ?detachCapacity@?$QArrayDataPointer@UTNoteItem@NotificationMgr@@@@QEBA_J_J@Z 000000014003fac0 f i notificationpane.obj
 0001:0003eac0       ?detachCapacity@?$QArrayDataPointer@VQPixmap@@@@QEBA_J_J@Z 000000014003fac0 f i moviepicwidget.obj
 0001:0003eac0       ?detachCapacity@?$QArrayDataPointer@VQPoint@@@@QEBA_J_J@Z 000000014003fac0 f i slider.obj
 0001:0003eac0       ?detachCapacity@?$QArrayDataPointer@VQString@@@@QEBA_J_J@Z 000000014003fac0 f i keyhelper.obj
 0001:0003eac0       ?detachCapacity@?$QArrayDataPointer@_K@@QEBA_J_J@Z 000000014003fac0 f i qxtwindowsystem_win.obj
 0001:0003eb10       ?displace@Inserter@?$QMovableArrayOps@UTItemRect@CSlider@@@QtPrivate@@QEAAPEAUTItemRect@CSlider@@_J0@Z 000000014003fb10 f i slider.obj
 0001:0003eb10       ?displace@Inserter@?$QMovableArrayOps@UTNoteItem@NotificationMgr@@@QtPrivate@@QEAAPEAUTNoteItem@NotificationMgr@@_J0@Z 000000014003fb10 f i notificationpane.obj
 0001:0003ebe0       ?end@?$QList@UTItemRect@CSlider@@@@QEAA?AViterator@1@XZ 000000014003fbe0 f i slider.obj
 0001:0003ebe0       ?end@?$QList@UTNoteItem@NotificationMgr@@@@QEAA?AViterator@1@XZ 000000014003fbe0 f i notificationpane.obj
 0001:0003ec30       ?end@?$QList@UTItemRect@CSlider@@@@QEBA?AVconst_iterator@1@XZ 000000014003fc30 f i slider.obj
 0001:0003ec70       ?end@?$QList@VQPoint@@@@QEAA?AViterator@1@XZ 000000014003fc70 f i slider.obj
 0001:0003ec70       ?end@?$QList@_K@@QEAA?AViterator@1@XZ 000000014003fc70 f i qxtwindowsystem_win.obj
 0001:0003ecc0       ?flags@?$QArrayDataPointer@PEAVQWidget@@@@QEBA?BV?$QFlags@W4ArrayOption@QArrayData@@@@XZ 000000014003fcc0 f i FramelessHelper.obj
 0001:0003ecc0       ?flags@?$QArrayDataPointer@UTItemRect@CSlider@@@@QEBA?BV?$QFlags@W4ArrayOption@QArrayData@@@@XZ 000000014003fcc0 f i slider.obj
 0001:0003ecc0       ?flags@?$QArrayDataPointer@UTNoteItem@NotificationMgr@@@@QEBA?BV?$QFlags@W4ArrayOption@QArrayData@@@@XZ 000000014003fcc0 f i notificationpane.obj
 0001:0003ecc0       ?flags@?$QArrayDataPointer@VQPixmap@@@@QEBA?BV?$QFlags@W4ArrayOption@QArrayData@@@@XZ 000000014003fcc0 f i moviepicwidget.obj
 0001:0003ecc0       ?flags@?$QArrayDataPointer@VQPoint@@@@QEBA?BV?$QFlags@W4ArrayOption@QArrayData@@@@XZ 000000014003fcc0 f i slider.obj
 0001:0003ecc0       ?flags@?$QArrayDataPointer@VQString@@@@QEBA?BV?$QFlags@W4ArrayOption@QArrayData@@@@XZ 000000014003fcc0 f i keyhelper.obj
 0001:0003ecc0       ?flags@?$QArrayDataPointer@_K@@QEBA?BV?$QFlags@W4ArrayOption@QArrayData@@@@XZ 000000014003fcc0 f i qxtwindowsystem_win.obj
 0001:0003ed30       ?freeSpaceAtBegin@?$QArrayDataPointer@UTItemRect@CSlider@@@@QEBA_JXZ 000000014003fd30 f i slider.obj
 0001:0003ed30       ?freeSpaceAtBegin@?$QArrayDataPointer@UTNoteItem@NotificationMgr@@@@QEBA_JXZ 000000014003fd30 f i notificationpane.obj
 0001:0003ed80       ?freeSpaceAtBegin@?$QArrayDataPointer@PEAVQWidget@@@@QEBA_JXZ 000000014003fd80 f i FramelessHelper.obj
 0001:0003ed80       ?freeSpaceAtBegin@?$QArrayDataPointer@VQPoint@@@@QEBA_JXZ 000000014003fd80 f i slider.obj
 0001:0003ed80       ?freeSpaceAtBegin@?$QArrayDataPointer@_K@@QEBA_JXZ 000000014003fd80 f i qxtwindowsystem_win.obj
 0001:0003edd0       ?freeSpaceAtEnd@?$QArrayDataPointer@UTItemRect@CSlider@@@@QEBA_JXZ 000000014003fdd0 f i slider.obj
 0001:0003edd0       ?freeSpaceAtEnd@?$QArrayDataPointer@UTNoteItem@NotificationMgr@@@@QEBA_JXZ 000000014003fdd0 f i notificationpane.obj
 0001:0003ee20       ?freeSpaceAtEnd@?$QArrayDataPointer@PEAVQWidget@@@@QEBA_JXZ 000000014003fe20 f i FramelessHelper.obj
 0001:0003ee20       ?freeSpaceAtEnd@?$QArrayDataPointer@VQPoint@@@@QEBA_JXZ 000000014003fe20 f i slider.obj
 0001:0003ee20       ?freeSpaceAtEnd@?$QArrayDataPointer@_K@@QEBA_JXZ 000000014003fe20 f i qxtwindowsystem_win.obj
 0001:0003ee70       ?insertOne@Inserter@?$QMovableArrayOps@UTItemRect@CSlider@@@QtPrivate@@QEAAX_J$$QEAUTItemRect@CSlider@@@Z 000000014003fe70 f i slider.obj
 0001:0003ee70       ?insertOne@Inserter@?$QMovableArrayOps@UTNoteItem@NotificationMgr@@@QtPrivate@@QEAAX_J$$QEAUTNoteItem@NotificationMgr@@@Z 000000014003fe70 f i notificationpane.obj
 0001:0003eef0       ?moveAppend@?$QGenericArrayOps@UTItemRect@CSlider@@@QtPrivate@@QEAAXPEAUTItemRect@CSlider@@0@Z 000000014003fef0 f i slider.obj
 0001:0003eef0       ?moveAppend@?$QGenericArrayOps@UTNoteItem@NotificationMgr@@@QtPrivate@@QEAAXPEAUTNoteItem@NotificationMgr@@0@Z 000000014003fef0 f i notificationpane.obj
 0001:0003efa0       ?moveAppend@?$QPodArrayOps@PEAVQWidget@@@QtPrivate@@QEAAXPEAPEAVQWidget@@0@Z 000000014003ffa0 f i FramelessHelper.obj
 0001:0003efa0       ?moveAppend@?$QPodArrayOps@VQPoint@@@QtPrivate@@QEAAXPEAVQPoint@@0@Z 000000014003ffa0 f i slider.obj
 0001:0003efa0       ?moveAppend@?$QPodArrayOps@_K@QtPrivate@@QEAAXPEA_K0@Z 000000014003ffa0 f i qxtwindowsystem_win.obj
 0001:0003efd0       ?needsDetach@?$QArrayDataPointer@PEAVQWidget@@@@QEBA_NXZ 000000014003ffd0 f i FramelessHelper.obj
 0001:0003efd0       ?needsDetach@?$QArrayDataPointer@UTItemRect@CSlider@@@@QEBA_NXZ 000000014003ffd0 f i slider.obj
 0001:0003efd0       ?needsDetach@?$QArrayDataPointer@UTNoteItem@NotificationMgr@@@@QEBA_NXZ 000000014003ffd0 f i notificationpane.obj
 0001:0003efd0       ?needsDetach@?$QArrayDataPointer@VQPixmap@@@@QEBA_NXZ 000000014003ffd0 f i moviepicwidget.obj
 0001:0003efd0       ?needsDetach@?$QArrayDataPointer@VQPoint@@@@QEBA_NXZ 000000014003ffd0 f i slider.obj
 0001:0003efd0       ?needsDetach@?$QArrayDataPointer@VQString@@@@QEBA_NXZ 000000014003ffd0 f i keyhelper.obj
 0001:0003efd0       ?needsDetach@?$QArrayDataPointer@_K@@QEBA_NXZ 000000014003ffd0 f i qxtwindowsystem_win.obj
 0001:0003f020       ?reallocate@?$QMovableArrayOps@UTItemRect@CSlider@@@QtPrivate@@QEAAX_JW4AllocationOption@QArrayData@@@Z 0000000140040020 f i slider.obj
 0001:0003f020       ?reallocate@?$QMovableArrayOps@UTNoteItem@NotificationMgr@@@QtPrivate@@QEAAX_JW4AllocationOption@QArrayData@@@Z 0000000140040020 f i notificationpane.obj
 0001:0003f090       ?reallocate@?$QPodArrayOps@PEAVQWidget@@@QtPrivate@@QEAAX_JW4AllocationOption@QArrayData@@@Z 0000000140040090 f i FramelessHelper.obj
 0001:0003f090       ?reallocate@?$QPodArrayOps@VQPoint@@@QtPrivate@@QEAAX_JW4AllocationOption@QArrayData@@@Z 0000000140040090 f i slider.obj
 0001:0003f090       ?reallocate@?$QPodArrayOps@_K@QtPrivate@@QEAAX_JW4AllocationOption@QArrayData@@@Z 0000000140040090 f i qxtwindowsystem_win.obj
 0001:0003f100       ?reallocateAndGrow@?$QArrayDataPointer@UTItemRect@CSlider@@@@QEAAXW4GrowthPosition@QArrayData@@_JPEAU1@@Z 0000000140040100 f i slider.obj
 0001:0003f100       ?reallocateAndGrow@?$QArrayDataPointer@UTNoteItem@NotificationMgr@@@@QEAAXW4GrowthPosition@QArrayData@@_JPEAU1@@Z 0000000140040100 f i notificationpane.obj
 0001:0003f350       ?reallocateAndGrow@?$QArrayDataPointer@PEAVQWidget@@@@QEAAXW4GrowthPosition@QArrayData@@_JPEAU1@@Z 0000000140040350 f i FramelessHelper.obj
 0001:0003f350       ?reallocateAndGrow@?$QArrayDataPointer@VQPoint@@@@QEAAXW4GrowthPosition@QArrayData@@_JPEAU1@@Z 0000000140040350 f i slider.obj
 0001:0003f350       ?reallocateAndGrow@?$QArrayDataPointer@_K@@QEAAXW4GrowthPosition@QArrayData@@_JPEAU1@@Z 0000000140040350 f i qxtwindowsystem_win.obj
 0001:0003f5a0       ?reallocateUnaligned@?$QTypedArrayData@UTItemRect@CSlider@@@@SA?AU?$pair@PEAU?$QTypedArrayData@UTItemRect@CSlider@@@@PEAUTItemRect@CSlider@@@std@@PEAU1@PEAUTItemRect@CSlider@@_JW4AllocationOption@QArrayData@@@Z 00000001400405a0 f i slider.obj
 0001:0003f5a0       ?reallocateUnaligned@?$QTypedArrayData@UTNoteItem@NotificationMgr@@@@SA?AU?$pair@PEAU?$QTypedArrayData@UTNoteItem@NotificationMgr@@@@PEAUTNoteItem@NotificationMgr@@@std@@PEAU1@PEAUTNoteItem@NotificationMgr@@_JW4AllocationOption@QArrayData@@@Z 00000001400405a0 f i notificationpane.obj
 0001:0003f620       ?reallocateUnaligned@?$QTypedArrayData@PEAVQWidget@@@@SA?AU?$pair@PEAU?$QTypedArrayData@PEAVQWidget@@@@PEAPEAVQWidget@@@std@@PEAU1@PEAPEAVQWidget@@_JW4AllocationOption@QArrayData@@@Z 0000000140040620 f i FramelessHelper.obj
 0001:0003f620       ?reallocateUnaligned@?$QTypedArrayData@VQPoint@@@@SA?AU?$pair@PEAU?$QTypedArrayData@VQPoint@@@@PEAVQPoint@@@std@@PEAU1@PEAVQPoint@@_JW4AllocationOption@QArrayData@@@Z 0000000140040620 f i slider.obj
 0001:0003f620       ?reallocateUnaligned@?$QTypedArrayData@_K@@SA?AU?$pair@PEAU?$QTypedArrayData@_K@@PEA_K@std@@PEAU1@PEA_K_JW4AllocationOption@QArrayData@@@Z 0000000140040620 f i qxtwindowsystem_win.obj
 0001:0003f6a0       ?relocate@?$QArrayDataPointer@UTItemRect@CSlider@@@@QEAAX_JPEAPEBUTItemRect@CSlider@@@Z 00000001400406a0 f i slider.obj
 0001:0003f730       ?relocate@?$QArrayDataPointer@VQPoint@@@@QEAAX_JPEAPEBVQPoint@@@Z 0000000140040730 f i slider.obj
 0001:0003f7c0       ?right@QMargins@@QEBAHXZ   00000001400407c0 f i slider.obj
 0001:0003f7d0       ?setX@QPoint@@QEAAXH@Z     00000001400407d0 f i slider.obj
 0001:0003f7f0       ?setY@QPoint@@QEAAXH@Z     00000001400407f0 f i slider.obj
 0001:0003f810       ?swap@?$QArrayDataPointer@PEAVQWidget@@@@QEAAXAEAU1@@Z 0000000140040810 f i FramelessHelper.obj
 0001:0003f810       ?swap@?$QArrayDataPointer@PEAVWidgetData@@@@QEAAXAEAU1@@Z 0000000140040810 f i FramelessHelper.obj
 0001:0003f810       ?swap@?$QArrayDataPointer@UTItemRect@CSlider@@@@QEAAXAEAU1@@Z 0000000140040810 f i slider.obj
 0001:0003f810       ?swap@?$QArrayDataPointer@UTNoteItem@NotificationMgr@@@@QEAAXAEAU1@@Z 0000000140040810 f i notificationpane.obj
 0001:0003f810       ?swap@?$QArrayDataPointer@VQPixmap@@@@QEAAXAEAU1@@Z 0000000140040810 f i moviepicwidget.obj
 0001:0003f810       ?swap@?$QArrayDataPointer@VQPoint@@@@QEAAXAEAU1@@Z 0000000140040810 f i slider.obj
 0001:0003f810       ?swap@?$QArrayDataPointer@VQString@@@@QEAAXAEAU1@@Z 0000000140040810 f i keyhelper.obj
 0001:0003f810       ?swap@?$QArrayDataPointer@_K@@QEAAXAEAU1@@Z 0000000140040810 f i qxtwindowsystem_win.obj
 0001:0003f870       ?top@QMargins@@QEBAHXZ     0000000140040870 f i slider.obj
 0001:0003f870       ?y@QPoint@@QEBAHXZ         0000000140040870 f i slider.obj
 0001:0003f880       ?truncate@?$QGenericArrayOps@UTItemRect@CSlider@@@QtPrivate@@QEAAX_K@Z 0000000140040880 f i slider.obj
 0001:0003f880       ?truncate@?$QGenericArrayOps@UTNoteItem@NotificationMgr@@@QtPrivate@@QEAAX_K@Z 0000000140040880 f i notificationpane.obj
 0001:0003f8e0       ?tryReadjustFreeSpace@?$QArrayDataPointer@UTItemRect@CSlider@@@@QEAA_NW4GrowthPosition@QArrayData@@_JPEAPEBUTItemRect@CSlider@@@Z 00000001400408e0 f i slider.obj
 0001:0003fa00       ?tryReadjustFreeSpace@?$QArrayDataPointer@VQPoint@@@@QEAA_NW4GrowthPosition@QArrayData@@_JPEAPEBVQPoint@@@Z 0000000140040a00 f i slider.obj
 0001:0003fb20       ?x@QPointF@@QEBANXZ        0000000140040b20 f i slider.obj
 0001:0003fb30       ?y@QPointF@@QEBANXZ        0000000140040b30 f i slider.obj
 0001:0003fb40       ?Instance@AppInit@@SAPEAV1@XZ 0000000140040b40 f   appinit.obj
 0001:0003fbf0       ??0AppInit@@QEAA@PEAVQObject@@@Z 0000000140040bf0 f   appinit.obj
 0001:0003fd20       ?start@AppInit@@QEAAXXZ    0000000140040d20 f   appinit.obj
 0001:0003fd50       ?StartWatchMouse@AppInit@@QEAAXXZ 0000000140040d50 f   appinit.obj
 0001:0003fda0       ?StopWatchMouse@AppInit@@QEAAXXZ 0000000140040da0 f   appinit.obj
 0001:0003fdd0       ?eventFilter@AppInit@@MEAA_NPEAVQObject@@PEAVQEvent@@@Z 0000000140040dd0 f   appinit.obj
 0001:000405b0       ??$qAbs@H@@YAHAEBH@Z       00000001400415b0 f i appinit.obj
 0001:000405f0       ??0?$QMutexLocker@VQMutex@@@@QEAA@PEAVQMutex@@@Z 00000001400415f0 f i appinit.obj
 0001:00040640       ??1?$QMutexLocker@VQMutex@@@@QEAA@XZ 0000000140041640 f i appinit.obj
 0001:00040670       ??1AppInit@@UEAA@XZ        0000000140041670 f i appinit.obj
 0001:00040670       ??1IconHelper@@UEAA@XZ     0000000140041670 f i moc_iconhelper.obj
 0001:00040670       ??1TrayIcon@@UEAA@XZ       0000000140041670 f i trayicon.obj
 0001:00040690       ??G@YA?AVQPoint@@AEBV0@0@Z 0000000140041690 f i appinit.obj
 0001:000406e0       ??_EAppInit@@UEAAPEAXI@Z   00000001400416e0 f i appinit.obj
 0001:000406e0       ??_GAppInit@@UEAAPEAXI@Z   00000001400416e0 f i appinit.obj
 0001:00040720       ?unlock@?$QMutexLocker@VQMutex@@@@QEAAXXZ 0000000140041720 f i appinit.obj
 0001:00040750       ?Load@IconHelper@@SA_NVQString@@@Z 0000000140041750 f   iconhelper.obj
 0001:00040840       ?SetIcon@IconHelper@@SAXPEAVQLabel@@VQChar@@I@Z 0000000140041840 f   iconhelper.obj
 0001:000408e0       ?SetIcon@IconHelper@@SAXPEAVQPushButton@@VQChar@@I@Z 00000001400418e0 f   iconhelper.obj
 0001:000409f0       ?SetIcon@IconHelper@@SAXPEAVQPushButton@@VQChar@@AEBVQString@@I@Z 00000001400419f0 f   iconhelper.obj
 0001:00040b70       ?SetIcon@IconHelper@@SAXPEAVQToolButton@@VQChar@@AEBVQString@@I@Z 0000000140041b70 f   iconhelper.obj
 0001:00040c90       ?SetIcon@IconHelper@@SAXPEAVQAction@@VQChar@@AEBVQString@@I@Z 0000000140041c90 f   iconhelper.obj
 0001:00040d50       ?SetIcon@IconHelper@@SAXPEAVQLabel@@AEBVQString@@11I@Z 0000000140041d50 f   iconhelper.obj
 0001:00040dd0       ?SetIcon@IconHelper@@SAXPEAVQStandardItem@@VQChar@@I@Z 0000000140041dd0 f   iconhelper.obj
 0001:00040e50       ?GetPixmap@IconHelper@@SA?AVQPixmap@@AEBVQString@@VQChar@@III@Z 0000000140041e50 f   iconhelper.obj
 0001:00041060       ?GetPixmap@IconHelper@@SA?AVQPixmap@@AEBVQString@@00II@Z 0000000140042060 f   iconhelper.obj
 0001:000413d0       ?GetDragChnPixmap@IconHelper@@SA?AVQPixmap@@VQString@@@Z 00000001400423d0 f   iconhelper.obj
 0001:000417e0       ?at@?$QList@VQString@@@@QEBAAEBVQString@@_J@Z 00000001400427e0 f i iconhelper.obj
 0001:00041810       ??0LiquidPlot@@QEAA@PEAVQWidget@@@Z 0000000140042810 f   liquidplot.obj
 0001:00041950       ??1LiquidPlot@@UEAA@XZ     0000000140042950 f   liquidplot.obj
 0001:000419a0       ?SetPercent@LiquidPlot@@QEAAXH@Z 00000001400429a0 f   liquidplot.obj
 0001:000419d0       ?paintEvent@LiquidPlot@@EEAAXPEAVQPaintEvent@@@Z 00000001400429d0 f   liquidplot.obj
 0001:00041c40       ?DrawCircularPlot@LiquidPlot@@AEAAXPEAVQPainter@@VQRect@@@Z 0000000140042c40 f   liquidplot.obj
 0001:000438d0       ?timerEvent@LiquidPlot@@EEAAXPEAVQTimerEvent@@@Z 00000001400448d0 f   liquidplot.obj
 0001:00043940       ?CreateAllChildWnd@LiquidPlot@@AEAAXXZ 0000000140044940 f   liquidplot.obj
 0001:00043950       ?InitCtrl@LiquidPlot@@AEAAXXZ 0000000140044950 f   liquidplot.obj
 0001:00043ac0       ?InitSolts@LiquidPlot@@AEAAXXZ 0000000140044ac0 f   liquidplot.obj
 0001:00043ad0       ?Relayout@LiquidPlot@@AEAAXXZ 0000000140044ad0 f   liquidplot.obj
 0001:00043c10       ??$qMin@H@@YAAEBHAEBH0@Z   0000000140044c10 f i liquidplot.obj
 0001:00043c58       ??_ELiquidPlot@@WBA@EAAPEAXI@Z 0000000140044c58 f i liquidplot.obj
 0001:00043c70       ??_ELiquidPlot@@UEAAPEAXI@Z 0000000140044c70 f i liquidplot.obj
 0001:00043c70       ??_GLiquidPlot@@UEAAPEAXI@Z 0000000140044c70 f i liquidplot.obj
 0001:00043cb0       ??0PerfectClock@@QEAA@PEAVQWidget@@@Z 0000000140044cb0 f   perfectclock.obj
 0001:00043de0       ??1PerfectClock@@UEAA@XZ   0000000140044de0 f   perfectclock.obj
 0001:00043e30       ?paintEvent@PerfectClock@@EEAAXPEAVQPaintEvent@@@Z 0000000140044e30 f   perfectclock.obj
 0001:00043f10       ?paintClock@PerfectClock@@AEAAXPEAVQPainter@@VQRect@@@Z 0000000140044f10 f   perfectclock.obj
 0001:00044dd0       ?timerEvent@PerfectClock@@EEAAXPEAVQTimerEvent@@@Z 0000000140045dd0 f   perfectclock.obj
 0001:00044e50       ?CreateAllChildWnd@PerfectClock@@AEAAXXZ 0000000140045e50 f   perfectclock.obj
 0001:00044e60       ?InitCtrl@PerfectClock@@AEAAXXZ 0000000140045e60 f   perfectclock.obj
 0001:00045200       ?InitSolts@PerfectClock@@AEAAXXZ 0000000140046200 f   perfectclock.obj
 0001:00045210       ?Relayout@PerfectClock@@AEAAXXZ 0000000140046210 f   perfectclock.obj
 0001:00045220       ??0Clock@@QEAA@PEAVQWidget@@@Z 0000000140046220 f   perfectclock.obj
 0001:00045390       ?CreateAllChildWnd@Clock@@AEAAXXZ 0000000140046390 f   perfectclock.obj
 0001:00045400       ?InitCtrl@Clock@@AEAAXXZ   0000000140046400 f   perfectclock.obj
 0001:00045540       ?InitSolts@Clock@@AEAAXXZ  0000000140046540 f   perfectclock.obj
 0001:00045550       ?Relayout@Clock@@AEAAXXZ   0000000140046550 f   perfectclock.obj
 0001:00045620       ?mousePressEvent@Clock@@EEAAXPEAVQMouseEvent@@@Z 0000000140046620 f   perfectclock.obj
 0001:00045690       ?mouseDoubleClickEvent@Clock@@EEAAXPEAVQMouseEvent@@@Z 0000000140046690 f   perfectclock.obj
 0001:00045760       ?wheelEvent@Clock@@EEAAXPEAVQWheelEvent@@@Z 0000000140046760 f   perfectclock.obj
 0001:00045800       ?textRectF@@YA?AVQRectF@@NHN@Z 0000000140046800 f   perfectclock.obj
 0001:000458f0       ??$qCos@N@@YA?A_PN@Z       00000001400468f0 f i perfectclock.obj
 0001:00045910       ??$qMax@M@@YAAEBMAEBM0@Z   0000000140046910 f i perfectclock.obj
 0001:00045960       ??$qSin@N@@YA?A_PN@Z       0000000140046960 f i perfectclock.obj
 0001:0004597c       ??_EPerfectClock@@WBA@EAAPEAXI@Z 000000014004697c f i perfectclock.obj
 0001:00045990       ??_EPerfectClock@@UEAAPEAXI@Z 0000000140046990 f i perfectclock.obj
 0001:00045990       ??_GPerfectClock@@UEAAPEAXI@Z 0000000140046990 f i perfectclock.obj
 0001:000459d0       ?EnableDrakMode@PerfectClock@@QEAAX_N@Z 00000001400469d0 f i perfectclock.obj
 0001:00045a00       ?IsDrakMode@PerfectClock@@QEAA_NXZ 0000000140046a00 f i perfectclock.obj
 0001:00045a10       ??0MoviePicWidget@@QEAA@PEAVQWidget@@@Z 0000000140046a10 f   moviepicwidget.obj
 0001:00045aa0       ?SetPicList@MoviePicWidget@@QEAAXV?$QList@VQPixmap@@@@@Z 0000000140046aa0 f   moviepicwidget.obj
 0001:00045ae0       ?Start@MoviePicWidget@@QEAAXH@Z 0000000140046ae0 f   moviepicwidget.obj
 0001:00045b40       ?Stop@MoviePicWidget@@QEAAXXZ 0000000140046b40 f   moviepicwidget.obj
 0001:00045b70       ?paintEvent@MoviePicWidget@@EEAAXPEAVQPaintEvent@@@Z 0000000140046b70 f   moviepicwidget.obj
 0001:00045c00       ?timerEvent@MoviePicWidget@@EEAAXPEAVQTimerEvent@@@Z 0000000140046c00 f   moviepicwidget.obj
 0001:00045d60       ??$_Destroy_in_place@VQPixmap@@@std@@YAXAEAVQPixmap@@@Z 0000000140046d60 f i moviepicwidget.obj
 0001:00045d90       ??$_Destroy_range@PEAVQPixmap@@PEAV1@@std@@YAXPEAVQPixmap@@QEAV1@@Z 0000000140046d90 f i moviepicwidget.obj
 0001:00045dd0       ??$destroy@PEAVQPixmap@@@std@@YAXQEAVQPixmap@@0@Z 0000000140046dd0 f i moviepicwidget.obj
 0001:00045e20       ??1?$QArrayDataPointer@VQPixmap@@@@QEAA@XZ 0000000140046e20 f i moviepicwidget.obj
 0001:00045e60       ??1?$QList@VQPixmap@@@@QEAA@XZ 0000000140046e60 f i moviepicwidget.obj
 0001:00045e80       ??1MoviePicWidget@@UEAA@XZ 0000000140046e80 f i moviepicwidget.obj
 0001:00045ec0       ??4?$QArrayDataPointer@VQPixmap@@@@QEAAAEAU0@AEBU0@@Z 0000000140046ec0 f i moviepicwidget.obj
 0001:00045f10       ??4?$QList@VQPixmap@@@@QEAAAEAV0@AEBV0@@Z 0000000140046f10 f i moviepicwidget.obj
 0001:00045f40       ??A?$QList@VQPixmap@@@@QEAAAEAVQPixmap@@_J@Z 0000000140046f40 f i moviepicwidget.obj
 0001:00045f68       ??_EMoviePicWidget@@WBA@EAAPEAXI@Z 0000000140046f68 f i moviepicwidget.obj
 0001:00045f80       ??_EMoviePicWidget@@UEAAPEAXI@Z 0000000140046f80 f i moviepicwidget.obj
 0001:00045f80       ??_GMoviePicWidget@@UEAAPEAXI@Z 0000000140046f80 f i moviepicwidget.obj
 0001:00045fc0       ?allocate@?$QTypedArrayData@VQPixmap@@@@SA?AU?$pair@PEAU?$QTypedArrayData@VQPixmap@@@@PEAVQPixmap@@@std@@_JW4AllocationOption@QArrayData@@@Z 0000000140046fc0 f i moviepicwidget.obj
 0001:00045fc0       ?allocate@?$QTypedArrayData@VQString@@@@SA?AU?$pair@PEAU?$QTypedArrayData@VQString@@@@PEAVQString@@@std@@_JW4AllocationOption@QArrayData@@@Z 0000000140046fc0 f i keyhelper.obj
 0001:00046030       ?allocateGrow@?$QArrayDataPointer@VQPixmap@@@@SA?AU1@AEBU1@_JW4GrowthPosition@QArrayData@@@Z 0000000140047030 f i moviepicwidget.obj
 0001:00046030       ?allocateGrow@?$QArrayDataPointer@VQString@@@@SA?AU1@AEBU1@_JW4GrowthPosition@QArrayData@@@Z 0000000140047030 f i keyhelper.obj
 0001:000462e0       ?copyAppend@?$QGenericArrayOps@VQPixmap@@@QtPrivate@@QEAAXPEBVQPixmap@@0@Z 00000001400472e0 f i moviepicwidget.obj
 0001:00046390       ?data@?$QList@VQPixmap@@@@QEAAPEAVQPixmap@@XZ 0000000140047390 f i moviepicwidget.obj
 0001:000463c0       ?destroyAll@?$QGenericArrayOps@VQPixmap@@@QtPrivate@@QEAAXXZ 00000001400473c0 f i moviepicwidget.obj
 0001:00046400       ?detach@?$QArrayDataPointer@VQPixmap@@@@QEAAXPEAU1@@Z 0000000140047400 f i moviepicwidget.obj
 0001:00046440       ?detach@?$QList@VQPixmap@@@@QEAAXXZ 0000000140047440 f i moviepicwidget.obj
 0001:00046470       ?freeSpaceAtBegin@?$QArrayDataPointer@VQPixmap@@@@QEBA_JXZ 0000000140047470 f i moviepicwidget.obj
 0001:00046470       ?freeSpaceAtBegin@?$QArrayDataPointer@VQString@@@@QEBA_JXZ 0000000140047470 f i keyhelper.obj
 0001:000464c0       ?freeSpaceAtEnd@?$QArrayDataPointer@VQPixmap@@@@QEBA_JXZ 00000001400474c0 f i moviepicwidget.obj
 0001:000464c0       ?freeSpaceAtEnd@?$QArrayDataPointer@VQString@@@@QEBA_JXZ 00000001400474c0 f i keyhelper.obj
 0001:00046510       ?moveAppend@?$QGenericArrayOps@VQPixmap@@@QtPrivate@@QEAAXPEAVQPixmap@@0@Z 0000000140047510 f i moviepicwidget.obj
 0001:000465e0       ?reallocate@?$QMovableArrayOps@VQPixmap@@@QtPrivate@@QEAAX_JW4AllocationOption@QArrayData@@@Z 00000001400475e0 f i moviepicwidget.obj
 0001:000465e0       ?reallocate@?$QMovableArrayOps@VQString@@@QtPrivate@@QEAAX_JW4AllocationOption@QArrayData@@@Z 00000001400475e0 f i keyhelper.obj
 0001:00046650       ?reallocateAndGrow@?$QArrayDataPointer@VQPixmap@@@@QEAAXW4GrowthPosition@QArrayData@@_JPEAU1@@Z 0000000140047650 f i moviepicwidget.obj
 0001:000468a0       ?reallocateUnaligned@?$QTypedArrayData@VQPixmap@@@@SA?AU?$pair@PEAU?$QTypedArrayData@VQPixmap@@@@PEAVQPixmap@@@std@@PEAU1@PEAVQPixmap@@_JW4AllocationOption@QArrayData@@@Z 00000001400478a0 f i moviepicwidget.obj
 0001:000468a0       ?reallocateUnaligned@?$QTypedArrayData@VQString@@@@SA?AU?$pair@PEAU?$QTypedArrayData@VQString@@@@PEAVQString@@@std@@PEAU1@PEAVQString@@_JW4AllocationOption@QArrayData@@@Z 00000001400478a0 f i keyhelper.obj
 0001:00046920       ??0NotificationPane@@QEAA@PEAVQWidget@@@Z 0000000140047920 f   notificationpane.obj
 0001:00046ee0       ?Start@NotificationPane@@QEAAXH@Z 0000000140047ee0 f   notificationpane.obj
 0001:00046f50       ?Notice@NotificationPane@@QEAAXUTMsgInfo@1@@Z 0000000140047f50 f   notificationpane.obj
 0001:00046f90       ?enterEvent@NotificationPane@@AEAAXPEAVQEvent@@@Z 0000000140047f90 f   notificationpane.obj
 0001:00046fc0       ?leaveEvent@NotificationPane@@EEAAXPEAVQEvent@@@Z 0000000140047fc0 f   notificationpane.obj
 0001:00047030       ?paintEvent@NotificationPane@@EEAAXPEAVQPaintEvent@@@Z 0000000140048030 f   notificationpane.obj
 0001:000475c0       ?OnTimerHideTimeOut@NotificationPane@@QEAAXXZ 00000001400485c0 f   notificationpane.obj
 0001:00047600       ??0NotificationMgr@@QEAA@PEAVQWidget@@@Z 0000000140048600 f   notificationpane.obj
 0001:000477a0       ?Init@NotificationMgr@@SAXPEAVQWidget@@@Z 00000001400487a0 f   notificationpane.obj
 0001:00047810       ?GetInstance@NotificationMgr@@SAPEAV1@XZ 0000000140048810 f   notificationpane.obj
 0001:00047880       ?ExitInstance@NotificationMgr@@SAXXZ 0000000140048880 f   notificationpane.obj
 0001:000478f0       ?Notice@NotificationMgr@@QEAAXVQString@@0_NI@Z 00000001400488f0 f   notificationpane.obj
 0001:00047d60       ?ShowAll@NotificationMgr@@AEAAXXZ 0000000140048d60 f   notificationpane.obj
 0001:00048360       ?CompareData@NotificationMgr@@CA_NAEBUTNoteItem@1@0@Z 0000000140049360 f   notificationpane.obj
 0001:00048390       ?OnItemHide@NotificationMgr@@QEAAXH@Z 0000000140049390 f   notificationpane.obj
 0001:00048520       ??$emplace@AEBUTNoteItem@NotificationMgr@@@?$QMovableArrayOps@UTNoteItem@NotificationMgr@@@QtPrivate@@QEAAX_JAEBUTNoteItem@NotificationMgr@@@Z 0000000140049520 f i notificationpane.obj
 0001:00048800       ??$emplaceBack@AEBUTNoteItem@NotificationMgr@@@?$QList@UTNoteItem@NotificationMgr@@@@QEAAAEAUTNoteItem@NotificationMgr@@AEBU12@@Z 0000000140049800 f i notificationpane.obj
 0001:00048890       ??$qToUnderlying@W4AlignmentFlag@Qt@@@@YAHW4AlignmentFlag@Qt@@@Z 0000000140049890 f i notificationpane.obj
 0001:00048890       ??$qToUnderlying@W4TextFlag@Qt@@@@YAHW4TextFlag@Qt@@@Z 0000000140049890 f i notificationpane.obj
 0001:000488a0       ??0TMsgInfo@NotificationPane@@QEAA@AEBU01@@Z 00000001400498a0 f i notificationpane.obj
 0001:00048920       ??0TMsgInfo@NotificationPane@@QEAA@XZ 0000000140049920 f i notificationpane.obj
 0001:00048960       ??0TNoteItem@NotificationMgr@@QEAA@XZ 0000000140049960 f i notificationpane.obj
 0001:000489b0       ??1NotificationMgr@@UEAA@XZ 00000001400499b0 f i notificationpane.obj
 0001:000489f0       ??1NotificationPane@@UEAA@XZ 00000001400499f0 f i notificationpane.obj
 0001:00048a30       ??1TMsgInfo@NotificationPane@@QEAA@XZ 0000000140049a30 f i notificationpane.obj
 0001:00048a70       ??4TMsgInfo@NotificationPane@@QEAAAEAU01@AEBU01@@Z 0000000140049a70 f i notificationpane.obj
 0001:00048ad0       ??6?$QList@UTNoteItem@NotificationMgr@@@@QEAAAEAV0@AEBUTNoteItem@NotificationMgr@@@Z 0000000140049ad0 f i notificationpane.obj
 0001:00048b00       ??A?$QList@UTNoteItem@NotificationMgr@@@@QEAAAEAUTNoteItem@NotificationMgr@@_J@Z 0000000140049b00 f i notificationpane.obj
 0001:00048b30       ??UQt@@YAHW4AlignmentFlag@0@W4TextFlag@0@@Z 0000000140049b30 f i notificationpane.obj
 0001:00048b60       ??_ENotificationPane@@WBA@EAAPEAXI@Z 0000000140049b60 f i notificationpane.obj
 0001:00048b70       ??_ENotificationMgr@@UEAAPEAXI@Z 0000000140049b70 f i notificationpane.obj
 0001:00048b70       ??_GNotificationMgr@@UEAAPEAXI@Z 0000000140049b70 f i notificationpane.obj
 0001:00048bb0       ??_ENotificationPane@@UEAAPEAXI@Z 0000000140049bb0 f i notificationpane.obj
 0001:00048bb0       ??_GNotificationPane@@UEAAPEAXI@Z 0000000140049bb0 f i notificationpane.obj
 0001:00048bf0       ?SetId@NotificationPane@@QEAAXH@Z 0000000140049bf0 f i notificationpane.obj
 0001:00048c10       ?append@?$QList@UTNoteItem@NotificationMgr@@@@QEAAXAEBUTNoteItem@NotificationMgr@@@Z 0000000140049c10 f i notificationpane.obj
 0001:00048c40       ?at@?$QList@UTNoteItem@NotificationMgr@@@@QEBAAEBUTNoteItem@NotificationMgr@@_J@Z 0000000140049c40 f i notificationpane.obj
 0001:00048c70       ?data@?$QList@UTNoteItem@NotificationMgr@@@@QEAAPEAUTNoteItem@NotificationMgr@@XZ 0000000140049c70 f i notificationpane.obj
 0001:00048ca0       ?detachAndGrow@?$QArrayDataPointer@UTNoteItem@NotificationMgr@@@@QEAAXW4GrowthPosition@QArrayData@@_JPEAPEBUTNoteItem@NotificationMgr@@PEAU1@@Z 0000000140049ca0 f i notificationpane.obj
 0001:00048d50       ?relocate@?$QArrayDataPointer@UTNoteItem@NotificationMgr@@@@QEAAX_JPEAPEBUTNoteItem@NotificationMgr@@@Z 0000000140049d50 f i notificationpane.obj
 0001:00048de0       ?tryReadjustFreeSpace@?$QArrayDataPointer@UTNoteItem@NotificationMgr@@@@QEAA_NW4GrowthPosition@QArrayData@@_JPEAPEBUTNoteItem@NotificationMgr@@@Z 0000000140049de0 f i notificationpane.obj
 0001:00048f20       ??1CMonitorThread@@UEAA@XZ 0000000140049f20 f   monitorthread.obj
 0001:00048f60       ?Instance@CMonitorThread@@SAPEAV1@XZ 0000000140049f60 f   monitorthread.obj
 0001:00049010       ?SetParam@CMonitorThread@@QEAAXH@Z 000000014004a010 f   monitorthread.obj
 0001:00049030       ?SetInterval@CMonitorThread@@QEAAXH@Z 000000014004a030 f   monitorthread.obj
 0001:00049050       ?run@CMonitorThread@@MEAAXXZ 000000014004a050 f   monitorthread.obj
 0001:000491f0       ??0CMonitorThread@@AEAA@PEAVQObject@@@Z 000000014004a1f0 f   monitorthread.obj
 0001:000498f0       ??$?0VQByteArray@@$00@QByteArrayView@@QEAA@AEBVQByteArray@@@Z 000000014004a8f0 f i monitorthread.obj
 0001:00049960       ??$fromLocal8Bit@X@QString@@SA?AV0@AEBVQByteArray@@@Z 000000014004a960 f i monitorthread.obj
 0001:000499c0       ??H@YA?AVQString@@$$QEAV0@PEBD@Z 000000014004a9c0 f i monitorthread.obj
 0001:00049a20       ??_ECMonitorThread@@UEAAPEAXI@Z 000000014004aa20 f i monitorthread.obj
 0001:00049a20       ??_GCMonitorThread@@UEAAPEAXI@Z 000000014004aa20 f i monitorthread.obj
 0001:00049a60       ??0Splitline@@QEAA@PEAVQWidget@@@Z 000000014004aa60 f   splitline.obj
 0001:00049b40       ?SetHorizontalDirection@Splitline@@QEAAX_N@Z 000000014004ab40 f   splitline.obj
 0001:00049b70       ?SetColor@Splitline@@QEAAXVQColor@@@Z 000000014004ab70 f   splitline.obj
 0001:00049bb0       ?SetMargin@Splitline@@QEAAXH@Z 000000014004abb0 f   splitline.obj
 0001:00049be0       ?paintEvent@Splitline@@EEAAXPEAVQPaintEvent@@@Z 000000014004abe0 f   splitline.obj
 0001:00049e0c       ??_ESplitline@@WBA@EAAPEAXI@Z 000000014004ae0c f i splitline.obj
 0001:00049e20       ??_ESplitline@@UEAAPEAXI@Z 000000014004ae20 f i splitline.obj
 0001:00049e20       ??_GSplitline@@UEAAPEAXI@Z 000000014004ae20 f i splitline.obj
 0001:00049e60       ??0CBaseDlg@@QEAA@PEAVQWidget@@@Z 000000014004ae60 f   basedlg.obj
 0001:00049f80       ??1CBaseDlg@@UEAA@XZ       000000014004af80 f   basedlg.obj
 0001:00049fc0       ?SetTitle@CBaseDlg@@QEAAXAEBVQString@@@Z 000000014004afc0 f   basedlg.obj
 0001:0004a000       ?SetTitleHeight@CBaseDlg@@QEAAXH@Z 000000014004b000 f   basedlg.obj
 0001:0004a040       ?SetTitleVisible@CBaseDlg@@QEAAX_N@Z 000000014004b040 f   basedlg.obj
 0001:0004a090       ?SetDlgFlags@CBaseDlg@@QEAAXV?$QFlags@W4WindowType@Qt@@@@@Z 000000014004b090 f   basedlg.obj
 0001:0004a260       ?centralWidget@CBaseDlg@@IEBAPEAVQWidget@@XZ 000000014004b260 f   basedlg.obj
 0001:0004a280       ?eventFilter@CBaseDlg@@MEAA_NPEAVQObject@@PEAVQEvent@@@Z 000000014004b280 f   basedlg.obj
 0001:0004a480       ?InitCtrl@CBaseDlg@@AEAAXXZ 000000014004b480 f   basedlg.obj
 0001:0004bba0       ?OnBtnMinClicked@CBaseDlg@@UEAAXXZ 000000014004cba0 f   basedlg.obj
 0001:0004bbc0       ?OnBtnMaxClicked@CBaseDlg@@UEAAXXZ 000000014004cbc0 f   basedlg.obj
 0001:0004bc70       ?OnBtnCloseClicked@CBaseDlg@@UEAAXXZ 000000014004cc70 f   basedlg.obj
 0001:0004bca0       ?OnDisconnected@CBaseDlg@@UEAAXXZ 000000014004cca0 f   basedlg.obj
 0001:0004bcc4       ??_ECBaseDlg@@WBA@EAAPEAXI@Z 000000014004ccc4 f i basedlg.obj
 0001:0004bcd0       ??_ECBaseDlg@@UEAAPEAXI@Z  000000014004ccd0 f i basedlg.obj
 0001:0004bcd0       ??_GCBaseDlg@@UEAAPEAXI@Z  000000014004ccd0 f i basedlg.obj
 0001:0004bd10       ??0LimeCom_ShadowHelper@@QEAA@XZ 000000014004cd10 f   LimeCom_ShadowHelper.obj
 0001:0004bda0       ??1LimeCom_ShadowHelper@@QEAA@XZ 000000014004cda0 f   LimeCom_ShadowHelper.obj
 0001:0004bdd0       ?DwmIsCompositionEnabled@LimeCom_ShadowHelper@@QEBAJPEAH@Z 000000014004cdd0 f   LimeCom_ShadowHelper.obj
 0001:0004be20       ?DwmExtendFrameIntoClientArea@LimeCom_ShadowHelper@@QEBAJPEAUHWND__@@PEBU_MARGINS@@@Z 000000014004ce20 f   LimeCom_ShadowHelper.obj
 0001:0004be70       ?instance@LimeCom_ShadowHelper@@SAPEBV1@XZ 000000014004ce70 f   LimeCom_ShadowHelper.obj
 0001:0004bee0       ??0WidgetData@@QEAA@PEAVFramelessHelperPrivate@@PEAVQWidget@@@Z 000000014004cee0 f   WidgetData.obj
 0001:0004c000       ??1WidgetData@@QEAA@XZ     000000014004d000 f   WidgetData.obj
 0001:0004c0d0       ?widget@WidgetData@@QEAAPEAVQWidget@@XZ 000000014004d0d0 f   WidgetData.obj
 0001:0004c0f0       ?handleWidgetEvent@WidgetData@@QEAAXPEAVQEvent@@@Z 000000014004d0f0 f   WidgetData.obj
 0001:0004c1a0       ?updateRubberBandStatus@WidgetData@@QEAAXXZ 000000014004d1a0 f   WidgetData.obj
 0001:0004c2b0       ?updateCursorShape@WidgetData@@AEAAXAEBVQPoint@@@Z 000000014004d2b0 f   WidgetData.obj
 0001:0004c600       ?resizeWidget@WidgetData@@AEAAXAEBVQPoint@@@Z 000000014004d600 f   WidgetData.obj
 0001:0004ca20       ?moveWidget@WidgetData@@AEAAXAEBVQPoint@@@Z 000000014004da20 f   WidgetData.obj
 0001:0004cad0       ?handleMousePressEvent@WidgetData@@AEAAXPEAVQMouseEvent@@@Z 000000014004dad0 f   WidgetData.obj
 0001:0004ccd0       ?handleMouseReleaseEvent@WidgetData@@AEAAXPEAVQMouseEvent@@@Z 000000014004dcd0 f   WidgetData.obj
 0001:0004cd90       ?handleMouseMoveEvent@WidgetData@@AEAAXPEAVQMouseEvent@@@Z 000000014004dd90 f   WidgetData.obj
 0001:0004ce70       ?handleLeaveEvent@WidgetData@@AEAAXPEAVQEvent@@@Z 000000014004de70 f   WidgetData.obj
 0001:0004ceb0       ?handleHoverMoveEvent@WidgetData@@AEAAXPEAVQHoverEvent@@@Z 000000014004deb0 f   WidgetData.obj
 0001:0004cf18       ??_EQRubberBand@@WBA@EAAPEAXI@Z 000000014004df18 f i WidgetData.obj
 0001:0004cf30       ??_EQRubberBand@@UEAAPEAXI@Z 000000014004df30 f i WidgetData.obj
 0001:0004cf30       ??_GQRubberBand@@UEAAPEAXI@Z 000000014004df30 f i WidgetData.obj
 0001:0004cf70       ??0CursorPosCalculator@@QEAA@XZ 000000014004df70 f   CursorPosCalculator.obj
 0001:0004cff0       ?reset@CursorPosCalculator@@QEAAXXZ 000000014004dff0 f   CursorPosCalculator.obj
 0001:0004d050       ?recalculate@CursorPosCalculator@@QEAAXAEBVQPoint@@AEBVQRect@@@Z 000000014004e050 f   CursorPosCalculator.obj
 0001:0004d350       ??0FramelessHelper@@QEAA@PEAVQObject@@@Z 000000014004e350 f   FramelessHelper.obj
 0001:0004d420       ??1FramelessHelper@@UEAA@XZ 000000014004e420 f   FramelessHelper.obj
 0001:0004d550       ?activateOn@FramelessHelper@@QEAAXPEAVQWidget@@@Z 000000014004e550 f   FramelessHelper.obj
 0001:0004d620       ?removeFrom@FramelessHelper@@QEAAXPEAVQWidget@@@Z 000000014004e620 f   FramelessHelper.obj
 0001:0004d6b0       ?setWidgetMovable@FramelessHelper@@QEAAX_N@Z 000000014004e6b0 f   FramelessHelper.obj
 0001:0004d6e0       ?setWidgetResizable@FramelessHelper@@QEAAX_N@Z 000000014004e6e0 f   FramelessHelper.obj
 0001:0004d710       ?setRubberBandOnMove@FramelessHelper@@QEAAX_N@Z 000000014004e710 f   FramelessHelper.obj
 0001:0004d7d0       ?setRubberBandOnResize@FramelessHelper@@QEAAX_N@Z 000000014004e7d0 f   FramelessHelper.obj
 0001:0004d890       ?setBorderWidth@FramelessHelper@@QEAAXI@Z 000000014004e890 f   FramelessHelper.obj
 0001:0004d8c0       ?setTitleHeight@FramelessHelper@@QEAAXI@Z 000000014004e8c0 f   FramelessHelper.obj
 0001:0004d8f0       ?widgetResizable@FramelessHelper@@QEAA_NXZ 000000014004e8f0 f   FramelessHelper.obj
 0001:0004d910       ?widgetMovable@FramelessHelper@@QEAA_NXZ 000000014004e910 f   FramelessHelper.obj
 0001:0004d930       ?rubberBandOnMove@FramelessHelper@@QEAA_NXZ 000000014004e930 f   FramelessHelper.obj
 0001:0004d950       ?rubberBandOnResisze@FramelessHelper@@QEAA_NXZ 000000014004e950 f   FramelessHelper.obj
 0001:0004d970       ?borderWidth@FramelessHelper@@QEAAIXZ 000000014004e970 f   FramelessHelper.obj
 0001:0004d990       ?titleHeight@FramelessHelper@@QEAAIXZ 000000014004e990 f   FramelessHelper.obj
 0001:0004d9b0       ?eventFilter@FramelessHelper@@MEAA_NPEAVQObject@@PEAVQEvent@@@Z 000000014004e9b0 f   FramelessHelper.obj
 0001:0004da70       ??$?0Vconst_iterator@?$QHash@PEAVQWidget@@PEAVWidgetData@@@@$00@?$QList@PEAVWidgetData@@@@QEAA@Vconst_iterator@?$QHash@PEAVQWidget@@PEAVWidgetData@@@@0@Z 000000014004ea70 f i FramelessHelper.obj
 0001:0004dc00       ??$?0Vkey_iterator@?$QHash@PEAVQWidget@@PEAVWidgetData@@@@$00@?$QList@PEAVQWidget@@@@QEAA@Vkey_iterator@?$QHash@PEAVQWidget@@PEAVWidgetData@@@@0@Z 000000014004ec00 f i FramelessHelper.obj
 0001:0004dd90       ??$appendIteratorRange@Vconst_iterator@?$QHash@PEAVQWidget@@PEAVWidgetData@@@@@?$QCommonArrayOps@PEAVWidgetData@@@QtPrivate@@QEAAXVconst_iterator@?$QHash@PEAVQWidget@@PEAVWidgetData@@@@0_N@Z 000000014004ed90 f i FramelessHelper.obj
 0001:0004de90       ??$appendIteratorRange@Vkey_iterator@?$QHash@PEAVQWidget@@PEAVWidgetData@@@@@?$QCommonArrayOps@PEAVQWidget@@@QtPrivate@@QEAAXVkey_iterator@?$QHash@PEAVQWidget@@PEAVWidgetData@@@@0_N@Z 000000014004ee90 f i FramelessHelper.obj
 0001:0004dfa0       ??$calculateHash@PEAVQWidget@@@QHashPrivate@@YA_KAEBQEAVQWidget@@_K@Z 000000014004efa0 f i FramelessHelper.obj
 0001:0004dfd0       ??$createInPlace@AEBQEAVQxtGlobalShortcut@@@?$Node@U?$pair@II@std@@PEAVQxtGlobalShortcut@@@QHashPrivate@@SAXPEAU01@$$QEAU?$pair@II@std@@AEBQEAVQxtGlobalShortcut@@@Z 000000014004efd0 f i qxtglobalshortcut.obj
 0001:0004dfd0       ??$createInPlace@AEBQEAVWidgetData@@@?$Node@PEAVQWidget@@PEAVWidgetData@@@QHashPrivate@@SAXPEAU01@$$QEAPEAVQWidget@@AEBQEAVWidgetData@@@Z 000000014004efd0 f i FramelessHelper.obj
 0001:0004dfd0       ??$createInPlace@PEAVQxtGlobalShortcut@@@?$Node@U?$pair@II@std@@PEAVQxtGlobalShortcut@@@QHashPrivate@@SAXPEAU01@$$QEAU?$pair@II@std@@$$QEAPEAVQxtGlobalShortcut@@@Z 000000014004efd0 f i qxtglobalshortcut.obj
 0001:0004dfd0       ??$createInPlace@PEAVWidgetData@@@?$Node@PEAVQWidget@@PEAVWidgetData@@@QHashPrivate@@SAXPEAU01@$$QEAPEAVQWidget@@$$QEAPEAVWidgetData@@@Z 000000014004efd0 f i FramelessHelper.obj
 0001:0004e040       ??$distance@Vconst_iterator@?$QHash@PEAVQWidget@@PEAVWidgetData@@@@@std@@YA_JVconst_iterator@?$QHash@PEAVQWidget@@PEAVWidgetData@@@@0@Z 000000014004f040 f i FramelessHelper.obj
 0001:0004e0e0       ??$distance@Vkey_iterator@?$QHash@PEAVQWidget@@PEAVWidgetData@@@@@std@@YA_JVkey_iterator@?$QHash@PEAVQWidget@@PEAVWidgetData@@@@0@Z 000000014004f0e0 f i FramelessHelper.obj
 0001:0004e1a0       ??$emplace@AEBQEAVWidgetData@@@?$QHash@PEAVQWidget@@PEAVWidgetData@@@@QEAA?AViterator@0@$$QEAPEAVQWidget@@AEBQEAVWidgetData@@@Z 000000014004f1a0 f i FramelessHelper.obj
 0001:0004e2d0       ??$emplace@AEBQEAVWidgetData@@@?$QHash@PEAVQWidget@@PEAVWidgetData@@@@QEAA?AViterator@0@AEBQEAVQWidget@@AEBQEAVWidgetData@@@Z 000000014004f2d0 f i FramelessHelper.obj
 0001:0004e340       ??$emplaceValue@AEBQEAVQxtGlobalShortcut@@@?$Node@U?$pair@II@std@@PEAVQxtGlobalShortcut@@@QHashPrivate@@QEAAXAEBQEAVQxtGlobalShortcut@@@Z 000000014004f340 f i qxtglobalshortcut.obj
 0001:0004e340       ??$emplaceValue@AEBQEAVWidgetData@@@?$Node@PEAVQWidget@@PEAVWidgetData@@@QHashPrivate@@QEAAXAEBQEAVWidgetData@@@Z 000000014004f340 f i FramelessHelper.obj
 0001:0004e340       ??$emplaceValue@PEAVQxtGlobalShortcut@@@?$Node@U?$pair@II@std@@PEAVQxtGlobalShortcut@@@QHashPrivate@@QEAAX$$QEAPEAVQxtGlobalShortcut@@@Z 000000014004f340 f i qxtglobalshortcut.obj
 0001:0004e340       ??$emplaceValue@PEAVWidgetData@@@?$Node@PEAVQWidget@@PEAVWidgetData@@@QHashPrivate@@QEAAX$$QEAPEAVWidgetData@@@Z 000000014004f340 f i FramelessHelper.obj
 0001:0004e370       ??$emplace_helper@AEBQEAVWidgetData@@@?$QHash@PEAVQWidget@@PEAVWidgetData@@@@AEAA?AViterator@0@$$QEAPEAVQWidget@@AEBQEAVWidgetData@@@Z 000000014004f370 f i FramelessHelper.obj
 0001:0004e370       ??$emplace_helper@PEAVWidgetData@@@?$QHash@PEAVQWidget@@PEAVWidgetData@@@@AEAA?AViterator@0@$$QEAPEAVQWidget@@$$QEAPEAVWidgetData@@@Z 000000014004f370 f i FramelessHelper.obj
 0001:0004e480       ??$qHash@PEAVQWidget@@$00@@YA_KAEBQEAVQWidget@@_K@Z 000000014004f480 f i FramelessHelper.obj
 0001:0004e4b0       ??$qHash@VQWidget@@@@YA_KPEBVQWidget@@_K@Z 000000014004f4b0 f i FramelessHelper.obj
 0001:0004e4e0       ??0?$Data@U?$Node@PEAVQWidget@@PEAVWidgetData@@@QHashPrivate@@@QHashPrivate@@QEAA@AEBU01@@Z 000000014004f4e0 f i FramelessHelper.obj
 0001:0004e5b0       ??0?$Data@U?$Node@PEAVQWidget@@PEAVWidgetData@@@QHashPrivate@@@QHashPrivate@@QEAA@_K@Z 000000014004f5b0 f i FramelessHelper.obj
 0001:0004e5b0       ??0?$Data@U?$Node@U?$pair@II@std@@PEAVQxtGlobalShortcut@@@QHashPrivate@@@QHashPrivate@@QEAA@_K@Z 000000014004f5b0 f i qxtglobalshortcut.obj
 0001:0004e680       ??0?$QArrayDataPointer@PEAVQWidget@@@@QEAA@$$QEAU0@@Z 000000014004f680 f i FramelessHelper.obj
 0001:0004e680       ??0?$QArrayDataPointer@PEAVWidgetData@@@@QEAA@$$QEAU0@@Z 000000014004f680 f i FramelessHelper.obj
 0001:0004e6f0       ??0?$QHash@PEAVQWidget@@PEAVWidgetData@@@@QEAA@AEBV0@@Z 000000014004f6f0 f i FramelessHelper.obj
 0001:0004e6f0       ??0?$QHash@U?$pair@II@std@@PEAVQxtGlobalShortcut@@@@QEAA@AEBV0@@Z 000000014004f6f0 f i qxtglobalshortcut.obj
 0001:0004e740       ??0?$Span@U?$Node@PEAVQWidget@@PEAVWidgetData@@@QHashPrivate@@@QHashPrivate@@QEAA@XZ 000000014004f740 f i FramelessHelper.obj
 0001:0004e740       ??0?$Span@U?$Node@U?$pair@II@std@@PEAVQxtGlobalShortcut@@@QHashPrivate@@@QHashPrivate@@QEAA@XZ 000000014004f740 f i qxtglobalshortcut.obj
 0001:0004e7a0       ??0Bucket@?$Data@U?$Node@PEAVQWidget@@PEAVWidgetData@@@QHashPrivate@@@QHashPrivate@@QEAA@PEBU12@_K@Z 000000014004f7a0 f i FramelessHelper.obj
 0001:0004e7a0       ??0Bucket@?$Data@U?$Node@U?$pair@II@std@@PEAVQxtGlobalShortcut@@@QHashPrivate@@@QHashPrivate@@QEAA@PEBU12@_K@Z 000000014004f7a0 f i qxtglobalshortcut.obj
 0001:0004e7f0       ??0FramelessHelperPrivate@@QEAA@XZ 000000014004f7f0 f i FramelessHelper.obj
 0001:0004e840       ??0const_iterator@?$QHash@PEAVQWidget@@PEAVWidgetData@@@@AEAA@U?$iterator@U?$Node@PEAVQWidget@@PEAVWidgetData@@@QHashPrivate@@@QHashPrivate@@@Z 000000014004f840 f i FramelessHelper.obj
 0001:0004e840       ??0iterator@?$QHash@PEAVQWidget@@PEAVWidgetData@@@@AEAA@U?$iterator@U?$Node@PEAVQWidget@@PEAVWidgetData@@@QHashPrivate@@@QHashPrivate@@@Z 000000014004f840 f i FramelessHelper.obj
 0001:0004e840       ??0iterator@?$QHash@U?$pair@II@std@@PEAVQxtGlobalShortcut@@@@AEAA@U?$iterator@U?$Node@U?$pair@II@std@@PEAVQxtGlobalShortcut@@@QHashPrivate@@@QHashPrivate@@@Z 000000014004f840 f i qxtglobalshortcut.obj
 0001:0004e840       ??0key_iterator@?$QHash@PEAVQWidget@@PEAVWidgetData@@@@QEAA@Vconst_iterator@1@@Z 000000014004f840 f i FramelessHelper.obj
 0001:0004e870       ??0const_iterator@?$QHash@PEAVQWidget@@PEAVWidgetData@@@@QEAA@XZ 000000014004f870 f i FramelessHelper.obj
 0001:0004e890       ??1?$Data@U?$Node@PEAVQWidget@@PEAVWidgetData@@@QHashPrivate@@@QHashPrivate@@QEAA@XZ 000000014004f890 f i FramelessHelper.obj
 0001:0004e890       ??1?$Data@U?$Node@U?$pair@II@std@@PEAVQxtGlobalShortcut@@@QHashPrivate@@@QHashPrivate@@QEAA@XZ 000000014004f890 f i qxtglobalshortcut.obj
 0001:0004e8e0       ??1?$QHash@PEAVQWidget@@PEAVWidgetData@@@@QEAA@XZ 000000014004f8e0 f i FramelessHelper.obj
 0001:0004e8e0       ??1?$QHash@U?$pair@II@std@@PEAVQxtGlobalShortcut@@@@QEAA@XZ 000000014004f8e0 f i qxtglobalshortcut.obj
 0001:0004e950       ??1?$Span@U?$Node@PEAVQWidget@@PEAVWidgetData@@@QHashPrivate@@@QHashPrivate@@QEAA@XZ 000000014004f950 f i FramelessHelper.obj
 0001:0004e950       ??1?$Span@U?$Node@U?$pair@II@std@@PEAVQxtGlobalShortcut@@@QHashPrivate@@@QHashPrivate@@QEAA@XZ 000000014004f950 f i qxtglobalshortcut.obj
 0001:0004e970       ??1FramelessHelperPrivate@@QEAA@XZ 000000014004f970 f i FramelessHelper.obj
 0001:0004e990       ??4?$QArrayDataPointer@PEAVQWidget@@@@QEAAAEAU0@$$QEAU0@@Z 000000014004f990 f i FramelessHelper.obj
 0001:0004e990       ??4?$QArrayDataPointer@PEAVWidgetData@@@@QEAAAEAU0@$$QEAU0@@Z 000000014004f990 f i FramelessHelper.obj
 0001:0004e9f0       ??8?$iterator@U?$Node@PEAVQWidget@@PEAVWidgetData@@@QHashPrivate@@@QHashPrivate@@QEBA_NU01@@Z 000000014004f9f0 f i FramelessHelper.obj
 0001:0004e9f0       ??8QHashPrivate@@YA_NUBucket@?$Data@U?$Node@PEAVQWidget@@PEAVWidgetData@@@QHashPrivate@@@0@0@Z 000000014004f9f0 f i FramelessHelper.obj
 0001:0004e9f0       ??8QHashPrivate@@YA_NUBucket@?$Data@U?$Node@U?$pair@II@std@@PEAVQxtGlobalShortcut@@@QHashPrivate@@@0@0@Z 000000014004f9f0 f i qxtglobalshortcut.obj
 0001:0004ea40       ??9?$iterator@U?$Node@PEAVQWidget@@PEAVWidgetData@@@QHashPrivate@@@QHashPrivate@@QEBA_NU01@@Z 000000014004fa40 f i FramelessHelper.obj
 0001:0004eaa0       ??9const_iterator@?$QHash@PEAVQWidget@@PEAVWidgetData@@@@QEBA_NAEBV01@@Z 000000014004faa0 f i FramelessHelper.obj
 0001:0004eaf0       ??9key_iterator@?$QHash@PEAVQWidget@@PEAVWidgetData@@@@QEBA_NV01@@Z 000000014004faf0 f i FramelessHelper.obj
 0001:0004eb20       ??A?$QList@PEAVQWidget@@@@QEAAAEAPEAVQWidget@@_J@Z 000000014004fb20 f i FramelessHelper.obj
 0001:0004eb50       ??Dconst_iterator@?$QHash@PEAVQWidget@@PEAVWidgetData@@@@QEBAAEBQEAVWidgetData@@XZ 000000014004fb50 f i FramelessHelper.obj
 0001:0004eb70       ??Dkey_iterator@?$QHash@PEAVQWidget@@PEAVWidgetData@@@@QEBAAEBQEAVQWidget@@XZ 000000014004fb70 f i FramelessHelper.obj
 0001:0004eb90       ??E?$iterator@U?$Node@PEAVQWidget@@PEAVWidgetData@@@QHashPrivate@@@QHashPrivate@@QEAA?AU01@XZ 000000014004fb90 f i FramelessHelper.obj
 0001:0004ec20       ??Econst_iterator@?$QHash@PEAVQWidget@@PEAVWidgetData@@@@QEAAAEAV01@XZ 000000014004fc20 f i FramelessHelper.obj
 0001:0004ec50       ??Ekey_iterator@?$QHash@PEAVQWidget@@PEAVWidgetData@@@@QEAAAEAV01@XZ 000000014004fc50 f i FramelessHelper.obj
 0001:0004ec70       ??_E?$Span@U?$Node@PEAVQWidget@@PEAVWidgetData@@@QHashPrivate@@@QHashPrivate@@QEAAPEAXI@Z 000000014004fc70 f i FramelessHelper.obj
 0001:0004ec70       ??_E?$Span@U?$Node@U?$pair@II@std@@PEAVQxtGlobalShortcut@@@QHashPrivate@@@QHashPrivate@@QEAAPEAXI@Z 000000014004fc70 f i qxtglobalshortcut.obj
 0001:0004ed10       ??_G?$Data@U?$Node@PEAVQWidget@@PEAVWidgetData@@@QHashPrivate@@@QHashPrivate@@QEAAPEAXI@Z 000000014004fd10 f i FramelessHelper.obj
 0001:0004ed10       ??_G?$Data@U?$Node@U?$pair@II@std@@PEAVQxtGlobalShortcut@@@QHashPrivate@@@QHashPrivate@@QEAAPEAXI@Z 000000014004fd10 f i qxtglobalshortcut.obj
 0001:0004ed50       ??_EFramelessHelper@@UEAAPEAXI@Z 000000014004fd50 f i FramelessHelper.obj
 0001:0004ed50       ??_GFramelessHelper@@UEAAPEAXI@Z 000000014004fd50 f i FramelessHelper.obj
 0001:0004ed90       ??_GFramelessHelperPrivate@@QEAAPEAXI@Z 000000014004fd90 f i FramelessHelper.obj
 0001:0004edd0       ??_GWidgetData@@QEAAPEAXI@Z 000000014004fdd0 f i FramelessHelper.obj
 0001:0004ee10       ?addStorage@?$Span@U?$Node@PEAVQWidget@@PEAVWidgetData@@@QHashPrivate@@@QHashPrivate@@QEAAXXZ 000000014004fe10 f i FramelessHelper.obj
 0001:0004ee10       ?addStorage@?$Span@U?$Node@U?$pair@II@std@@PEAVQxtGlobalShortcut@@@QHashPrivate@@@QHashPrivate@@QEAAXXZ 000000014004fe10 f i qxtglobalshortcut.obj
 0001:0004ef70       ?advanceWrapped@Bucket@?$Data@U?$Node@PEAVQWidget@@PEAVWidgetData@@@QHashPrivate@@@QHashPrivate@@QEAAXPEBU23@@Z 000000014004ff70 f i FramelessHelper.obj
 0001:0004ef70       ?advanceWrapped@Bucket@?$Data@U?$Node@U?$pair@II@std@@PEAVQxtGlobalShortcut@@@QHashPrivate@@@QHashPrivate@@QEAAXPEBU23@@Z 000000014004ff70 f i qxtglobalshortcut.obj
 0001:0004efa0       ?advance_impl@Bucket@?$Data@U?$Node@PEAVQWidget@@PEAVWidgetData@@@QHashPrivate@@@QHashPrivate@@AEAAXPEBU23@PEAU?$Span@U?$Node@PEAVQWidget@@PEAVWidgetData@@@QHashPrivate@@@3@@Z 000000014004ffa0 f i FramelessHelper.obj
 0001:0004efa0       ?advance_impl@Bucket@?$Data@U?$Node@U?$pair@II@std@@PEAVQxtGlobalShortcut@@@QHashPrivate@@@QHashPrivate@@AEAAXPEBU23@PEAU?$Span@U?$Node@U?$pair@II@std@@PEAVQxtGlobalShortcut@@@QHashPrivate@@@3@@Z 000000014004ffa0 f i qxtglobalshortcut.obj
 0001:0004f040       ?allocateSpans@?$Data@U?$Node@PEAVQWidget@@PEAVWidgetData@@@QHashPrivate@@@QHashPrivate@@SA@_K@Z 0000000140050040 f i FramelessHelper.obj
 0001:0004f040       ?allocateSpans@?$Data@U?$Node@U?$pair@II@std@@PEAVQxtGlobalShortcut@@@QHashPrivate@@@QHashPrivate@@SA@_K@Z 0000000140050040 f i qxtglobalshortcut.obj
 0001:0004f160       ?at@?$Span@U?$Node@PEAVQWidget@@PEAVWidgetData@@@QHashPrivate@@@QHashPrivate@@QEAAAEAU?$Node@PEAVQWidget@@PEAVWidgetData@@@2@_K@Z 0000000140050160 f i FramelessHelper.obj
 0001:0004f160       ?at@?$Span@U?$Node@PEAVQWidget@@PEAVWidgetData@@@QHashPrivate@@@QHashPrivate@@QEBAAEBU?$Node@PEAVQWidget@@PEAVWidgetData@@@2@_K@Z 0000000140050160 f i FramelessHelper.obj
 0001:0004f160       ?at@?$Span@U?$Node@U?$pair@II@std@@PEAVQxtGlobalShortcut@@@QHashPrivate@@@QHashPrivate@@QEAAAEAU?$Node@U?$pair@II@std@@PEAVQxtGlobalShortcut@@@2@_K@Z 0000000140050160 f i qxtglobalshortcut.obj
 0001:0004f160       ?at@?$Span@U?$Node@U?$pair@II@std@@PEAVQxtGlobalShortcut@@@QHashPrivate@@@QHashPrivate@@QEBAAEBU?$Node@U?$pair@II@std@@PEAVQxtGlobalShortcut@@@2@_K@Z 0000000140050160 f i qxtglobalshortcut.obj
 0001:0004f1a0       ?atOffset@?$Span@U?$Node@PEAVQWidget@@PEAVWidgetData@@@QHashPrivate@@@QHashPrivate@@QEAAAEAU?$Node@PEAVQWidget@@PEAVWidgetData@@@2@_K@Z 00000001400501a0 f i FramelessHelper.obj
 0001:0004f1a0       ?atOffset@?$Span@U?$Node@U?$pair@II@std@@PEAVQxtGlobalShortcut@@@QHashPrivate@@@QHashPrivate@@QEAAAEAU?$Node@U?$pair@II@std@@PEAVQxtGlobalShortcut@@@2@_K@Z 00000001400501a0 f i qxtglobalshortcut.obj
 0001:0004f1d0       ?begin@?$Data@U?$Node@PEAVQWidget@@PEAVWidgetData@@@QHashPrivate@@@QHashPrivate@@QEBA?AU?$iterator@U?$Node@PEAVQWidget@@PEAVWidgetData@@@QHashPrivate@@@2@XZ 00000001400501d0 f i FramelessHelper.obj
 0001:0004f230       ?begin@?$QHash@PEAVQWidget@@PEAVWidgetData@@@@QEBA?AVconst_iterator@1@XZ 0000000140050230 f i FramelessHelper.obj
 0001:0004f2f0       ?bucketForHash@GrowthPolicy@QHashPrivate@@YA_K_K0@Z 00000001400502f0 f i FramelessHelper.obj
 0001:0004f310       ?bucketsForCapacity@GrowthPolicy@QHashPrivate@@YA_K_K@Z 0000000140050310 f i FramelessHelper.obj
 0001:0004f380       ?contains@?$QHash@PEAVQWidget@@PEAVWidgetData@@@@QEBA_NAEBQEAVQWidget@@@Z 0000000140050380 f i FramelessHelper.obj
 0001:0004f3e0       ?data@?$QList@PEAVQWidget@@@@QEAAPEAPEAVQWidget@@XZ 00000001400503e0 f i FramelessHelper.obj
 0001:0004f410       ?deref@RefCount@QtPrivate@@QEAA_NXZ 0000000140050410 f i FramelessHelper.obj
 0001:0004f450       ?detach@?$QHash@PEAVQWidget@@PEAVWidgetData@@@@QEAAXXZ 0000000140050450 f i FramelessHelper.obj
 0001:0004f4a0       ?detached@?$Data@U?$Node@PEAVQWidget@@PEAVWidgetData@@@QHashPrivate@@@QHashPrivate@@SAPEAU12@PEAU12@@Z 00000001400504a0 f i FramelessHelper.obj
 0001:0004f5a0       ?end@?$QHash@PEAVQWidget@@PEAVWidgetData@@@@QEBA?AVconst_iterator@1@XZ 00000001400505a0 f i FramelessHelper.obj
 0001:0004f5e0       ?erase@?$Data@U?$Node@PEAVQWidget@@PEAVWidgetData@@@QHashPrivate@@@QHashPrivate@@QEAAXUBucket@12@@Z 00000001400505e0 f i FramelessHelper.obj
 0001:0004f860       ?erase@?$Span@U?$Node@PEAVQWidget@@PEAVWidgetData@@@QHashPrivate@@@QHashPrivate@@QEAAX_K@Z 0000000140050860 f i FramelessHelper.obj
 0001:0004f860       ?erase@?$Span@U?$Node@U?$pair@II@std@@PEAVQxtGlobalShortcut@@@QHashPrivate@@@QHashPrivate@@QEAAX_K@Z 0000000140050860 f i qxtglobalshortcut.obj
 0001:0004f900       ?findBucket@?$Data@U?$Node@PEAVQWidget@@PEAVWidgetData@@@QHashPrivate@@@QHashPrivate@@QEBA?AUBucket@12@AEBQEAVQWidget@@@Z 0000000140050900 f i FramelessHelper.obj
 0001:0004f9d0       ?findNode@?$Data@U?$Node@PEAVQWidget@@PEAVWidgetData@@@QHashPrivate@@@QHashPrivate@@QEBAPEAU?$Node@PEAVQWidget@@PEAVWidgetData@@@2@AEBQEAVQWidget@@@Z 00000001400509d0 f i FramelessHelper.obj
 0001:0004fa90       ?findOrInsert@?$Data@U?$Node@PEAVQWidget@@PEAVWidgetData@@@QHashPrivate@@@QHashPrivate@@QEAA?AUInsertionResult@12@AEBQEAVQWidget@@@Z 0000000140050a90 f i FramelessHelper.obj
 0001:0004fbd0       ?freeData@?$Span@U?$Node@PEAVQWidget@@PEAVWidgetData@@@QHashPrivate@@@QHashPrivate@@QEAAXXZ 0000000140050bd0 f i FramelessHelper.obj
 0001:0004fbd0       ?freeData@?$Span@U?$Node@U?$pair@II@std@@PEAVQxtGlobalShortcut@@@QHashPrivate@@@QHashPrivate@@QEAAXXZ 0000000140050bd0 f i qxtglobalshortcut.obj
 0001:0004fc20       ?hasNode@?$Span@U?$Node@PEAVQWidget@@PEAVWidgetData@@@QHashPrivate@@@QHashPrivate@@QEBA_N_K@Z 0000000140050c20 f i FramelessHelper.obj
 0001:0004fc20       ?hasNode@?$Span@U?$Node@U?$pair@II@std@@PEAVQxtGlobalShortcut@@@QHashPrivate@@@QHashPrivate@@QEBA_N_K@Z 0000000140050c20 f i qxtglobalshortcut.obj
 0001:0004fc70       ?hash@QHashPrivate@@YA_K_K0@Z 0000000140050c70 f i FramelessHelper.obj
 0001:0004fd20       ?index@?$iterator@U?$Node@PEAVQWidget@@PEAVWidgetData@@@QHashPrivate@@@QHashPrivate@@QEBA_KXZ 0000000140050d20 f i FramelessHelper.obj
 0001:0004fd20       ?index@?$iterator@U?$Node@U?$pair@II@std@@PEAVQxtGlobalShortcut@@@QHashPrivate@@@QHashPrivate@@QEBA_KXZ 0000000140050d20 f i qxtglobalshortcut.obj
 0001:0004fd40       ?insert@?$QHash@PEAVQWidget@@PEAVWidgetData@@@@QEAA?AViterator@1@AEBQEAVQWidget@@AEBQEAVWidgetData@@@Z 0000000140050d40 f i FramelessHelper.obj
 0001:0004fd80       ?insert@?$Span@U?$Node@PEAVQWidget@@PEAVWidgetData@@@QHashPrivate@@@QHashPrivate@@QEAAPEAU?$Node@PEAVQWidget@@PEAVWidgetData@@@2@_K@Z 0000000140050d80 f i FramelessHelper.obj
 0001:0004fd80       ?insert@?$Span@U?$Node@U?$pair@II@std@@PEAVQxtGlobalShortcut@@@QHashPrivate@@@QHashPrivate@@QEAAPEAU?$Node@U?$pair@II@std@@PEAVQxtGlobalShortcut@@@2@_K@Z 0000000140050d80 f i qxtglobalshortcut.obj
 0001:0004fe30       ?insert@Bucket@?$Data@U?$Node@PEAVQWidget@@PEAVWidgetData@@@QHashPrivate@@@QHashPrivate@@QEBAPEAU?$Node@PEAVQWidget@@PEAVWidgetData@@@3@XZ 0000000140050e30 f i FramelessHelper.obj
 0001:0004fe30       ?insert@Bucket@?$Data@U?$Node@U?$pair@II@std@@PEAVQxtGlobalShortcut@@@QHashPrivate@@@QHashPrivate@@QEBAPEAU?$Node@U?$pair@II@std@@PEAVQxtGlobalShortcut@@@3@XZ 0000000140050e30 f i qxtglobalshortcut.obj
 0001:0004fe60       ?isDetached@?$QHash@PEAVQWidget@@PEAVWidgetData@@@@QEBA_NXZ 0000000140050e60 f i FramelessHelper.obj
 0001:0004fe60       ?isDetached@?$QHash@U?$pair@II@std@@PEAVQxtGlobalShortcut@@@@QEBA_NXZ 0000000140050e60 f i qxtglobalshortcut.obj
 0001:0004feb0       ?isEmpty@?$QHash@PEAVQWidget@@PEAVWidgetData@@@@QEBA_NXZ 0000000140050eb0 f i FramelessHelper.obj
 0001:0004feb0       ?isEmpty@?$QHash@U?$pair@II@std@@PEAVQxtGlobalShortcut@@@@QEBA_NXZ 0000000140050eb0 f i qxtglobalshortcut.obj
 0001:0004fef0       ?isShared@RefCount@QtPrivate@@QEBA_NXZ 0000000140050ef0 f i FramelessHelper.obj
 0001:0004ff40       ?isUnused@?$iterator@U?$Node@PEAVQWidget@@PEAVWidgetData@@@QHashPrivate@@@QHashPrivate@@QEBA_NXZ 0000000140050f40 f i FramelessHelper.obj
 0001:0004ffd0       ?isUnused@Bucket@?$Data@U?$Node@PEAVQWidget@@PEAVWidgetData@@@QHashPrivate@@@QHashPrivate@@QEBA_NXZ 0000000140050fd0 f i FramelessHelper.obj
 0001:0004ffd0       ?isUnused@Bucket@?$Data@U?$Node@U?$pair@II@std@@PEAVQxtGlobalShortcut@@@QHashPrivate@@@QHashPrivate@@QEBA_NXZ 0000000140050fd0 f i qxtglobalshortcut.obj
 0001:00050020       ?key@const_iterator@?$QHash@PEAVQWidget@@PEAVWidgetData@@@@QEBAAEBQEAVQWidget@@XZ 0000000140051020 f i FramelessHelper.obj
 0001:00050040       ?keyBegin@?$QHash@PEAVQWidget@@PEAVWidgetData@@@@QEBA?AVkey_iterator@1@XZ 0000000140051040 f i FramelessHelper.obj
 0001:00050090       ?keyEnd@?$QHash@PEAVQWidget@@PEAVWidgetData@@@@QEBA?AVkey_iterator@1@XZ 0000000140051090 f i FramelessHelper.obj
 0001:000500e0       ?keys@?$QHash@PEAVQWidget@@PEAVWidgetData@@@@QEBA?AV?$QList@PEAVQWidget@@@@XZ 00000001400510e0 f i FramelessHelper.obj
 0001:000501b0       ?max@?$numeric_limits@_K@std@@SA_KXZ 00000001400511b0 f i FramelessHelper.obj
 0001:000501c0       ?moveFromSpan@?$Span@U?$Node@PEAVQWidget@@PEAVWidgetData@@@QHashPrivate@@@QHashPrivate@@QEAAXAEAU12@_K1@Z 00000001400511c0 f i FramelessHelper.obj
 0001:000501c0       ?moveFromSpan@?$Span@U?$Node@U?$pair@II@std@@PEAVQxtGlobalShortcut@@@QHashPrivate@@@QHashPrivate@@QEAAXAEAU12@_K1@Z 00000001400511c0 f i qxtglobalshortcut.obj
 0001:000502f0       ?moveLocal@?$Span@U?$Node@PEAVQWidget@@PEAVWidgetData@@@QHashPrivate@@@QHashPrivate@@QEAAX_K0@Z 00000001400512f0 f i FramelessHelper.obj
 0001:000502f0       ?moveLocal@?$Span@U?$Node@U?$pair@II@std@@PEAVQxtGlobalShortcut@@@QHashPrivate@@@QHashPrivate@@QEAAX_K0@Z 00000001400512f0 f i qxtglobalshortcut.obj
 0001:00050340       ?node@?$iterator@U?$Node@PEAVQWidget@@PEAVWidgetData@@@QHashPrivate@@@QHashPrivate@@QEBAPEAU?$Node@PEAVQWidget@@PEAVWidgetData@@@2@XZ 0000000140051340 f i FramelessHelper.obj
 0001:00050340       ?node@?$iterator@U?$Node@U?$pair@II@std@@PEAVQxtGlobalShortcut@@@QHashPrivate@@@QHashPrivate@@QEBAPEAU?$Node@U?$pair@II@std@@PEAVQxtGlobalShortcut@@@2@XZ 0000000140051340 f i qxtglobalshortcut.obj
 0001:000503b0       ?node@Bucket@?$Data@U?$Node@PEAVQWidget@@PEAVWidgetData@@@QHashPrivate@@@QHashPrivate@@QEAAPEAU?$Node@PEAVQWidget@@PEAVWidgetData@@@3@XZ 00000001400513b0 f i FramelessHelper.obj
 0001:000503e0       ?nodeAtOffset@Bucket@?$Data@U?$Node@PEAVQWidget@@PEAVWidgetData@@@QHashPrivate@@@QHashPrivate@@QEAAAEAU?$Node@PEAVQWidget@@PEAVWidgetData@@@3@_K@Z 00000001400513e0 f i FramelessHelper.obj
 0001:000503e0       ?nodeAtOffset@Bucket@?$Data@U?$Node@U?$pair@II@std@@PEAVQxtGlobalShortcut@@@QHashPrivate@@@QHashPrivate@@QEAAAEAU?$Node@U?$pair@II@std@@PEAVQxtGlobalShortcut@@@3@_K@Z 00000001400513e0 f i qxtglobalshortcut.obj
 0001:00050410       ?offset@?$Span@U?$Node@PEAVQWidget@@PEAVWidgetData@@@QHashPrivate@@@QHashPrivate@@QEBA_K_K@Z 0000000140051410 f i FramelessHelper.obj
 0001:00050410       ?offset@?$Span@U?$Node@U?$pair@II@std@@PEAVQxtGlobalShortcut@@@QHashPrivate@@@QHashPrivate@@QEBA_K_K@Z 0000000140051410 f i qxtglobalshortcut.obj
 0001:00050430       ?offset@Bucket@?$Data@U?$Node@PEAVQWidget@@PEAVWidgetData@@@QHashPrivate@@@QHashPrivate@@QEBA_KXZ 0000000140051430 f i FramelessHelper.obj
 0001:00050430       ?offset@Bucket@?$Data@U?$Node@U?$pair@II@std@@PEAVQxtGlobalShortcut@@@QHashPrivate@@@QHashPrivate@@QEBA_KXZ 0000000140051430 f i qxtglobalshortcut.obj
 0001:00050460       ?qCountLeadingZeroBits@@YAI_K@Z 0000000140051460 f i FramelessHelper.obj
 0001:000504a0       ?qHash@@YA_K_K0@Z          00000001400514a0 f i FramelessHelper.obj
 0001:000504d0       ?qt_builtin_clzll@QAlgorithmsPrivate@@YAK_K@Z 00000001400514d0 f i FramelessHelper.obj
 0001:00050500       ?reallocationHelper@?$Data@U?$Node@PEAVQWidget@@PEAVWidgetData@@@QHashPrivate@@@QHashPrivate@@QEAAXAEBU12@_K_N@Z 0000000140051500 f i FramelessHelper.obj
 0001:00050680       ?ref@RefCount@QtPrivate@@QEAA_NXZ 0000000140051680 f i FramelessHelper.obj
 0001:000506c0       ?rehash@?$Data@U?$Node@PEAVQWidget@@PEAVWidgetData@@@QHashPrivate@@@QHashPrivate@@QEAAX_K@Z 00000001400516c0 f i FramelessHelper.obj
 0001:000508c0       ?shouldGrow@?$Data@U?$Node@PEAVQWidget@@PEAVWidgetData@@@QHashPrivate@@@QHashPrivate@@QEBA_NXZ 00000001400518c0 f i FramelessHelper.obj
 0001:000508c0       ?shouldGrow@?$Data@U?$Node@U?$pair@II@std@@PEAVQxtGlobalShortcut@@@QHashPrivate@@@QHashPrivate@@QEBA_NXZ 00000001400518c0 f i qxtglobalshortcut.obj
 0001:00050900       ?span@?$iterator@U?$Node@PEAVQWidget@@PEAVWidgetData@@@QHashPrivate@@@QHashPrivate@@QEBA_KXZ 0000000140051900 f i FramelessHelper.obj
 0001:00050900       ?span@?$iterator@U?$Node@U?$pair@II@std@@PEAVQxtGlobalShortcut@@@QHashPrivate@@@QHashPrivate@@QEBA_KXZ 0000000140051900 f i qxtglobalshortcut.obj
 0001:00050920       ?take@?$QHash@PEAVQWidget@@PEAVWidgetData@@@@QEAAPEAVWidgetData@@AEBQEAVQWidget@@@Z 0000000140051920 f i FramelessHelper.obj
 0001:00050a40       ?toBucketIndex@Bucket@?$Data@U?$Node@PEAVQWidget@@PEAVWidgetData@@@QHashPrivate@@@QHashPrivate@@QEBA_KPEBU23@@Z 0000000140051a40 f i FramelessHelper.obj
 0001:00050a40       ?toBucketIndex@Bucket@?$Data@U?$Node@U?$pair@II@std@@PEAVQxtGlobalShortcut@@@QHashPrivate@@@QHashPrivate@@QEBA_KPEBU23@@Z 0000000140051a40 f i qxtglobalshortcut.obj
 0001:00050a80       ?toIterator@Bucket@?$Data@U?$Node@PEAVQWidget@@PEAVWidgetData@@@QHashPrivate@@@QHashPrivate@@QEBA?AU?$iterator@U?$Node@PEAVQWidget@@PEAVWidgetData@@@QHashPrivate@@@3@PEBU23@@Z 0000000140051a80 f i FramelessHelper.obj
 0001:00050a80       ?toIterator@Bucket@?$Data@U?$Node@U?$pair@II@std@@PEAVQxtGlobalShortcut@@@QHashPrivate@@@QHashPrivate@@QEBA?AU?$iterator@U?$Node@U?$pair@II@std@@PEAVQxtGlobalShortcut@@@QHashPrivate@@@3@PEBU23@@Z 0000000140051a80 f i qxtglobalshortcut.obj
 0001:00050ad0       ?value@?$QHash@PEAVQWidget@@PEAVWidgetData@@@@QEBAPEAVWidgetData@@AEBQEAVQWidget@@@Z 0000000140051ad0 f i FramelessHelper.obj
 0001:00050b10       ?valueImpl@?$QHash@PEAVQWidget@@PEAVWidgetData@@@@AEBAPEAPEAVWidgetData@@AEBQEAVQWidget@@@Z 0000000140051b10 f i FramelessHelper.obj
 0001:00050b70       ?values@?$QHash@PEAVQWidget@@PEAVWidgetData@@@@QEBA?AV?$QList@PEAVWidgetData@@@@XZ 0000000140051b70 f i FramelessHelper.obj
 0001:00050c40       ?Instance@TrayIcon@@SAPEAV1@XZ 0000000140051c40 f   trayicon.obj
 0001:00050d50       ??0TrayIcon@@QEAA@PEAVQObject@@@Z 0000000140051d50 f   trayicon.obj
 0001:00050ee0       ?iconIsActived@TrayIcon@@AEAAXW4ActivationReason@QSystemTrayIcon@@@Z 0000000140051ee0 f   trayicon.obj
 0001:00050f20       ?getVisible@TrayIcon@@QEBA_NXZ 0000000140051f20 f   trayicon.obj
 0001:00050f50       ?setExitDirect@TrayIcon@@QEAAX_N@Z 0000000140051f50 f   trayicon.obj
 0001:00050f80       ?setMainWidget@TrayIcon@@QEAAXPEAVQWidget@@@Z 0000000140051f80 f   trayicon.obj
 0001:000510f0       ?showMessage@TrayIcon@@QEAAXAEBVQString@@0W4MessageIcon@QSystemTrayIcon@@H@Z 00000001400520f0 f   trayicon.obj
 0001:00051150       ?setIcon@TrayIcon@@QEAAXAEBVQString@@@Z 0000000140052150 f   trayicon.obj
 0001:000511c0       ?setToolTip@TrayIcon@@QEAAXAEBVQString@@@Z 00000001400521c0 f   trayicon.obj
 0001:00051200       ?setVisible@TrayIcon@@QEAAX_N@Z 0000000140052200 f   trayicon.obj
 0001:00051240       ?closeAll@TrayIcon@@QEAAXXZ 0000000140052240 f   trayicon.obj
 0001:00051280       ??1?$QScopedPointer@VTrayIcon@@U?$QScopedPointerDeleter@VTrayIcon@@@@@@QEAA@XZ 0000000140052280 f i trayicon.obj
 0001:000512a8       ??_EQMenu@@WBA@EAAPEAXI@Z  00000001400522a8 f i trayicon.obj
 0001:000512c0       ??_EQMenu@@UEAAPEAXI@Z     00000001400522c0 f i trayicon.obj
 0001:000512c0       ??_GQMenu@@UEAAPEAXI@Z     00000001400522c0 f i trayicon.obj
 0001:00051300       ??_EQSystemTrayIcon@@UEAAPEAXI@Z 0000000140052300 f i trayicon.obj
 0001:00051300       ??_GQSystemTrayIcon@@UEAAPEAXI@Z 0000000140052300 f i trayicon.obj
 0001:00051340       ??_ETrayIcon@@UEAAPEAXI@Z  0000000140052340 f i trayicon.obj
 0001:00051340       ??_GTrayIcon@@UEAAPEAXI@Z  0000000140052340 f i trayicon.obj
 0001:00051380       ?cleanup@?$QScopedPointerDeleter@VTrayIcon@@@@SAXPEAVTrayIcon@@@Z 0000000140052380 f i trayicon.obj
 0001:000513d0       ?isNull@?$QScopedPointer@VTrayIcon@@U?$QScopedPointerDeleter@VTrayIcon@@@@@@QEBA_NXZ 00000001400523d0 f i trayicon.obj
 0001:00051400       ?reset@?$QScopedPointer@VTrayIcon@@U?$QScopedPointerDeleter@VTrayIcon@@@@@@QEAAXPEAVTrayIcon@@@Z 0000000140052400 f i trayicon.obj
 0001:00051450       ?tr@TrayIcon@@SA?AVQString@@PEBD0H@Z 0000000140052450 f i trayicon.obj
 0001:000514b0       ?Instance@KeyHelper@@SAPEAV1@XZ 00000001400524b0 f   keyhelper.obj
 0001:00051560       ?GetClientId@KeyHelper@@QEAA?AVQString@@XZ 0000000140052560 f   keyhelper.obj
 0001:00051860       ?CheckKeyVaild@KeyHelper@@QEAA_NVQString@@@Z 0000000140052860 f   keyhelper.obj
 0001:00051bf0       ?IsRegistered@KeyHelper@@QEAA_NXZ 0000000140052bf0 f   keyhelper.obj
 0001:00051c10       ??0KeyHelper@@AEAA@XZ      0000000140052c10 f   keyhelper.obj
 0001:00051c30       ?GetWMIC@KeyHelper@@AEAA?AVQString@@AEBV2@@Z 0000000140052c30 f   keyhelper.obj
 0001:00051f40       ?GetCpuName@KeyHelper@@AEAA?AVQString@@XZ 0000000140052f40 f   keyhelper.obj
 0001:00051fb0       ?GetCpuId@KeyHelper@@AEAA?AVQString@@XZ 0000000140052fb0 f   keyhelper.obj
 0001:00052020       ?GetDiskNum@KeyHelper@@AEAA?AVQString@@XZ 0000000140053020 f   keyhelper.obj
 0001:00052090       ?GetXorEncrypt@KeyHelper@@AEAA?AVQString@@AEBV2@D@Z 0000000140053090 f   keyhelper.obj
 0001:00052200       ?GetXorDecrypt@KeyHelper@@AEAA?AVQString@@V2@@Z 0000000140053200 f   keyhelper.obj
 0001:00052360       ??$?0PEBD$00@?$QBasicUtf8StringView@$0A@@@QEAA@AEBQEBD@Z 0000000140053360 f i keyhelper.obj
 0001:000523c0       ??$?0VQChar@@$00@QStringView@@QEAA@PEBVQChar@@_J@Z 00000001400533c0 f i keyhelper.obj
 0001:00052400       ??$?0VQString@@$00@QStringView@@QEAA@AEBVQString@@@Z 0000000140053400 f i keyhelper.obj
 0001:00052470       ??$?GH@iterator@?$QList@VQString@@@@QEBA?AV01@H@Z 0000000140053470 f i keyhelper.obj
 0001:000524c0       ??8@YA_NAEBVQString@@0@Z   00000001400534c0 f i keyhelper.obj
 0001:000525d0       ??H@YA?AVQString@@AEBV0@PEBD@Z 00000001400535d0 f i keyhelper.obj
 0001:00052650       ?copyAppend@?$QGenericArrayOps@VQString@@@QtPrivate@@QEAAXPEBVQString@@0@Z 0000000140053650 f i keyhelper.obj
 0001:000526f0       ?detach@?$QArrayDataPointer@VQString@@@@QEAAXPEAU1@@Z 00000001400536f0 f i keyhelper.obj
 0001:00052730       ?detach@?$QList@VQString@@@@QEAAXXZ 0000000140053730 f i keyhelper.obj
 0001:00052760       ?end@?$QList@VQString@@@@QEAA?AViterator@1@XZ 0000000140053760 f i keyhelper.obj
 0001:000527b0       ?last@?$QList@VQString@@@@QEAAAEAVQString@@XZ 00000001400537b0 f i keyhelper.obj
 0001:000527f0       ?moveAppend@?$QGenericArrayOps@VQString@@@QtPrivate@@QEAAXPEAVQString@@0@Z 00000001400537f0 f i keyhelper.obj
 0001:000528a0       ?reallocateAndGrow@?$QArrayDataPointer@VQString@@@@QEAAXW4GrowthPosition@QArrayData@@_JPEAU1@@Z 00000001400538a0 f i keyhelper.obj
 0001:00052af0       ??0CHttpDownloader@@QEAA@PEAVQObject@@@Z 0000000140053af0 f   httpdownloader.obj
 0001:00052d00       ??1CHttpDownloader@@UEAA@XZ 0000000140053d00 f   httpdownloader.obj
 0001:00052e00       ?Download@CHttpDownloader@@QEAA_NAEBVQString@@V2@@Z 0000000140053e00 f   httpdownloader.obj
 0001:00053390       ?ClearRp@CHttpDownloader@@AEAAXPEAVQNetworkReply@@@Z 0000000140054390 f   httpdownloader.obj
 0001:00053670       ?OnHttpGetRspProgress@CHttpDownloader@@AEAAX_J0@Z 0000000140054670 f   httpdownloader.obj
 0001:00053850       ?OnHttpGetRspFinished@CHttpDownloader@@AEAAXXZ 0000000140054850 f   httpdownloader.obj
 0001:00053c40       ?OnError@CHttpDownloader@@AEAAXW4NetworkError@QNetworkReply@@@Z 0000000140054c40 f   httpdownloader.obj
 0001:00053e90       ??$?0$$CBVQString@@_N$0A@@?$pair@$$CBVQString@@_N@std@@QEAA@AEBVQString@@AEB_N@Z 0000000140054e90 f i httpdownloader.obj
 0001:00053ee0       ??$?0AEBU?$pair@$$CBVQString@@V1@@std@@@?$_Tree_temp_node@V?$allocator@U?$_Tree_node@U?$pair@$$CBVQString@@V1@@std@@PEAX@std@@@std@@@std@@QEAA@AEAV?$allocator@U?$_Tree_node@U?$pair@$$CBVQString@@V1@@std@@PEAX@std@@@1@PEAU?$_Tree_node@U?$pair@$$CBVQString@@V1@@std@@PEAX@1@AEBU?$pair@$$CBVQString@@V1@@1@@Z 0000000140054ee0 f i httpdownloader.obj
 0001:00053fc0       ??$?0AEBU?$pair@$$CBVQString@@_N@std@@@?$_Tree_temp_node@V?$allocator@U?$_Tree_node@U?$pair@$$CBVQString@@_N@std@@PEAX@std@@@std@@@std@@QEAA@AEAV?$allocator@U?$_Tree_node@U?$pair@$$CBVQString@@_N@std@@PEAX@std@@@1@PEAU?$_Tree_node@U?$pair@$$CBVQString@@_N@std@@PEAX@1@AEBU?$pair@$$CBVQString@@_N@1@@Z 0000000140054fc0 f i httpdownloader.obj
 0001:000540a0       ??$?0AEBVQString@@AEB_N@?$_Tree_temp_node@V?$allocator@U?$_Tree_node@U?$pair@$$CBVQString@@_N@std@@PEAX@std@@@std@@@std@@QEAA@AEAV?$allocator@U?$_Tree_node@U?$pair@$$CBVQString@@_N@std@@PEAX@std@@@1@PEAU?$_Tree_node@U?$pair@$$CBVQString@@_N@std@@PEAX@1@AEBVQString@@AEB_N@Z 00000001400550a0 f i httpdownloader.obj
 0001:000541a0       ??$?0AEBVQString@@V0@$0A@@?$pair@$$CBVQString@@V1@@std@@QEAA@AEBVQString@@$$QEAV2@@Z 00000001400551a0 f i httpdownloader.obj
 0001:00054210       ??$?0U?$less@VQString@@@std@@U_One_then_variadic_args_t@1@V?$allocator@U?$_Tree_node@U?$pair@$$CBVQString@@V1@@std@@PEAX@std@@@1@@?$_Compressed_pair@U?$less@VQString@@@std@@V?$_Compressed_pair@V?$allocator@U?$_Tree_node@U?$pair@$$CBVQString@@V1@@std@@PEAX@std@@@std@@V?$_Tree_val@U?$_Tree_simple_types@U?$pair@$$CBVQString@@V1@@std@@@std@@@2@$00@2@$00@std@@QEAA@U_One_then_variadic_args_t@1@$$QEAU?$less@VQString@@@1@$$QEAU21@$$QEAV?$allocator@U?$_Tree_node@U?$pair@$$CBVQString@@V1@@std@@PEAX@std@@@1@@Z 0000000140055210 f i httpdownloader.obj
 0001:00054210       ??$?0U?$less@VQString@@@std@@U_One_then_variadic_args_t@1@V?$allocator@U?$_Tree_node@U?$pair@$$CBVQString@@_N@std@@PEAX@std@@@1@@?$_Compressed_pair@U?$less@VQString@@@std@@V?$_Compressed_pair@V?$allocator@U?$_Tree_node@U?$pair@$$CBVQString@@_N@std@@PEAX@std@@@std@@V?$_Tree_val@U?$_Tree_simple_types@U?$pair@$$CBVQString@@_N@std@@@std@@@2@$00@2@$00@std@@QEAA@U_One_then_variadic_args_t@1@$$QEAU?$less@VQString@@@1@$$QEAU21@$$QEAV?$allocator@U?$_Tree_node@U?$pair@$$CBVQString@@_N@std@@PEAX@std@@@1@@Z 0000000140055210 f i httpdownloader.obj
 0001:00054280       ??$?0U?$pair@$$CBVQString@@V1@@std@@@?$_Tree_temp_node@V?$allocator@U?$_Tree_node@U?$pair@$$CBVQString@@V1@@std@@PEAX@std@@@std@@@std@@QEAA@AEAV?$allocator@U?$_Tree_node@U?$pair@$$CBVQString@@V1@@std@@PEAX@std@@@1@PEAU?$_Tree_node@U?$pair@$$CBVQString@@V1@@std@@PEAX@1@$$QEAU?$pair@$$CBVQString@@V1@@1@@Z 0000000140055280 f i httpdownloader.obj
 0001:00054360       ??$?0V?$allocator@U?$_Tree_node@U?$pair@$$CBVQString@@V1@@std@@PEAX@std@@@std@@@?$_Tree@V?$_Tmap_traits@VQString@@V1@U?$less@VQString@@@std@@V?$allocator@U?$pair@$$CBVQString@@V1@@std@@@3@$0A@@std@@@std@@QEAA@AEBV01@$$QEAV?$allocator@U?$_Tree_node@U?$pair@$$CBVQString@@V1@@std@@PEAX@std@@@1@@Z 0000000140055360 f i httpdownloader.obj
 0001:00054480       ??$?0V?$allocator@U?$_Tree_node@U?$pair@$$CBVQString@@_N@std@@PEAX@std@@@std@@@?$_Tree@V?$_Tmap_traits@VQString@@_NU?$less@VQString@@@std@@V?$allocator@U?$pair@$$CBVQString@@_N@std@@@3@$0A@@std@@@std@@QEAA@AEBV01@$$QEAV?$allocator@U?$_Tree_node@U?$pair@$$CBVQString@@_N@std@@PEAX@std@@@1@@Z 0000000140055480 f i httpdownloader.obj
 0001:000545a0       ??$?RU?$pair@$$CBVQString@@V1@@std@@@<lambda_1>@?1??copyIfNotEquivalentTo@?$QMapData@V?$map@VQString@@V1@U?$less@VQString@@@std@@V?$allocator@U?$pair@$$CBVQString@@V1@@std@@@3@@std@@@@QEAA_KAEBV?$map@VQString@@V1@U?$less@VQString@@@std@@V?$allocator@U?$pair@$$CBVQString@@V1@@std@@@3@@std@@AEBVQString@@@Z@QEBA?A_PAEBU?$pair@$$CBVQString@@V1@@4@@Z 00000001400555a0 f i httpdownloader.obj
 0001:000545a0       ??$?RU?$pair@$$CBVQString@@_N@std@@@<lambda_1>@?1??copyIfNotEquivalentTo@?$QMapData@V?$map@VQString@@_NU?$less@VQString@@@std@@V?$allocator@U?$pair@$$CBVQString@@_N@std@@@3@@std@@@@QEAA_KAEBV?$map@VQString@@_NU?$less@VQString@@@std@@V?$allocator@U?$pair@$$CBVQString@@_N@std@@@3@@std@@AEBVQString@@@Z@QEBA?A_PAEBU?$pair@$$CBVQString@@_N@4@@Z 00000001400555a0 f i httpdownloader.obj
 0001:00054640       ??$?RU?$pair@$$CBVQString@@V1@@std@@@<lambda_1>@?1??values@?$QMapData@V?$map@VQString@@V1@U?$less@VQString@@@std@@V?$allocator@U?$pair@$$CBVQString@@V1@@std@@@3@@std@@@@QEBA?AV?$QList@VQString@@@@XZ@QEBA?A_PAEBU?$pair@$$CBVQString@@V1@@std@@@Z 0000000140055640 f i httpdownloader.obj
 0001:00054690       ??$_Buyheadnode@V?$allocator@U?$_Tree_node@U?$pair@$$CBVQString@@V1@@std@@PEAX@std@@@std@@@?$_Tree_node@U?$pair@$$CBVQString@@V1@@std@@PEAX@std@@SAPEAU01@AEAV?$allocator@U?$_Tree_node@U?$pair@$$CBVQString@@V1@@std@@PEAX@std@@@1@@Z 0000000140055690 f i httpdownloader.obj
 0001:00054710       ??$_Buyheadnode@V?$allocator@U?$_Tree_node@U?$pair@$$CBVQString@@_N@std@@PEAX@std@@@std@@@?$_Tree_node@U?$pair@$$CBVQString@@_N@std@@PEAX@std@@SAPEAU01@AEAV?$allocator@U?$_Tree_node@U?$pair@$$CBVQString@@_N@std@@PEAX@std@@@1@@Z 0000000140055710 f i httpdownloader.obj
 0001:00054790       ??$_Buynode@AEAU?$pair@$$CBVQString@@V1@@std@@@?$_Tree@V?$_Tmap_traits@VQString@@V1@U?$less@VQString@@@std@@V?$allocator@U?$pair@$$CBVQString@@V1@@std@@@3@$0A@@std@@@std@@IEAAPEAU?$_Tree_node@U?$pair@$$CBVQString@@V1@@std@@PEAX@1@AEAU?$pair@$$CBVQString@@V1@@1@@Z 0000000140055790 f i httpdownloader.obj
 0001:000547f0       ??$_Buynode@AEAU?$pair@$$CBVQString@@_N@std@@@?$_Tree@V?$_Tmap_traits@VQString@@_NU?$less@VQString@@@std@@V?$allocator@U?$pair@$$CBVQString@@_N@std@@@3@$0A@@std@@@std@@IEAAPEAU?$_Tree_node@U?$pair@$$CBVQString@@_N@std@@PEAX@1@AEAU?$pair@$$CBVQString@@_N@1@@Z 00000001400557f0 f i httpdownloader.obj
 0001:00054850       ??$_Buynode@V?$allocator@U?$_Tree_node@U?$pair@$$CBVQString@@V1@@std@@PEAX@std@@@std@@AEAU?$pair@$$CBVQString@@V1@@2@@?$_Tree_node@U?$pair@$$CBVQString@@V1@@std@@PEAX@std@@SAPEAU01@AEAV?$allocator@U?$_Tree_node@U?$pair@$$CBVQString@@V1@@std@@PEAX@std@@@1@PEAU01@AEAU?$pair@$$CBVQString@@V1@@1@@Z 0000000140055850 f i httpdownloader.obj
 0001:00054930       ??$_Buynode@V?$allocator@U?$_Tree_node@U?$pair@$$CBVQString@@_N@std@@PEAX@std@@@std@@AEAU?$pair@$$CBVQString@@_N@2@@?$_Tree_node@U?$pair@$$CBVQString@@_N@std@@PEAX@std@@SAPEAU01@AEAV?$allocator@U?$_Tree_node@U?$pair@$$CBVQString@@_N@std@@PEAX@std@@@1@PEAU01@AEAU?$pair@$$CBVQString@@_N@1@@Z 0000000140055930 f i httpdownloader.obj
 0001:00054a10       ??$_Copy@$0A@@?$_Tree@V?$_Tmap_traits@VQString@@V1@U?$less@VQString@@@std@@V?$allocator@U?$pair@$$CBVQString@@V1@@std@@@3@$0A@@std@@@std@@IEAAXAEBV01@@Z 0000000140055a10 f i httpdownloader.obj
 0001:00054b20       ??$_Copy@$0A@@?$_Tree@V?$_Tmap_traits@VQString@@_NU?$less@VQString@@@std@@V?$allocator@U?$pair@$$CBVQString@@_N@std@@@3@$0A@@std@@@std@@IEAAXAEBV01@@Z 0000000140055b20 f i httpdownloader.obj
 0001:00054c30       ??$_Copy_nodes@$0A@@?$_Tree@V?$_Tmap_traits@VQString@@V1@U?$less@VQString@@@std@@V?$allocator@U?$pair@$$CBVQString@@V1@@std@@@3@$0A@@std@@@std@@IEAAPEAU?$_Tree_node@U?$pair@$$CBVQString@@V1@@std@@PEAX@1@PEAU21@0@Z 0000000140055c30 f i httpdownloader.obj
 0001:00054d30       ??$_Copy_nodes@$0A@@?$_Tree@V?$_Tmap_traits@VQString@@_NU?$less@VQString@@@std@@V?$allocator@U?$pair@$$CBVQString@@_N@std@@@3@$0A@@std@@@std@@IEAAPEAU?$_Tree_node@U?$pair@$$CBVQString@@_N@std@@PEAX@1@PEAU21@0@Z 0000000140055d30 f i httpdownloader.obj
 0001:00054e30       ??$_Copy_or_move@$0A@U?$pair@$$CBVQString@@V1@@std@@@?$_Tree@V?$_Tmap_traits@VQString@@V1@U?$less@VQString@@@std@@V?$allocator@U?$pair@$$CBVQString@@V1@@std@@@3@$0A@@std@@@std@@IEAAPEAU?$_Tree_node@U?$pair@$$CBVQString@@V1@@std@@PEAX@1@AEAU?$pair@$$CBVQString@@V1@@1@@Z 0000000140055e30 f i httpdownloader.obj
 0001:00054e60       ??$_Copy_or_move@$0A@U?$pair@$$CBVQString@@_N@std@@@?$_Tree@V?$_Tmap_traits@VQString@@_NU?$less@VQString@@@std@@V?$allocator@U?$pair@$$CBVQString@@_N@std@@@3@$0A@@std@@@std@@IEAAPEAU?$_Tree_node@U?$pair@$$CBVQString@@_N@std@@PEAX@1@AEAU?$pair@$$CBVQString@@_N@1@@Z 0000000140055e60 f i httpdownloader.obj
 0001:00054e90       ??$_Emplace@U?$pair@$$CBVQString@@V1@@std@@@?$_Tree@V?$_Tmap_traits@VQString@@V1@U?$less@VQString@@@std@@V?$allocator@U?$pair@$$CBVQString@@V1@@std@@@3@$0A@@std@@@std@@IEAA?AU?$pair@PEAU?$_Tree_node@U?$pair@$$CBVQString@@V1@@std@@PEAX@std@@_N@1@$$QEAU?$pair@$$CBVQString@@V1@@1@@Z 0000000140055e90 f i httpdownloader.obj
 0001:00055020       ??$_Emplace_hint@AEBU?$pair@$$CBVQString@@V1@@std@@@?$_Tree@V?$_Tmap_traits@VQString@@V1@U?$less@VQString@@@std@@V?$allocator@U?$pair@$$CBVQString@@V1@@std@@@3@$0A@@std@@@std@@IEAAPEAU?$_Tree_node@U?$pair@$$CBVQString@@V1@@std@@PEAX@1@QEAU21@AEBU?$pair@$$CBVQString@@V1@@1@@Z 0000000140056020 f i httpdownloader.obj
 0001:00055150       ??$_Emplace_hint@AEBU?$pair@$$CBVQString@@_N@std@@@?$_Tree@V?$_Tmap_traits@VQString@@_NU?$less@VQString@@@std@@V?$allocator@U?$pair@$$CBVQString@@_N@std@@@3@$0A@@std@@@std@@IEAAPEAU?$_Tree_node@U?$pair@$$CBVQString@@_N@std@@PEAX@1@QEAU21@AEBU?$pair@$$CBVQString@@_N@1@@Z 0000000140056150 f i httpdownloader.obj
 0001:00055280       ??$_Eqrange@VQString@@@?$_Tree@V?$_Tmap_traits@VQString@@V1@U?$less@VQString@@@std@@V?$allocator@U?$pair@$$CBVQString@@V1@@std@@@3@$0A@@std@@@std@@IEBA?AU?$pair@PEAU?$_Tree_node@U?$pair@$$CBVQString@@V1@@std@@PEAX@std@@PEAU12@@1@AEBVQString@@@Z 0000000140056280 f i httpdownloader.obj
 0001:00055280       ??$_Eqrange@VQString@@@?$_Tree@V?$_Tmap_traits@VQString@@_NU?$less@VQString@@@std@@V?$allocator@U?$pair@$$CBVQString@@_N@std@@@3@$0A@@std@@@std@@IEBA?AU?$pair@PEAU?$_Tree_node@U?$pair@$$CBVQString@@_N@std@@PEAX@std@@PEAU12@@1@AEBVQString@@@Z 0000000140056280 f i httpdownloader.obj
 0001:00055460       ??$_Erase_head@V?$allocator@U?$_Tree_node@U?$pair@$$CBVQString@@V1@@std@@PEAX@std@@@std@@@?$_Tree_val@U?$_Tree_simple_types@U?$pair@$$CBVQString@@V1@@std@@@std@@@std@@QEAAXAEAV?$allocator@U?$_Tree_node@U?$pair@$$CBVQString@@V1@@std@@PEAX@std@@@1@@Z 0000000140056460 f i httpdownloader.obj
 0001:000554b0       ??$_Erase_head@V?$allocator@U?$_Tree_node@U?$pair@$$CBVQString@@_N@std@@PEAX@std@@@std@@@?$_Tree_val@U?$_Tree_simple_types@U?$pair@$$CBVQString@@_N@std@@@std@@@std@@QEAAXAEAV?$allocator@U?$_Tree_node@U?$pair@$$CBVQString@@_N@std@@PEAX@std@@@1@@Z 00000001400564b0 f i httpdownloader.obj
 0001:00055500       ??$_Erase_tree@V?$allocator@U?$_Tree_node@U?$pair@$$CBVQString@@V1@@std@@PEAX@std@@@std@@@?$_Tree_val@U?$_Tree_simple_types@U?$pair@$$CBVQString@@V1@@std@@@std@@@std@@QEAAXAEAV?$allocator@U?$_Tree_node@U?$pair@$$CBVQString@@V1@@std@@PEAX@std@@@1@PEAU?$_Tree_node@U?$pair@$$CBVQString@@V1@@std@@PEAX@1@@Z 0000000140056500 f i httpdownloader.obj
 0001:00055560       ??$_Erase_tree@V?$allocator@U?$_Tree_node@U?$pair@$$CBVQString@@_N@std@@PEAX@std@@@std@@@?$_Tree_val@U?$_Tree_simple_types@U?$pair@$$CBVQString@@_N@std@@@std@@@std@@QEAAXAEAV?$allocator@U?$_Tree_node@U?$pair@$$CBVQString@@_N@std@@PEAX@std@@@1@PEAU?$_Tree_node@U?$pair@$$CBVQString@@_N@std@@PEAX@1@@Z 0000000140056560 f i httpdownloader.obj
 0001:000555c0       ??$_Erase_tree_and_orphan@V?$allocator@U?$_Tree_node@U?$pair@$$CBVQString@@V1@@std@@PEAX@std@@@std@@@?$_Tree_val@U?$_Tree_simple_types@U?$pair@$$CBVQString@@V1@@std@@@std@@@std@@QEAAXAEAV?$allocator@U?$_Tree_node@U?$pair@$$CBVQString@@V1@@std@@PEAX@std@@@1@PEAU?$_Tree_node@U?$pair@$$CBVQString@@V1@@std@@PEAX@1@@Z 00000001400565c0 f i httpdownloader.obj
 0001:00055640       ??$_Erase_tree_and_orphan@V?$allocator@U?$_Tree_node@U?$pair@$$CBVQString@@_N@std@@PEAX@std@@@std@@@?$_Tree_val@U?$_Tree_simple_types@U?$pair@$$CBVQString@@_N@std@@@std@@@std@@QEAAXAEAV?$allocator@U?$_Tree_node@U?$pair@$$CBVQString@@_N@std@@PEAX@std@@@1@PEAU?$_Tree_node@U?$pair@$$CBVQString@@_N@std@@PEAX@1@@Z 0000000140056640 f i httpdownloader.obj
 0001:000556c0       ??$_Find@VQString@@@?$_Tree@V?$_Tmap_traits@VQString@@V1@U?$less@VQString@@@std@@V?$allocator@U?$pair@$$CBVQString@@V1@@std@@@3@$0A@@std@@@std@@AEBAPEAU?$_Tree_node@U?$pair@$$CBVQString@@V1@@std@@PEAX@1@AEBVQString@@@Z 00000001400566c0 f i httpdownloader.obj
 0001:000556c0       ??$_Find@VQString@@@?$_Tree@V?$_Tmap_traits@VQString@@_NU?$less@VQString@@@std@@V?$allocator@U?$pair@$$CBVQString@@_N@std@@@3@$0A@@std@@@std@@AEBAPEAU?$_Tree_node@U?$pair@$$CBVQString@@_N@std@@PEAX@1@AEBVQString@@@Z 00000001400566c0 f i httpdownloader.obj
 0001:00055720       ??$_Find_hint@VQString@@@?$_Tree@V?$_Tmap_traits@VQString@@V1@U?$less@VQString@@@std@@V?$allocator@U?$pair@$$CBVQString@@V1@@std@@@3@$0A@@std@@@std@@IEBA?AU?$_Tree_find_hint_result@PEAU?$_Tree_node@U?$pair@$$CBVQString@@V1@@std@@PEAX@std@@@1@QEAU?$_Tree_node@U?$pair@$$CBVQString@@V1@@std@@PEAX@1@AEBVQString@@@Z 0000000140056720 f i httpdownloader.obj
 0001:00055720       ??$_Find_hint@VQString@@@?$_Tree@V?$_Tmap_traits@VQString@@_NU?$less@VQString@@@std@@V?$allocator@U?$pair@$$CBVQString@@_N@std@@@3@$0A@@std@@@std@@IEBA?AU?$_Tree_find_hint_result@PEAU?$_Tree_node@U?$pair@$$CBVQString@@_N@std@@PEAX@std@@@1@QEAU?$_Tree_node@U?$pair@$$CBVQString@@_N@std@@PEAX@1@AEBVQString@@@Z 0000000140056720 f i httpdownloader.obj
 0001:00055b90       ??$_Find_lower_bound@VQString@@@?$_Tree@V?$_Tmap_traits@VQString@@V1@U?$less@VQString@@@std@@V?$allocator@U?$pair@$$CBVQString@@V1@@std@@@3@$0A@@std@@@std@@IEBA?AU?$_Tree_find_result@PEAU?$_Tree_node@U?$pair@$$CBVQString@@V1@@std@@PEAX@std@@@1@AEBVQString@@@Z 0000000140056b90 f i httpdownloader.obj
 0001:00055b90       ??$_Find_lower_bound@VQString@@@?$_Tree@V?$_Tmap_traits@VQString@@_NU?$less@VQString@@@std@@V?$allocator@U?$pair@$$CBVQString@@_N@std@@@3@$0A@@std@@@std@@IEBA?AU?$_Tree_find_result@PEAU?$_Tree_node@U?$pair@$$CBVQString@@_N@std@@PEAX@std@@@1@AEBVQString@@@Z 0000000140056b90 f i httpdownloader.obj
 0001:00055ca0       ??$_Freenode0@V?$allocator@U?$_Tree_node@U?$pair@$$CBVQString@@V1@@std@@PEAX@std@@@std@@@?$_Tree_node@U?$pair@$$CBVQString@@V1@@std@@PEAX@std@@SAXAEAV?$allocator@U?$_Tree_node@U?$pair@$$CBVQString@@V1@@std@@PEAX@std@@@1@PEAU01@@Z 0000000140056ca0 f i httpdownloader.obj
 0001:00055d00       ??$_Freenode0@V?$allocator@U?$_Tree_node@U?$pair@$$CBVQString@@_N@std@@PEAX@std@@@std@@@?$_Tree_node@U?$pair@$$CBVQString@@_N@std@@PEAX@std@@SAXAEAV?$allocator@U?$_Tree_node@U?$pair@$$CBVQString@@_N@std@@PEAX@std@@@1@PEAU01@@Z 0000000140056d00 f i httpdownloader.obj
 0001:00055d60       ??$_Freenode@V?$allocator@U?$_Tree_node@U?$pair@$$CBVQString@@V1@@std@@PEAX@std@@@std@@@?$_Tree_node@U?$pair@$$CBVQString@@V1@@std@@PEAX@std@@SAXAEAV?$allocator@U?$_Tree_node@U?$pair@$$CBVQString@@V1@@std@@PEAX@std@@@1@PEAU01@@Z 0000000140056d60 f i httpdownloader.obj
 0001:00055db0       ??$_Freenode@V?$allocator@U?$_Tree_node@U?$pair@$$CBVQString@@_N@std@@PEAX@std@@@std@@@?$_Tree_node@U?$pair@$$CBVQString@@_N@std@@PEAX@std@@SAXAEAV?$allocator@U?$_Tree_node@U?$pair@$$CBVQString@@_N@std@@PEAX@std@@@1@PEAU01@@Z 0000000140056db0 f i httpdownloader.obj
 0001:00055e00       ??$_Get_size_of_n@$0EA@@std@@YA_K_K@Z 0000000140056e00 f i httpdownloader.obj
 0001:00055e40       ??$_Get_size_of_n@$0FA@@std@@YA_K_K@Z 0000000140056e40 f i httpdownloader.obj
 0001:00055e80       ??$_Get_unwrapped@AEAV?$_Tree_const_iterator@V?$_Tree_val@U?$_Tree_simple_types@U?$pair@$$CBVQString@@V1@@std@@@std@@@std@@@std@@@std@@YA?A_TAEAV?$_Tree_const_iterator@V?$_Tree_val@U?$_Tree_simple_types@U?$pair@$$CBVQString@@V1@@std@@@std@@@std@@@0@@Z 0000000140056e80 f i httpdownloader.obj
 0001:00055e80       ??$_Get_unwrapped@AEAV?$_Tree_const_iterator@V?$_Tree_val@U?$_Tree_simple_types@U?$pair@$$CBVQString@@_N@std@@@std@@@std@@@std@@@std@@YA?A_TAEAV?$_Tree_const_iterator@V?$_Tree_val@U?$_Tree_simple_types@U?$pair@$$CBVQString@@_N@std@@@std@@@std@@@0@@Z 0000000140056e80 f i httpdownloader.obj
 0001:00055e80       ??$_Get_unwrapped@AEBV?$_Tree_const_iterator@V?$_Tree_val@U?$_Tree_simple_types@U?$pair@$$CBVQString@@V1@@std@@@std@@@std@@@std@@@std@@YA?A_TAEBV?$_Tree_const_iterator@V?$_Tree_val@U?$_Tree_simple_types@U?$pair@$$CBVQString@@V1@@std@@@std@@@std@@@0@@Z 0000000140056e80 f i httpdownloader.obj
 0001:00055eb0       ??$_Idl_distance@V?$_Tree_const_iterator@V?$_Tree_val@U?$_Tree_simple_types@U?$pair@$$CBVQString@@V1@@std@@@std@@@std@@@std@@V?$_Tree_unchecked_const_iterator@V?$_Tree_val@U?$_Tree_simple_types@U?$pair@$$CBVQString@@V1@@std@@@std@@@std@@U_Iterator_base0@2@@2@@std@@YA?A_PAEBV?$_Tree_unchecked_const_iterator@V?$_Tree_val@U?$_Tree_simple_types@U?$pair@$$CBVQString@@V1@@std@@@std@@@std@@U_Iterator_base0@2@@0@0@Z 0000000140056eb0 f i httpdownloader.obj
 0001:00055ee0       ??$_Insert_or_assign@AEBVQString@@AEB_N@?$map@VQString@@_NU?$less@VQString@@@std@@V?$allocator@U?$pair@$$CBVQString@@_N@std@@@3@@std@@AEAA?AU?$pair@PEAU?$_Tree_node@U?$pair@$$CBVQString@@_N@std@@PEAX@std@@_N@1@AEBVQString@@AEB_N@Z 0000000140056ee0 f i httpdownloader.obj
 0001:00056090       ??$_Lower_bound_duplicate@VQString@@@?$_Tree@V?$_Tmap_traits@VQString@@V1@U?$less@VQString@@@std@@V?$allocator@U?$pair@$$CBVQString@@V1@@std@@@3@$0A@@std@@@std@@IEBA_NQEAU?$_Tree_node@U?$pair@$$CBVQString@@V1@@std@@PEAX@1@AEBVQString@@@Z 0000000140057090 f i httpdownloader.obj
 0001:00056090       ??$_Lower_bound_duplicate@VQString@@@?$_Tree@V?$_Tmap_traits@VQString@@_NU?$less@VQString@@@std@@V?$allocator@U?$pair@$$CBVQString@@_N@std@@@3@$0A@@std@@@std@@IEBA_NQEAU?$_Tree_node@U?$pair@$$CBVQString@@_N@std@@PEAX@1@AEBVQString@@@Z 0000000140057090 f i httpdownloader.obj
 0001:00056110       ??$_Seek_wrapped@V?$back_insert_iterator@V?$QList@VQString@@@@@std@@AEAV12@@std@@YAXAEAV?$back_insert_iterator@V?$QList@VQString@@@@@0@0@Z 0000000140057110 f i httpdownloader.obj
 0001:00056140       ??$_Seek_wrapped@V?$insert_iterator@V?$map@VQString@@V1@U?$less@VQString@@@std@@V?$allocator@U?$pair@$$CBVQString@@V1@@std@@@3@@std@@@std@@AEAV12@@std@@YAXAEAV?$insert_iterator@V?$map@VQString@@V1@U?$less@VQString@@@std@@V?$allocator@U?$pair@$$CBVQString@@V1@@std@@@3@@std@@@0@0@Z 0000000140057140 f i httpdownloader.obj
 0001:00056140       ??$_Seek_wrapped@V?$insert_iterator@V?$map@VQString@@_NU?$less@VQString@@@std@@V?$allocator@U?$pair@$$CBVQString@@_N@std@@@3@@std@@@std@@AEAV12@@std@@YAXAEAV?$insert_iterator@V?$map@VQString@@_NU?$less@VQString@@@std@@V?$allocator@U?$pair@$$CBVQString@@_N@std@@@3@@std@@@0@0@Z 0000000140057140 f i httpdownloader.obj
 0001:00056170       ??$back_inserter@V?$QList@VQString@@@@@std@@YA?AV?$back_insert_iterator@V?$QList@VQString@@@@@0@AEAV?$QList@VQString@@@@@Z 0000000140057170 f i httpdownloader.obj
 0001:000561a0       ??$construct@U?$pair@$$CBVQString@@V1@@std@@AEAU12@@?$_Default_allocator_traits@V?$allocator@U?$_Tree_node@U?$pair@$$CBVQString@@V1@@std@@PEAX@std@@@std@@@std@@SAXAEAV?$allocator@U?$_Tree_node@U?$pair@$$CBVQString@@V1@@std@@PEAX@std@@@1@QEAU?$pair@$$CBVQString@@V1@@1@AEAU31@@Z 00000001400571a0 f i httpdownloader.obj
 0001:000561a0       ??$construct@U?$pair@$$CBVQString@@V1@@std@@AEBU12@@?$_Default_allocator_traits@V?$allocator@U?$_Tree_node@U?$pair@$$CBVQString@@V1@@std@@PEAX@std@@@std@@@std@@SAXAEAV?$allocator@U?$_Tree_node@U?$pair@$$CBVQString@@V1@@std@@PEAX@std@@@1@QEAU?$pair@$$CBVQString@@V1@@1@AEBU31@@Z 00000001400571a0 f i httpdownloader.obj
 0001:00056200       ??$construct@U?$pair@$$CBVQString@@V1@@std@@U12@@?$_Default_allocator_traits@V?$allocator@U?$_Tree_node@U?$pair@$$CBVQString@@V1@@std@@PEAX@std@@@std@@@std@@SAXAEAV?$allocator@U?$_Tree_node@U?$pair@$$CBVQString@@V1@@std@@PEAX@std@@@1@QEAU?$pair@$$CBVQString@@V1@@1@$$QEAU31@@Z 0000000140057200 f i httpdownloader.obj
 0001:00056260       ??$construct@U?$pair@$$CBVQString@@_N@std@@AEAU12@@?$_Default_allocator_traits@V?$allocator@U?$_Tree_node@U?$pair@$$CBVQString@@_N@std@@PEAX@std@@@std@@@std@@SAXAEAV?$allocator@U?$_Tree_node@U?$pair@$$CBVQString@@_N@std@@PEAX@std@@@1@QEAU?$pair@$$CBVQString@@_N@1@AEAU31@@Z 0000000140057260 f i httpdownloader.obj
 0001:00056260       ??$construct@U?$pair@$$CBVQString@@_N@std@@AEBU12@@?$_Default_allocator_traits@V?$allocator@U?$_Tree_node@U?$pair@$$CBVQString@@_N@std@@PEAX@std@@@std@@@std@@SAXAEAV?$allocator@U?$_Tree_node@U?$pair@$$CBVQString@@_N@std@@PEAX@std@@@1@QEAU?$pair@$$CBVQString@@_N@1@AEBU31@@Z 0000000140057260 f i httpdownloader.obj
 0001:000562c0       ??$construct@U?$pair@$$CBVQString@@_N@std@@AEBVQString@@AEB_N@?$_Default_allocator_traits@V?$allocator@U?$_Tree_node@U?$pair@$$CBVQString@@_N@std@@PEAX@std@@@std@@@std@@SAXAEAV?$allocator@U?$_Tree_node@U?$pair@$$CBVQString@@_N@std@@PEAX@std@@@1@QEAU?$pair@$$CBVQString@@_N@1@AEBVQString@@AEB_N@Z 00000001400572c0 f i httpdownloader.obj
 0001:00056330       ??$destroy@U?$pair@$$CBVQString@@V1@@std@@@?$_Default_allocator_traits@V?$allocator@U?$_Tree_node@U?$pair@$$CBVQString@@V1@@std@@PEAX@std@@@std@@@std@@SAXAEAV?$allocator@U?$_Tree_node@U?$pair@$$CBVQString@@V1@@std@@PEAX@std@@@1@QEAU?$pair@$$CBVQString@@V1@@1@@Z 0000000140057330 f i httpdownloader.obj
 0001:00056350       ??$destroy@U?$pair@$$CBVQString@@_N@std@@@?$_Default_allocator_traits@V?$allocator@U?$_Tree_node@U?$pair@$$CBVQString@@_N@std@@PEAX@std@@@std@@@std@@SAXAEAV?$allocator@U?$_Tree_node@U?$pair@$$CBVQString@@_N@std@@PEAX@std@@@1@QEAU?$pair@$$CBVQString@@_N@1@@Z 0000000140057350 f i httpdownloader.obj
 0001:00056370       ??$distance@V?$_Tree_unchecked_const_iterator@V?$_Tree_val@U?$_Tree_simple_types@U?$pair@$$CBVQString@@V1@@std@@@std@@@std@@U_Iterator_base0@2@@std@@@std@@YA_JV?$_Tree_unchecked_const_iterator@V?$_Tree_val@U?$_Tree_simple_types@U?$pair@$$CBVQString@@V1@@std@@@std@@@std@@U_Iterator_base0@2@@0@0@Z 0000000140057370 f i httpdownloader.obj
 0001:00056370       ??$distance@V?$_Tree_unchecked_const_iterator@V?$_Tree_val@U?$_Tree_simple_types@U?$pair@$$CBVQString@@_N@std@@@std@@@std@@U_Iterator_base0@2@@std@@@std@@YA_JV?$_Tree_unchecked_const_iterator@V?$_Tree_val@U?$_Tree_simple_types@U?$pair@$$CBVQString@@_N@std@@@std@@@std@@U_Iterator_base0@2@@0@0@Z 0000000140057370 f i httpdownloader.obj
 0001:00056400       ??$emplace@VQString@@@?$QMovableArrayOps@VQString@@@QtPrivate@@QEAAX_J$$QEAVQString@@@Z 0000000140057400 f i httpdownloader.obj
 0001:00056710       ??$emplaceBack@VQString@@@?$QList@VQString@@@@QEAAAEAVQString@@$$QEAV1@@Z 0000000140057710 f i httpdownloader.obj
 0001:000567a0       ??$end@U?$QArrayDataPointer@VQString@@@@@std@@YAPEBVQString@@AEBU?$QArrayDataPointer@VQString@@@@@Z 00000001400577a0 f i httpdownloader.obj
 0001:000567c0       ??$insert@$0A@$0A@@?$_Tree@V?$_Tmap_traits@VQString@@V1@U?$less@VQString@@@std@@V?$allocator@U?$pair@$$CBVQString@@V1@@std@@@3@$0A@@std@@@std@@QEAA?AU?$pair@V?$_Tree_iterator@V?$_Tree_val@U?$_Tree_simple_types@U?$pair@$$CBVQString@@V1@@std@@@std@@@std@@@std@@_N@1@$$QEAU?$pair@$$CBVQString@@V1@@1@@Z 00000001400577c0 f i httpdownloader.obj
 0001:00056830       ??$insert_or_assign@AEB_N@?$map@VQString@@_NU?$less@VQString@@@std@@V?$allocator@U?$pair@$$CBVQString@@_N@std@@@3@@std@@QEAA?AU?$pair@V?$_Tree_iterator@V?$_Tree_val@U?$_Tree_simple_types@U?$pair@$$CBVQString@@_N@std@@@std@@@std@@@std@@_N@1@AEBVQString@@AEB_N@Z 0000000140057830 f i httpdownloader.obj
 0001:000568b0       ??$inserter@V?$map@VQString@@V1@U?$less@VQString@@@std@@V?$allocator@U?$pair@$$CBVQString@@V1@@std@@@3@@std@@@std@@YA?AV?$insert_iterator@V?$map@VQString@@V1@U?$less@VQString@@@std@@V?$allocator@U?$pair@$$CBVQString@@V1@@std@@@3@@std@@@0@AEAV?$map@VQString@@V1@U?$less@VQString@@@std@@V?$allocator@U?$pair@$$CBVQString@@V1@@std@@@3@@0@V?$_Tree_iterator@V?$_Tree_val@U?$_Tree_simple_types@U?$pair@$$CBVQString@@V1@@std@@@std@@@std@@@0@@Z 00000001400578b0 f i httpdownloader.obj
 0001:000568b0       ??$inserter@V?$map@VQString@@_NU?$less@VQString@@@std@@V?$allocator@U?$pair@$$CBVQString@@_N@std@@@3@@std@@@std@@YA?AV?$insert_iterator@V?$map@VQString@@_NU?$less@VQString@@@std@@V?$allocator@U?$pair@$$CBVQString@@_N@std@@@3@@std@@@0@AEAV?$map@VQString@@_NU?$less@VQString@@@std@@V?$allocator@U?$pair@$$CBVQString@@_N@std@@@3@@0@V?$_Tree_iterator@V?$_Tree_val@U?$_Tree_simple_types@U?$pair@$$CBVQString@@_N@std@@@std@@@std@@@0@@Z 00000001400578b0 f i httpdownloader.obj
 0001:000568f0       ??$q_relocate_overlap_n@VQString@@_J@QtPrivate@@YAXPEAVQString@@_J0@Z 00000001400578f0 f i httpdownloader.obj
 0001:00056950       ??$qobject_cast@PEAVQNetworkReply@@@@YAPEAVQNetworkReply@@PEAVQObject@@@Z 0000000140057950 f i httpdownloader.obj
 0001:00056970       ??$remove_copy_if@V?$_Tree_const_iterator@V?$_Tree_val@U?$_Tree_simple_types@U?$pair@$$CBVQString@@V1@@std@@@std@@@std@@@std@@V?$insert_iterator@V?$map@VQString@@V1@U?$less@VQString@@@std@@V?$allocator@U?$pair@$$CBVQString@@V1@@std@@@3@@std@@@2@V<lambda_1>@?1??copyIfNotEquivalentTo@?$QMapData@V?$map@VQString@@V1@U?$less@VQString@@@std@@V?$allocator@U?$pair@$$CBVQString@@V1@@std@@@3@@std@@@@QEAA_KAEBV?$map@VQString@@V1@U?$less@VQString@@@std@@V?$allocator@U?$pair@$$CBVQString@@V1@@std@@@3@@2@AEBVQString@@@Z@@std@@YA?AV?$insert_iterator@V?$map@VQString@@V1@U?$less@VQString@@@std@@V?$allocator@U?$pair@$$CBVQString@@V1@@std@@@3@@std@@@0@V?$_Tree_const_iterator@V?$_Tree_val@U?$_Tree_simple_types@U?$pair@$$CBVQString@@V1@@std@@@std@@@std@@@0@0V10@V<lambda_1>@?1??copyIfNotEquivalentTo@?$QMapData@V?$map@VQString@@V1@U?$less@VQString@@@std@@V?$allocator@U?$pair@$$CBVQString@@V1@@std@@@3@@std@@@@QEAA_KAEBV?$map@VQString@@V1@U?$less@VQString@@@std@@V?$allocator@U?$pair@$$CBVQString@@V1@@std@@@3@@0@AEBVQString@@@Z@@Z 0000000140057970 f i httpdownloader.obj
 0001:00056a90       ??$remove_copy_if@V?$_Tree_const_iterator@V?$_Tree_val@U?$_Tree_simple_types@U?$pair@$$CBVQString@@_N@std@@@std@@@std@@@std@@V?$insert_iterator@V?$map@VQString@@_NU?$less@VQString@@@std@@V?$allocator@U?$pair@$$CBVQString@@_N@std@@@3@@std@@@2@V<lambda_1>@?1??copyIfNotEquivalentTo@?$QMapData@V?$map@VQString@@_NU?$less@VQString@@@std@@V?$allocator@U?$pair@$$CBVQString@@_N@std@@@3@@std@@@@QEAA_KAEBV?$map@VQString@@_NU?$less@VQString@@@std@@V?$allocator@U?$pair@$$CBVQString@@_N@std@@@3@@2@AEBVQString@@@Z@@std@@YA?AV?$insert_iterator@V?$map@VQString@@_NU?$less@VQString@@@std@@V?$allocator@U?$pair@$$CBVQString@@_N@std@@@3@@std@@@0@V?$_Tree_const_iterator@V?$_Tree_val@U?$_Tree_simple_types@U?$pair@$$CBVQString@@_N@std@@@std@@@std@@@0@0V10@V<lambda_1>@?1??copyIfNotEquivalentTo@?$QMapData@V?$map@VQString@@_NU?$less@VQString@@@std@@V?$allocator@U?$pair@$$CBVQString@@_N@std@@@3@@std@@@@QEAA_KAEBV?$map@VQString@@_NU?$less@VQString@@@std@@V?$allocator@U?$pair@$$CBVQString@@_N@std@@@3@@0@AEBVQString@@@Z@@Z 0000000140057a90 f i httpdownloader.obj
 0001:00056bb0       ??$swap@D$0A@@std@@YAXAEAD0@Z 0000000140057bb0 f i httpdownloader.obj
 0001:00056c00       ??$transform@V?$_Tree_const_iterator@V?$_Tree_val@U?$_Tree_simple_types@U?$pair@$$CBVQString@@V1@@std@@@std@@@std@@@std@@V?$back_insert_iterator@V?$QList@VQString@@@@@2@V<lambda_1>@?1??values@?$QMapData@V?$map@VQString@@V1@U?$less@VQString@@@std@@V?$allocator@U?$pair@$$CBVQString@@V1@@std@@@3@@std@@@@QEBA?AV?$QList@VQString@@@@XZ@@std@@YA?AV?$back_insert_iterator@V?$QList@VQString@@@@@0@V?$_Tree_const_iterator@V?$_Tree_val@U?$_Tree_simple_types@U?$pair@$$CBVQString@@V1@@std@@@std@@@std@@@0@0V10@V<lambda_1>@?1??values@?$QMapData@V?$map@VQString@@V1@U?$less@VQString@@@std@@V?$allocator@U?$pair@$$CBVQString@@V1@@std@@@3@@std@@@@QEBA?AV?$QList@VQString@@@@XZ@@Z 0000000140057c00 f i httpdownloader.obj
 0001:00056d40       ??0?$QExplicitlySharedDataPointerV2@V?$QMapData@V?$map@VQString@@V1@U?$less@VQString@@@std@@V?$allocator@U?$pair@$$CBVQString@@V1@@std@@@3@@std@@@@@QtPrivate@@QEAA@$$QEAV01@@Z 0000000140057d40 f i httpdownloader.obj
 0001:00056d40       ??0?$QExplicitlySharedDataPointerV2@V?$QMapData@V?$map@VQString@@_NU?$less@VQString@@@std@@V?$allocator@U?$pair@$$CBVQString@@_N@std@@@3@@std@@@@@QtPrivate@@QEAA@$$QEAV01@@Z 0000000140057d40 f i httpdownloader.obj
 0001:00056d80       ??0?$QExplicitlySharedDataPointerV2@V?$QMapData@V?$map@VQString@@V1@U?$less@VQString@@@std@@V?$allocator@U?$pair@$$CBVQString@@V1@@std@@@3@@std@@@@@QtPrivate@@QEAA@AEBV01@@Z 0000000140057d80 f i httpdownloader.obj
 0001:00056d80       ??0?$QExplicitlySharedDataPointerV2@V?$QMapData@V?$map@VQString@@_NU?$less@VQString@@@std@@V?$allocator@U?$pair@$$CBVQString@@_N@std@@@3@@std@@@@@QtPrivate@@QEAA@AEBV01@@Z 0000000140057d80 f i httpdownloader.obj
 0001:00056dc0       ??0?$QExplicitlySharedDataPointerV2@V?$QMapData@V?$map@VQString@@V1@U?$less@VQString@@@std@@V?$allocator@U?$pair@$$CBVQString@@V1@@std@@@3@@std@@@@@QtPrivate@@QEAA@PEAV?$QMapData@V?$map@VQString@@V1@U?$less@VQString@@@std@@V?$allocator@U?$pair@$$CBVQString@@V1@@std@@@3@@std@@@@@Z 0000000140057dc0 f i httpdownloader.obj
 0001:00056dc0       ??0?$QExplicitlySharedDataPointerV2@V?$QMapData@V?$map@VQString@@_NU?$less@VQString@@@std@@V?$allocator@U?$pair@$$CBVQString@@_N@std@@@3@@std@@@@@QtPrivate@@QEAA@PEAV?$QMapData@V?$map@VQString@@_NU?$less@VQString@@@std@@V?$allocator@U?$pair@$$CBVQString@@_N@std@@@3@@std@@@@@Z 0000000140057dc0 f i httpdownloader.obj
 0001:00056e00       ??0?$QMap@VQString@@V1@@@QEAA@$$QEAV0@@Z 0000000140057e00 f i httpdownloader.obj
 0001:00056e00       ??0?$QMap@VQString@@_N@@QEAA@$$QEAV0@@Z 0000000140057e00 f i httpdownloader.obj
 0001:00056e40       ??0?$QMap@VQString@@V1@@@QEAA@AEBV0@@Z 0000000140057e40 f i httpdownloader.obj
 0001:00056e40       ??0?$QMap@VQString@@_N@@QEAA@AEBV0@@Z 0000000140057e40 f i httpdownloader.obj
 0001:00056e80       ??0?$QMap@VQString@@V1@@@QEAA@XZ 0000000140057e80 f i httpdownloader.obj
 0001:00056e80       ??0?$QMap@VQString@@_N@@QEAA@XZ 0000000140057e80 f i httpdownloader.obj
 0001:00056ea0       ??0?$QMapData@V?$map@VQString@@V1@U?$less@VQString@@@std@@V?$allocator@U?$pair@$$CBVQString@@V1@@std@@@3@@std@@@@QEAA@AEBV0@@Z 0000000140057ea0 f i httpdownloader.obj
 0001:00056ef0       ??0?$QMapData@V?$map@VQString@@V1@U?$less@VQString@@@std@@V?$allocator@U?$pair@$$CBVQString@@V1@@std@@@3@@std@@@@QEAA@XZ 0000000140057ef0 f i httpdownloader.obj
 0001:00056f20       ??0?$QMapData@V?$map@VQString@@_NU?$less@VQString@@@std@@V?$allocator@U?$pair@$$CBVQString@@_N@std@@@3@@std@@@@QEAA@AEBV0@@Z 0000000140057f20 f i httpdownloader.obj
 0001:00056f70       ??0?$QMapData@V?$map@VQString@@_NU?$less@VQString@@@std@@V?$allocator@U?$pair@$$CBVQString@@_N@std@@@3@@std@@@@QEAA@XZ 0000000140057f70 f i httpdownloader.obj
 0001:00056fa0       ??0?$_Tree@V?$_Tmap_traits@VQString@@V1@U?$less@VQString@@@std@@V?$allocator@U?$pair@$$CBVQString@@V1@@std@@@3@$0A@@std@@@std@@QEAA@AEBU?$less@VQString@@@1@@Z 0000000140057fa0 f i httpdownloader.obj
 0001:00056ff0       ??0?$_Tree@V?$_Tmap_traits@VQString@@_NU?$less@VQString@@@std@@V?$allocator@U?$pair@$$CBVQString@@_N@std@@@3@$0A@@std@@@std@@QEAA@AEBU?$less@VQString@@@1@@Z 0000000140057ff0 f i httpdownloader.obj
 0001:00057040       ??0?$_Tree_head_scoped_ptr@V?$allocator@U?$_Tree_node@U?$pair@$$CBVQString@@V1@@std@@PEAX@std@@@std@@V?$_Tree_val@U?$_Tree_simple_types@U?$pair@$$CBVQString@@V1@@std@@@std@@@2@@std@@QEAA@AEAV?$allocator@U?$_Tree_node@U?$pair@$$CBVQString@@V1@@std@@PEAX@std@@@1@AEAV?$_Tree_val@U?$_Tree_simple_types@U?$pair@$$CBVQString@@V1@@std@@@std@@@1@@Z 0000000140058040 f i httpdownloader.obj
 0001:000570a0       ??0?$_Tree_head_scoped_ptr@V?$allocator@U?$_Tree_node@U?$pair@$$CBVQString@@_N@std@@PEAX@std@@@std@@V?$_Tree_val@U?$_Tree_simple_types@U?$pair@$$CBVQString@@_N@std@@@std@@@2@@std@@QEAA@AEAV?$allocator@U?$_Tree_node@U?$pair@$$CBVQString@@_N@std@@PEAX@std@@@1@AEAV?$_Tree_val@U?$_Tree_simple_types@U?$pair@$$CBVQString@@_N@std@@@std@@@1@@Z 00000001400580a0 f i httpdownloader.obj
 0001:00057100       ??0?$_Tree_temp_node_alloc@V?$allocator@U?$_Tree_node@U?$pair@$$CBVQString@@V1@@std@@PEAX@std@@@std@@@std@@QEAA@AEAV?$allocator@U?$_Tree_node@U?$pair@$$CBVQString@@V1@@std@@PEAX@std@@@1@@Z 0000000140058100 f i httpdownloader.obj
 0001:00057140       ??0?$_Tree_temp_node_alloc@V?$allocator@U?$_Tree_node@U?$pair@$$CBVQString@@_N@std@@PEAX@std@@@std@@@std@@QEAA@AEAV?$allocator@U?$_Tree_node@U?$pair@$$CBVQString@@_N@std@@PEAX@std@@@1@@Z 0000000140058140 f i httpdownloader.obj
 0001:00057180       ??0?$insert_iterator@V?$map@VQString@@V1@U?$less@VQString@@@std@@V?$allocator@U?$pair@$$CBVQString@@V1@@std@@@3@@std@@@std@@QEAA@AEAV?$map@VQString@@V1@U?$less@VQString@@@std@@V?$allocator@U?$pair@$$CBVQString@@V1@@std@@@3@@1@V?$_Tree_iterator@V?$_Tree_val@U?$_Tree_simple_types@U?$pair@$$CBVQString@@V1@@std@@@std@@@std@@@1@@Z 0000000140058180 f i httpdownloader.obj
 0001:00057180       ??0?$insert_iterator@V?$map@VQString@@_NU?$less@VQString@@@std@@V?$allocator@U?$pair@$$CBVQString@@_N@std@@@3@@std@@@std@@QEAA@AEAV?$map@VQString@@_NU?$less@VQString@@@std@@V?$allocator@U?$pair@$$CBVQString@@_N@std@@@3@@1@V?$_Tree_iterator@V?$_Tree_val@U?$_Tree_simple_types@U?$pair@$$CBVQString@@_N@std@@@std@@@std@@@1@@Z 0000000140058180 f i httpdownloader.obj
 0001:000571d0       ??0?$map@VQString@@V1@U?$less@VQString@@@std@@V?$allocator@U?$pair@$$CBVQString@@V1@@std@@@3@@std@@QEAA@AEBV01@@Z 00000001400581d0 f i httpdownloader.obj
 0001:00057220       ??0?$map@VQString@@V1@U?$less@VQString@@@std@@V?$allocator@U?$pair@$$CBVQString@@V1@@std@@@3@@std@@QEAA@XZ 0000000140058220 f i httpdownloader.obj
 0001:00057250       ??0?$map@VQString@@_NU?$less@VQString@@@std@@V?$allocator@U?$pair@$$CBVQString@@_N@std@@@3@@std@@QEAA@AEBV01@@Z 0000000140058250 f i httpdownloader.obj
 0001:000572a0       ??0?$map@VQString@@_NU?$less@VQString@@@std@@V?$allocator@U?$pair@$$CBVQString@@_N@std@@@3@@std@@QEAA@XZ 00000001400582a0 f i httpdownloader.obj
 0001:000572d0       ??0?$pair@$$CBVQString@@V1@@std@@QEAA@$$QEAU01@@Z 00000001400582d0 f i httpdownloader.obj
 0001:00057330       ??0?$pair@$$CBVQString@@V1@@std@@QEAA@AEBU01@@Z 0000000140058330 f i httpdownloader.obj
 0001:00057390       ??0?$pair@$$CBVQString@@_N@std@@QEAA@AEBU01@@Z 0000000140058390 f i httpdownloader.obj
 0001:000573e0       ??0QSharedData@@QEAA@AEBV0@@Z 00000001400583e0 f i httpdownloader.obj
 0001:00057410       ??0QSharedData@@QEAA@XZ    0000000140058410 f i httpdownloader.obj
 0001:00057440       ??1?$QExplicitlySharedDataPointerV2@V?$QMapData@V?$map@VQString@@V1@U?$less@VQString@@@std@@V?$allocator@U?$pair@$$CBVQString@@V1@@std@@@3@@std@@@@@QtPrivate@@QEAA@XZ 0000000140058440 f i httpdownloader.obj
 0001:000574b0       ??1?$QExplicitlySharedDataPointerV2@V?$QMapData@V?$map@VQString@@_NU?$less@VQString@@@std@@V?$allocator@U?$pair@$$CBVQString@@_N@std@@@3@@std@@@@@QtPrivate@@QEAA@XZ 00000001400584b0 f i httpdownloader.obj
 0001:00057520       ??1?$QMap@VQString@@V1@@@QEAA@XZ 0000000140058520 f i httpdownloader.obj
 0001:00057540       ??1?$QMap@VQString@@_N@@QEAA@XZ 0000000140058540 f i httpdownloader.obj
 0001:00057560       ??1?$QMapData@V?$map@VQString@@V1@U?$less@VQString@@@std@@V?$allocator@U?$pair@$$CBVQString@@V1@@std@@@3@@std@@@@QEAA@XZ 0000000140058560 f i httpdownloader.obj
 0001:00057580       ??1?$QMapData@V?$map@VQString@@_NU?$less@VQString@@@std@@V?$allocator@U?$pair@$$CBVQString@@_N@std@@@3@@std@@@@QEAA@XZ 0000000140058580 f i httpdownloader.obj
 0001:000575a0       ??1?$_Alloc_construct_ptr@V?$allocator@U?$_Tree_node@U?$pair@$$CBVQString@@V1@@std@@PEAX@std@@@std@@@std@@QEAA@XZ 00000001400585a0 f i httpdownloader.obj
 0001:000575f0       ??1?$_Alloc_construct_ptr@V?$allocator@U?$_Tree_node@U?$pair@$$CBVQString@@_N@std@@PEAX@std@@@std@@@std@@QEAA@XZ 00000001400585f0 f i httpdownloader.obj
 0001:00057640       ??1?$_Tree@V?$_Tmap_traits@VQString@@V1@U?$less@VQString@@@std@@V?$allocator@U?$pair@$$CBVQString@@V1@@std@@@3@$0A@@std@@@std@@QEAA@XZ 0000000140058640 f i httpdownloader.obj
 0001:00057680       ??1?$_Tree@V?$_Tmap_traits@VQString@@_NU?$less@VQString@@@std@@V?$allocator@U?$pair@$$CBVQString@@_N@std@@@3@$0A@@std@@@std@@QEAA@XZ 0000000140058680 f i httpdownloader.obj
 0001:000576c0       ??1?$_Tree_head_scoped_ptr@V?$allocator@U?$_Tree_node@U?$pair@$$CBVQString@@V1@@std@@PEAX@std@@@std@@V?$_Tree_val@U?$_Tree_simple_types@U?$pair@$$CBVQString@@V1@@std@@@std@@@2@@std@@QEAA@XZ 00000001400586c0 f i httpdownloader.obj
 0001:00057700       ??1?$_Tree_head_scoped_ptr@V?$allocator@U?$_Tree_node@U?$pair@$$CBVQString@@_N@std@@PEAX@std@@@std@@V?$_Tree_val@U?$_Tree_simple_types@U?$pair@$$CBVQString@@_N@std@@@std@@@2@@std@@QEAA@XZ 0000000140058700 f i httpdownloader.obj
 0001:00057740       ??1?$_Tree_temp_node@V?$allocator@U?$_Tree_node@U?$pair@$$CBVQString@@V1@@std@@PEAX@std@@@std@@@std@@QEAA@XZ 0000000140058740 f i httpdownloader.obj
 0001:000577e0       ??1?$_Tree_temp_node@V?$allocator@U?$_Tree_node@U?$pair@$$CBVQString@@_N@std@@PEAX@std@@@std@@@std@@QEAA@XZ 00000001400587e0 f i httpdownloader.obj
 0001:00057880       ??1?$_Tree_temp_node_alloc@V?$allocator@U?$_Tree_node@U?$pair@$$CBVQString@@V1@@std@@PEAX@std@@@std@@@std@@QEAA@XZ 0000000140058880 f i httpdownloader.obj
 0001:000578a0       ??1?$_Tree_temp_node_alloc@V?$allocator@U?$_Tree_node@U?$pair@$$CBVQString@@_N@std@@PEAX@std@@@std@@@std@@QEAA@XZ 00000001400588a0 f i httpdownloader.obj
 0001:000578c0       ??1?$map@VQString@@V1@U?$less@VQString@@@std@@V?$allocator@U?$pair@$$CBVQString@@V1@@std@@@3@@std@@QEAA@XZ 00000001400588c0 f i httpdownloader.obj
 0001:000578e0       ??1?$map@VQString@@_NU?$less@VQString@@@std@@V?$allocator@U?$pair@$$CBVQString@@_N@std@@@3@@std@@QEAA@XZ 00000001400588e0 f i httpdownloader.obj
 0001:00057900       ??1?$pair@$$CBVQString@@V1@@std@@QEAA@XZ 0000000140058900 f i httpdownloader.obj
 0001:00057930       ??1?$pair@$$CBVQString@@_N@std@@QEAA@XZ 0000000140058930 f i httpdownloader.obj
 0001:00057950       ??4?$back_insert_iterator@V?$QList@VQString@@@@@std@@QEAAAEAV01@$$QEAVQString@@@Z 0000000140058950 f i httpdownloader.obj
 0001:000579a0       ??4?$insert_iterator@V?$map@VQString@@V1@U?$less@VQString@@@std@@V?$allocator@U?$pair@$$CBVQString@@V1@@std@@@3@@std@@@std@@QEAAAEAV01@AEBU?$pair@$$CBVQString@@V1@@1@@Z 00000001400589a0 f i httpdownloader.obj
 0001:00057a20       ??4?$insert_iterator@V?$map@VQString@@_NU?$less@VQString@@@std@@V?$allocator@U?$pair@$$CBVQString@@_N@std@@@3@@std@@@std@@QEAAAEAV01@AEBU?$pair@$$CBVQString@@_N@1@@Z 0000000140058a20 f i httpdownloader.obj
 0001:00057aa0       ??A?$QList@VQString@@@@QEAAAEAVQString@@_J@Z 0000000140058aa0 f i httpdownloader.obj
 0001:00057ad0       ??A?$QMap@VQString@@V1@@@QEAAAEAVQString@@AEBV1@@Z 0000000140058ad0 f i httpdownloader.obj
 0001:00057d00       ??B?$QExplicitlySharedDataPointerV2@V?$QMapData@V?$map@VQString@@V1@U?$less@VQString@@@std@@V?$allocator@U?$pair@$$CBVQString@@V1@@std@@@3@@std@@@@@QtPrivate@@QEBA_NXZ 0000000140058d00 f i httpdownloader.obj
 0001:00057d00       ??B?$QExplicitlySharedDataPointerV2@V?$QMapData@V?$map@VQString@@_NU?$less@VQString@@@std@@V?$allocator@U?$pair@$$CBVQString@@_N@std@@@3@@std@@@@@QtPrivate@@QEBA_NXZ 0000000140058d00 f i httpdownloader.obj
 0001:00057d30       ??C?$_Tree_const_iterator@V?$_Tree_val@U?$_Tree_simple_types@U?$pair@$$CBVQString@@_N@std@@@std@@@std@@@std@@QEBAPEBU?$pair@$$CBVQString@@_N@1@XZ 0000000140058d30 f i httpdownloader.obj
 0001:00057d50       ??E?$_Tree_unchecked_const_iterator@V?$_Tree_val@U?$_Tree_simple_types@U?$pair@$$CBVQString@@V1@@std@@@std@@@std@@U_Iterator_base0@2@@std@@QEAA?AV01@H@Z 0000000140058d50 f i httpdownloader.obj
 0001:00057d50       ??E?$_Tree_unchecked_const_iterator@V?$_Tree_val@U?$_Tree_simple_types@U?$pair@$$CBVQString@@_N@std@@@std@@@std@@U_Iterator_base0@2@@std@@QEAA?AV01@H@Z 0000000140058d50 f i httpdownloader.obj
 0001:00057d90       ??F?$_Tree_unchecked_const_iterator@V?$_Tree_val@U?$_Tree_simple_types@U?$pair@$$CBVQString@@V1@@std@@@std@@@std@@U_Iterator_base0@2@@std@@QEAAAEAV01@XZ 0000000140058d90 f i httpdownloader.obj
 0001:00057d90       ??F?$_Tree_unchecked_const_iterator@V?$_Tree_val@U?$_Tree_simple_types@U?$pair@$$CBVQString@@_N@std@@@std@@@std@@U_Iterator_base0@2@@std@@QEAAAEAV01@XZ 0000000140058d90 f i httpdownloader.obj
 0001:00057e60       ??M@YA_NAEBVQString@@0@Z   0000000140058e60 f i httpdownloader.obj
 0001:00057f40       ??R?$less@VQString@@@std@@QEBA_NAEBVQString@@0@Z 0000000140058f40 f i httpdownloader.obj
 0001:00057f40       ?lessThan@?$QLessThanOperatorForType@VQString@@$00@QtPrivate@@SA_NPEBVQMetaTypeInterface@2@PEBX1@Z 0000000140058f40 f i moc_monitorthread.obj
 0001:00057f70       ??_5?$QFlags@W4ArrayOption@QArrayData@@@@QEAAAEAV0@V0@@Z 0000000140058f70 f i httpdownloader.obj
 0001:00057fa0       ??_G?$QMapData@V?$map@VQString@@V1@U?$less@VQString@@@std@@V?$allocator@U?$pair@$$CBVQString@@V1@@std@@@3@@std@@@@QEAAPEAXI@Z 0000000140058fa0 f i httpdownloader.obj
 0001:00057fe0       ??_G?$QMapData@V?$map@VQString@@_NU?$less@VQString@@@std@@V?$allocator@U?$pair@$$CBVQString@@_N@std@@@3@@std@@@@QEAAPEAXI@Z 0000000140058fe0 f i httpdownloader.obj
 0001:00058020       ??_G?$pair@$$CBVQString@@V1@@std@@QEAAPEAXI@Z 0000000140059020 f i httpdownloader.obj
 0001:00058060       ??_G?$pair@$$CBVQString@@_N@std@@QEAAPEAXI@Z 0000000140059060 f i httpdownloader.obj
 0001:000580a0       ??_ECHttpDownloader@@UEAAPEAXI@Z 00000001400590a0 f i httpdownloader.obj
 0001:000580a0       ??_GCHttpDownloader@@UEAAPEAXI@Z 00000001400590a0 f i httpdownloader.obj
 0001:000580e0       ??_EQNetworkAccessManager@@UEAAPEAXI@Z 00000001400590e0 f i httpdownloader.obj
 0001:000580e0       ??_GQNetworkAccessManager@@UEAAPEAXI@Z 00000001400590e0 f i httpdownloader.obj
 0001:00058120       ?_Alloc_sentinel_and_proxy@?$_Tree@V?$_Tmap_traits@VQString@@V1@U?$less@VQString@@@std@@V?$allocator@U?$pair@$$CBVQString@@V1@@std@@@3@$0A@@std@@@std@@IEAAXXZ 0000000140059120 f i httpdownloader.obj
 0001:00058190       ?_Alloc_sentinel_and_proxy@?$_Tree@V?$_Tmap_traits@VQString@@_NU?$less@VQString@@@std@@V?$allocator@U?$pair@$$CBVQString@@_N@std@@@3@$0A@@std@@@std@@IEAAXXZ 0000000140059190 f i httpdownloader.obj
 0001:00058200       ?_Allocate@?$_Alloc_construct_ptr@V?$allocator@U?$_Tree_node@U?$pair@$$CBVQString@@V1@@std@@PEAX@std@@@std@@@std@@QEAAXXZ 0000000140059200 f i httpdownloader.obj
 0001:00058240       ?_Allocate@?$_Alloc_construct_ptr@V?$allocator@U?$_Tree_node@U?$pair@$$CBVQString@@_N@std@@PEAX@std@@@std@@@std@@QEAAXXZ 0000000140059240 f i httpdownloader.obj
 0001:00058280       ?_Check_grow_by_1@?$_Tree@V?$_Tmap_traits@VQString@@V1@U?$less@VQString@@@std@@V?$allocator@U?$pair@$$CBVQString@@V1@@std@@@3@$0A@@std@@@std@@IEAAXXZ 0000000140059280 f i httpdownloader.obj
 0001:000582c0       ?_Check_grow_by_1@?$_Tree@V?$_Tmap_traits@VQString@@_NU?$less@VQString@@@std@@V?$allocator@U?$pair@$$CBVQString@@_N@std@@@3@$0A@@std@@@std@@IEAAXXZ 00000001400592c0 f i httpdownloader.obj
 0001:00058300       ?_Erase@?$_Tree@V?$_Tmap_traits@VQString@@V1@U?$less@VQString@@@std@@V?$allocator@U?$pair@$$CBVQString@@V1@@std@@@3@$0A@@std@@@std@@AEAA_KU?$pair@PEAU?$_Tree_node@U?$pair@$$CBVQString@@V1@@std@@PEAX@std@@PEAU12@@2@@Z 0000000140059300 f i httpdownloader.obj
 0001:00058370       ?_Erase@?$_Tree@V?$_Tmap_traits@VQString@@_NU?$less@VQString@@@std@@V?$allocator@U?$pair@$$CBVQString@@_N@std@@@3@$0A@@std@@@std@@AEAA_KU?$pair@PEAU?$_Tree_node@U?$pair@$$CBVQString@@_N@std@@PEAX@std@@PEAU12@@2@@Z 0000000140059370 f i httpdownloader.obj
 0001:000583e0       ?_Erase_unchecked@?$_Tree@V?$_Tmap_traits@VQString@@V1@U?$less@VQString@@@std@@V?$allocator@U?$pair@$$CBVQString@@V1@@std@@@3@$0A@@std@@@std@@AEAAPEAU?$_Tree_node@U?$pair@$$CBVQString@@V1@@std@@PEAX@2@V?$_Tree_unchecked_const_iterator@V?$_Tree_val@U?$_Tree_simple_types@U?$pair@$$CBVQString@@V1@@std@@@std@@@std@@U_Iterator_base0@2@@2@0@Z 00000001400593e0 f i httpdownloader.obj
 0001:00058480       ?_Erase_unchecked@?$_Tree@V?$_Tmap_traits@VQString@@V1@U?$less@VQString@@@std@@V?$allocator@U?$pair@$$CBVQString@@V1@@std@@@3@$0A@@std@@@std@@AEAAPEAU?$_Tree_node@U?$pair@$$CBVQString@@V1@@std@@PEAX@2@V?$_Tree_unchecked_const_iterator@V?$_Tree_val@U?$_Tree_simple_types@U?$pair@$$CBVQString@@V1@@std@@@std@@@std@@U_Iterator_base0@2@@2@@Z 0000000140059480 f i httpdownloader.obj
 0001:00058500       ?_Erase_unchecked@?$_Tree@V?$_Tmap_traits@VQString@@_NU?$less@VQString@@@std@@V?$allocator@U?$pair@$$CBVQString@@_N@std@@@3@$0A@@std@@@std@@AEAAPEAU?$_Tree_node@U?$pair@$$CBVQString@@_N@std@@PEAX@2@V?$_Tree_unchecked_const_iterator@V?$_Tree_val@U?$_Tree_simple_types@U?$pair@$$CBVQString@@_N@std@@@std@@@std@@U_Iterator_base0@2@@2@0@Z 0000000140059500 f i httpdownloader.obj
 0001:000585a0       ?_Erase_unchecked@?$_Tree@V?$_Tmap_traits@VQString@@_NU?$less@VQString@@@std@@V?$allocator@U?$pair@$$CBVQString@@_N@std@@@3@$0A@@std@@@std@@AEAAPEAU?$_Tree_node@U?$pair@$$CBVQString@@_N@std@@PEAX@2@V?$_Tree_unchecked_const_iterator@V?$_Tree_val@U?$_Tree_simple_types@U?$pair@$$CBVQString@@_N@std@@@std@@@std@@U_Iterator_base0@2@@2@@Z 00000001400595a0 f i httpdownloader.obj
 0001:00058620       ?_Extract@?$_Tree_val@U?$_Tree_simple_types@U?$pair@$$CBVQString@@V1@@std@@@std@@@std@@QEAAPEAU?$_Tree_node@U?$pair@$$CBVQString@@V1@@std@@PEAX@2@V?$_Tree_unchecked_const_iterator@V?$_Tree_val@U?$_Tree_simple_types@U?$pair@$$CBVQString@@V1@@std@@@std@@@std@@U_Iterator_base0@2@@2@@Z 0000000140059620 f i httpdownloader.obj
 0001:00058620       ?_Extract@?$_Tree_val@U?$_Tree_simple_types@U?$pair@$$CBVQString@@_N@std@@@std@@@std@@QEAAPEAU?$_Tree_node@U?$pair@$$CBVQString@@_N@std@@PEAX@2@V?$_Tree_unchecked_const_iterator@V?$_Tree_val@U?$_Tree_simple_types@U?$pair@$$CBVQString@@_N@std@@@std@@@std@@U_Iterator_base0@2@@2@@Z 0000000140059620 f i httpdownloader.obj
 0001:00058bc0       ?_Getcont@_Iterator_base0@std@@QEBAPEBU_Container_base0@2@XZ 0000000140059bc0 f i httpdownloader.obj
 0001:00058bd0       ?_Max@?$_Tree_val@U?$_Tree_simple_types@U?$pair@$$CBVQString@@V1@@std@@@std@@@std@@SAPEAU?$_Tree_node@U?$pair@$$CBVQString@@V1@@std@@PEAX@2@PEAU32@@Z 0000000140059bd0 f i httpdownloader.obj
 0001:00058bd0       ?_Max@?$_Tree_val@U?$_Tree_simple_types@U?$pair@$$CBVQString@@_N@std@@@std@@@std@@SAPEAU?$_Tree_node@U?$pair@$$CBVQString@@_N@std@@PEAX@2@PEAU32@@Z 0000000140059bd0 f i httpdownloader.obj
 0001:00058c00       ?_Release@?$_Tree_head_scoped_ptr@V?$allocator@U?$_Tree_node@U?$pair@$$CBVQString@@V1@@std@@PEAX@std@@@std@@V?$_Tree_val@U?$_Tree_simple_types@U?$pair@$$CBVQString@@V1@@std@@@std@@@2@@std@@QEAAXXZ 0000000140059c00 f i httpdownloader.obj
 0001:00058c00       ?_Release@?$_Tree_head_scoped_ptr@V?$allocator@U?$_Tree_node@U?$pair@$$CBVQString@@_N@std@@PEAX@std@@@std@@V?$_Tree_val@U?$_Tree_simple_types@U?$pair@$$CBVQString@@_N@std@@@std@@@2@@std@@QEAAXXZ 0000000140059c00 f i httpdownloader.obj
 0001:00058c20       ?_Unchecked_begin@?$_Tree@V?$_Tmap_traits@VQString@@V1@U?$less@VQString@@@std@@V?$allocator@U?$pair@$$CBVQString@@V1@@std@@@3@$0A@@std@@@std@@QEAA?AV?$_Tree_unchecked_iterator@V?$_Tree_val@U?$_Tree_simple_types@U?$pair@$$CBVQString@@V1@@std@@@std@@@std@@@2@XZ 0000000140059c20 f i httpdownloader.obj
 0001:00058c20       ?_Unchecked_begin@?$_Tree@V?$_Tmap_traits@VQString@@_NU?$less@VQString@@@std@@V?$allocator@U?$pair@$$CBVQString@@_N@std@@@3@$0A@@std@@@std@@QEAA?AV?$_Tree_unchecked_iterator@V?$_Tree_val@U?$_Tree_simple_types@U?$pair@$$CBVQString@@_N@std@@@std@@@std@@@2@XZ 0000000140059c20 f i httpdownloader.obj
 0001:00058c60       ?_Unwrapped@?$_Tree_const_iterator@V?$_Tree_val@U?$_Tree_simple_types@U?$pair@$$CBVQString@@V1@@std@@@std@@@std@@@std@@QEBA?AV?$_Tree_unchecked_const_iterator@V?$_Tree_val@U?$_Tree_simple_types@U?$pair@$$CBVQString@@V1@@std@@@std@@@std@@U_Iterator_base0@2@@2@XZ 0000000140059c60 f i httpdownloader.obj
 0001:00058c60       ?_Unwrapped@?$_Tree_const_iterator@V?$_Tree_val@U?$_Tree_simple_types@U?$pair@$$CBVQString@@_N@std@@@std@@@std@@@std@@QEBA?AV?$_Tree_unchecked_const_iterator@V?$_Tree_val@U?$_Tree_simple_types@U?$pair@$$CBVQString@@_N@std@@@std@@@std@@U_Iterator_base0@2@@2@XZ 0000000140059c60 f i httpdownloader.obj
 0001:00058cb0       ?allocate@?$allocator@U?$_Tree_node@U?$pair@$$CBVQString@@V1@@std@@PEAX@std@@@std@@QEAAPEAU?$_Tree_node@U?$pair@$$CBVQString@@V1@@std@@PEAX@2@_K@Z 0000000140059cb0 f i httpdownloader.obj
 0001:00058ce0       ?allocate@?$allocator@U?$_Tree_node@U?$pair@$$CBVQString@@_N@std@@PEAX@std@@@std@@QEAAPEAU?$_Tree_node@U?$pair@$$CBVQString@@_N@std@@PEAX@2@_K@Z 0000000140059ce0 f i httpdownloader.obj
 0001:00058d10       ?append@?$QList@VQString@@@@QEAAX$$QEAVQString@@@Z 0000000140059d10 f i httpdownloader.obj
 0001:00058d40       ?begin@?$_Tree@V?$_Tmap_traits@VQString@@V1@U?$less@VQString@@@std@@V?$allocator@U?$pair@$$CBVQString@@V1@@std@@@3@$0A@@std@@@std@@QEBA?AV?$_Tree_const_iterator@V?$_Tree_val@U?$_Tree_simple_types@U?$pair@$$CBVQString@@V1@@std@@@std@@@std@@@2@XZ 0000000140059d40 f i httpdownloader.obj
 0001:00058d40       ?begin@?$_Tree@V?$_Tmap_traits@VQString@@_NU?$less@VQString@@@std@@V?$allocator@U?$pair@$$CBVQString@@_N@std@@@3@$0A@@std@@@std@@QEBA?AV?$_Tree_const_iterator@V?$_Tree_val@U?$_Tree_simple_types@U?$pair@$$CBVQString@@_N@std@@@std@@@std@@@2@XZ 0000000140059d40 f i httpdownloader.obj
 0001:00058d90       ?capacity@?$QList@VQString@@@@QEBA_JXZ 0000000140059d90 f i httpdownloader.obj
 0001:00058dc0       ?cbegin@?$_Tree@V?$_Tmap_traits@VQString@@V1@U?$less@VQString@@@std@@V?$allocator@U?$pair@$$CBVQString@@V1@@std@@@3@$0A@@std@@@std@@QEBA?AV?$_Tree_const_iterator@V?$_Tree_val@U?$_Tree_simple_types@U?$pair@$$CBVQString@@V1@@std@@@std@@@std@@@2@XZ 0000000140059dc0 f i httpdownloader.obj
 0001:00058dc0       ?cbegin@?$_Tree@V?$_Tmap_traits@VQString@@_NU?$less@VQString@@@std@@V?$allocator@U?$pair@$$CBVQString@@_N@std@@@3@$0A@@std@@@std@@QEBA?AV?$_Tree_const_iterator@V?$_Tree_val@U?$_Tree_simple_types@U?$pair@$$CBVQString@@_N@std@@@std@@@std@@@2@XZ 0000000140059dc0 f i httpdownloader.obj
 0001:00058df0       ?cend@?$_Tree@V?$_Tmap_traits@VQString@@V1@U?$less@VQString@@@std@@V?$allocator@U?$pair@$$CBVQString@@V1@@std@@@3@$0A@@std@@@std@@QEBA?AV?$_Tree_const_iterator@V?$_Tree_val@U?$_Tree_simple_types@U?$pair@$$CBVQString@@V1@@std@@@std@@@std@@@2@XZ 0000000140059df0 f i httpdownloader.obj
 0001:00058df0       ?cend@?$_Tree@V?$_Tmap_traits@VQString@@_NU?$less@VQString@@@std@@V?$allocator@U?$pair@$$CBVQString@@_N@std@@@3@$0A@@std@@@std@@QEBA?AV?$_Tree_const_iterator@V?$_Tree_val@U?$_Tree_simple_types@U?$pair@$$CBVQString@@_N@std@@@std@@@std@@@2@XZ 0000000140059df0 f i httpdownloader.obj
 0001:00058e20       ?clear@?$_Tree@V?$_Tmap_traits@VQString@@V1@U?$less@VQString@@@std@@V?$allocator@U?$pair@$$CBVQString@@V1@@std@@@3@$0A@@std@@@std@@QEAAXXZ 0000000140059e20 f i httpdownloader.obj
 0001:00058ec0       ?clear@?$_Tree@V?$_Tmap_traits@VQString@@_NU?$less@VQString@@@std@@V?$allocator@U?$pair@$$CBVQString@@_N@std@@@3@$0A@@std@@@std@@QEAAXXZ 0000000140059ec0 f i httpdownloader.obj
 0001:00058f60       ?copyIfNotEquivalentTo@?$QMapData@V?$map@VQString@@V1@U?$less@VQString@@@std@@V?$allocator@U?$pair@$$CBVQString@@V1@@std@@@3@@std@@@@QEAA_KAEBV?$map@VQString@@V1@U?$less@VQString@@@std@@V?$allocator@U?$pair@$$CBVQString@@V1@@std@@@3@@std@@AEBVQString@@@Z 0000000140059f60 f i httpdownloader.obj
 0001:00059180       ?copyIfNotEquivalentTo@?$QMapData@V?$map@VQString@@_NU?$less@VQString@@@std@@V?$allocator@U?$pair@$$CBVQString@@_N@std@@@3@@std@@@@QEAA_KAEBV?$map@VQString@@_NU?$less@VQString@@@std@@V?$allocator@U?$pair@$$CBVQString@@_N@std@@@3@@std@@AEBVQString@@@Z 000000014005a180 f i httpdownloader.obj
 0001:000593a0       ?data@?$QList@VQString@@@@QEAAPEAVQString@@XZ 000000014005a3a0 f i httpdownloader.obj
 0001:000593d0       ?deallocate@?$_Default_allocator_traits@V?$allocator@U?$_Tree_node@U?$pair@$$CBVQString@@V1@@std@@PEAX@std@@@std@@@std@@SAXAEAV?$allocator@U?$_Tree_node@U?$pair@$$CBVQString@@V1@@std@@PEAX@std@@@2@QEAU?$_Tree_node@U?$pair@$$CBVQString@@V1@@std@@PEAX@2@_K@Z 000000014005a3d0 f i httpdownloader.obj
 0001:000593d0       ?deallocate@?$allocator@U?$_Tree_node@U?$pair@$$CBVQString@@V1@@std@@PEAX@std@@@std@@QEAAXQEAU?$_Tree_node@U?$pair@$$CBVQString@@V1@@std@@PEAX@2@_K@Z 000000014005a3d0 f i httpdownloader.obj
 0001:00059400       ?deallocate@?$_Default_allocator_traits@V?$allocator@U?$_Tree_node@U?$pair@$$CBVQString@@_N@std@@PEAX@std@@@std@@@std@@SAXAEAV?$allocator@U?$_Tree_node@U?$pair@$$CBVQString@@_N@std@@PEAX@std@@@2@QEAU?$_Tree_node@U?$pair@$$CBVQString@@_N@std@@PEAX@2@_K@Z 000000014005a400 f i httpdownloader.obj
 0001:00059400       ?deallocate@?$allocator@U?$_Tree_node@U?$pair@$$CBVQString@@_N@std@@PEAX@std@@@std@@QEAAXQEAU?$_Tree_node@U?$pair@$$CBVQString@@_N@std@@PEAX@2@_K@Z 000000014005a400 f i httpdownloader.obj
 0001:00059430       ?detach@?$QExplicitlySharedDataPointerV2@V?$QMapData@V?$map@VQString@@V1@U?$less@VQString@@@std@@V?$allocator@U?$pair@$$CBVQString@@V1@@std@@@3@@std@@@@@QtPrivate@@QEAAXXZ 000000014005a430 f i httpdownloader.obj
 0001:00059520       ?detach@?$QExplicitlySharedDataPointerV2@V?$QMapData@V?$map@VQString@@_NU?$less@VQString@@@std@@V?$allocator@U?$pair@$$CBVQString@@_N@std@@@3@@std@@@@@QtPrivate@@QEAAXXZ 000000014005a520 f i httpdownloader.obj
 0001:00059610       ?detach@?$QMap@VQString@@V1@@@QEAAXXZ 000000014005a610 f i httpdownloader.obj
 0001:000596a0       ?detach@?$QMap@VQString@@_N@@QEAAXXZ 000000014005a6a0 f i httpdownloader.obj
 0001:00059730       ?detachAndGrow@?$QArrayDataPointer@VQString@@@@QEAAXW4GrowthPosition@QArrayData@@_JPEAPEBVQString@@PEAU1@@Z 000000014005a730 f i httpdownloader.obj
 0001:000597e0       ?displace@Inserter@?$QMovableArrayOps@VQString@@@QtPrivate@@QEAAPEAVQString@@_J0@Z 000000014005a7e0 f i httpdownloader.obj
 0001:000598b0       ?end@?$_Tree@V?$_Tmap_traits@VQString@@V1@U?$less@VQString@@@std@@V?$allocator@U?$pair@$$CBVQString@@V1@@std@@@3@$0A@@std@@@std@@QEBA?AV?$_Tree_const_iterator@V?$_Tree_val@U?$_Tree_simple_types@U?$pair@$$CBVQString@@V1@@std@@@std@@@std@@@2@XZ 000000014005a8b0 f i httpdownloader.obj
 0001:000598b0       ?end@?$_Tree@V?$_Tmap_traits@VQString@@_NU?$less@VQString@@@std@@V?$allocator@U?$pair@$$CBVQString@@_N@std@@@3@$0A@@std@@@std@@QEBA?AV?$_Tree_const_iterator@V?$_Tree_val@U?$_Tree_simple_types@U?$pair@$$CBVQString@@_N@std@@@std@@@std@@@2@XZ 000000014005a8b0 f i httpdownloader.obj
 0001:000598f0       ?erase@?$_Tree@V?$_Tmap_traits@VQString@@V1@U?$less@VQString@@@std@@V?$allocator@U?$pair@$$CBVQString@@V1@@std@@@3@$0A@@std@@@std@@QEAA_KAEBVQString@@@Z 000000014005a8f0 f i httpdownloader.obj
 0001:00059940       ?erase@?$_Tree@V?$_Tmap_traits@VQString@@_NU?$less@VQString@@@std@@V?$allocator@U?$pair@$$CBVQString@@_N@std@@@3@$0A@@std@@@std@@QEAA_KAEBVQString@@@Z 000000014005a940 f i httpdownloader.obj
 0001:00059990       ?find@?$_Tree@V?$_Tmap_traits@VQString@@V1@U?$less@VQString@@@std@@V?$allocator@U?$pair@$$CBVQString@@V1@@std@@@3@$0A@@std@@@std@@QEAA?AV?$_Tree_iterator@V?$_Tree_val@U?$_Tree_simple_types@U?$pair@$$CBVQString@@V1@@std@@@std@@@std@@@2@AEBVQString@@@Z 000000014005a990 f i httpdownloader.obj
 0001:000599f0       ?find@?$_Tree@V?$_Tmap_traits@VQString@@_NU?$less@VQString@@@std@@V?$allocator@U?$pair@$$CBVQString@@_N@std@@@3@$0A@@std@@@std@@QEBA?AV?$_Tree_const_iterator@V?$_Tree_val@U?$_Tree_simple_types@U?$pair@$$CBVQString@@_N@std@@@std@@@std@@@2@AEBVQString@@@Z 000000014005a9f0 f i httpdownloader.obj
 0001:00059a50       ?insert@?$QMap@VQString@@_N@@QEAA?AViterator@1@AEBVQString@@AEB_N@Z 000000014005aa50 f i httpdownloader.obj
 0001:00059bb0       ?insert@?$_Tree@V?$_Tmap_traits@VQString@@V1@U?$less@VQString@@@std@@V?$allocator@U?$pair@$$CBVQString@@V1@@std@@@3@$0A@@std@@@std@@QEAA?AV?$_Tree_iterator@V?$_Tree_val@U?$_Tree_simple_types@U?$pair@$$CBVQString@@V1@@std@@@std@@@std@@@2@V?$_Tree_const_iterator@V?$_Tree_val@U?$_Tree_simple_types@U?$pair@$$CBVQString@@V1@@std@@@std@@@std@@@2@AEBU?$pair@$$CBVQString@@V1@@2@@Z 000000014005abb0 f i httpdownloader.obj
 0001:00059c10       ?insert@?$_Tree@V?$_Tmap_traits@VQString@@_NU?$less@VQString@@@std@@V?$allocator@U?$pair@$$CBVQString@@_N@std@@@3@$0A@@std@@@std@@QEAA?AV?$_Tree_iterator@V?$_Tree_val@U?$_Tree_simple_types@U?$pair@$$CBVQString@@_N@std@@@std@@@std@@@2@V?$_Tree_const_iterator@V?$_Tree_val@U?$_Tree_simple_types@U?$pair@$$CBVQString@@_N@std@@@std@@@std@@@2@AEBU?$pair@$$CBVQString@@_N@2@@Z 000000014005ac10 f i httpdownloader.obj
 0001:00059c70       ?insertOne@Inserter@?$QMovableArrayOps@VQString@@@QtPrivate@@QEAAX_J$$QEAVQString@@@Z 000000014005ac70 f i httpdownloader.obj
 0001:00059cf0       ?isShared@?$QArrayDataPointer@VQString@@@@QEBA_NXZ 000000014005acf0 f i httpdownloader.obj
 0001:00059d40       ?isShared@?$QExplicitlySharedDataPointerV2@V?$QMapData@V?$map@VQString@@V1@U?$less@VQString@@@std@@V?$allocator@U?$pair@$$CBVQString@@V1@@std@@@3@@std@@@@@QtPrivate@@QEBA_NXZ 000000014005ad40 f i httpdownloader.obj
 0001:00059d40       ?isShared@?$QExplicitlySharedDataPointerV2@V?$QMapData@V?$map@VQString@@_NU?$less@VQString@@@std@@V?$allocator@U?$pair@$$CBVQString@@_N@std@@@3@@std@@@@@QtPrivate@@QEBA_NXZ 000000014005ad40 f i httpdownloader.obj
 0001:00059d90       ?isShared@QArrayData@@QEBA_NXZ 000000014005ad90 f i httpdownloader.obj
 0001:00059dd0       ?key_comp@?$_Tree@V?$_Tmap_traits@VQString@@V1@U?$less@VQString@@@std@@V?$allocator@U?$pair@$$CBVQString@@V1@@std@@@3@$0A@@std@@@std@@QEBA?AU?$less@VQString@@@2@XZ 000000014005add0 f i httpdownloader.obj
 0001:00059dd0       ?key_comp@?$_Tree@V?$_Tmap_traits@VQString@@_NU?$less@VQString@@@std@@V?$allocator@U?$pair@$$CBVQString@@_N@std@@@3@$0A@@std@@@std@@QEBA?AU?$less@VQString@@@2@XZ 000000014005add0 f i httpdownloader.obj
 0001:00059e00       ?max_size@?$_Default_allocator_traits@V?$allocator@U?$_Tree_node@U?$pair@$$CBVQString@@V1@@std@@PEAX@std@@@std@@@std@@SA_KAEBV?$allocator@U?$_Tree_node@U?$pair@$$CBVQString@@V1@@std@@PEAX@std@@@2@@Z 000000014005ae00 f i httpdownloader.obj
 0001:00059e10       ?max_size@?$_Default_allocator_traits@V?$allocator@U?$_Tree_node@U?$pair@$$CBVQString@@_N@std@@PEAX@std@@@std@@@std@@SA_KAEBV?$allocator@U?$_Tree_node@U?$pair@$$CBVQString@@_N@std@@PEAX@std@@@2@@Z 000000014005ae10 f i httpdownloader.obj
 0001:00059e20       ?max_size@?$_Tree@V?$_Tmap_traits@VQString@@V1@U?$less@VQString@@@std@@V?$allocator@U?$pair@$$CBVQString@@V1@@std@@@3@$0A@@std@@@std@@QEBA_KXZ 000000014005ae20 f i httpdownloader.obj
 0001:00059e70       ?max_size@?$_Tree@V?$_Tmap_traits@VQString@@_NU?$less@VQString@@@std@@V?$allocator@U?$pair@$$CBVQString@@_N@std@@@3@$0A@@std@@@std@@QEBA_KXZ 000000014005ae70 f i httpdownloader.obj
 0001:00059ec0       ?push_back@?$QList@VQString@@@@QEAAX$$QEAVQString@@@Z 000000014005aec0 f i httpdownloader.obj
 0001:00059ef0       ?relocate@?$QArrayDataPointer@VQString@@@@QEAAX_JPEAPEBVQString@@@Z 000000014005aef0 f i httpdownloader.obj
 0001:00059f80       ?remove@?$QMap@VQString@@V1@@@QEAA_JAEBVQString@@@Z 000000014005af80 f i httpdownloader.obj
 0001:0005a080       ?remove@?$QMap@VQString@@_N@@QEAA_JAEBVQString@@@Z 000000014005b080 f i httpdownloader.obj
 0001:0005a180       ?reserve@?$QList@VQString@@@@QEAAX_J@Z 000000014005b180 f i httpdownloader.obj
 0001:0005a3f0       ?reset@?$QExplicitlySharedDataPointerV2@V?$QMapData@V?$map@VQString@@V1@U?$less@VQString@@@std@@V?$allocator@U?$pair@$$CBVQString@@V1@@std@@@3@@std@@@@@QtPrivate@@QEAAXPEAV?$QMapData@V?$map@VQString@@V1@U?$less@VQString@@@std@@V?$allocator@U?$pair@$$CBVQString@@V1@@std@@@3@@std@@@@@Z 000000014005b3f0 f i httpdownloader.obj
 0001:0005a480       ?reset@?$QExplicitlySharedDataPointerV2@V?$QMapData@V?$map@VQString@@_NU?$less@VQString@@@std@@V?$allocator@U?$pair@$$CBVQString@@_N@std@@@3@@std@@@@@QtPrivate@@QEAAXPEAV?$QMapData@V?$map@VQString@@_NU?$less@VQString@@@std@@V?$allocator@U?$pair@$$CBVQString@@_N@std@@@3@@std@@@@@Z 000000014005b480 f i httpdownloader.obj
 0001:0005a510       ?setFlag@?$QArrayDataPointer@VQString@@@@QEAAXV?$QFlags@W4ArrayOption@QArrayData@@@@@Z 000000014005b510 f i httpdownloader.obj
 0001:0005a540       ?size@?$_Tree@V?$_Tmap_traits@VQString@@V1@U?$less@VQString@@@std@@V?$allocator@U?$pair@$$CBVQString@@V1@@std@@@3@$0A@@std@@@std@@QEBA_KXZ 000000014005b540 f i httpdownloader.obj
 0001:0005a560       ?swap@?$QExplicitlySharedDataPointerV2@V?$QMapData@V?$map@VQString@@V1@U?$less@VQString@@@std@@V?$allocator@U?$pair@$$CBVQString@@V1@@std@@@3@@std@@@@@QtPrivate@@QEAAXAEAV12@@Z 000000014005b560 f i httpdownloader.obj
 0001:0005a560       ?swap@?$QExplicitlySharedDataPointerV2@V?$QMapData@V?$map@VQString@@_NU?$less@VQString@@@std@@V?$allocator@U?$pair@$$CBVQString@@_N@std@@@3@@std@@@@@QtPrivate@@QEAAXAEAV12@@Z 000000014005b560 f i httpdownloader.obj
 0001:0005a590       ?tryReadjustFreeSpace@?$QArrayDataPointer@VQString@@@@QEAA_NW4GrowthPosition@QArrayData@@_JPEAPEBVQString@@@Z 000000014005b590 f i httpdownloader.obj
 0001:0005a6b0       ?value@?$QMap@VQString@@_N@@QEBA_NAEBVQString@@AEB_N@Z 000000014005b6b0 f i httpdownloader.obj
 0001:0005a770       ?values@?$QMap@VQString@@V1@@@QEBA?AV?$QList@VQString@@@@XZ 000000014005b770 f i httpdownloader.obj
 0001:0005a800       ?values@?$QMapData@V?$map@VQString@@V1@U?$less@VQString@@@std@@V?$allocator@U?$pair@$$CBVQString@@V1@@std@@@3@@std@@@@QEBA?AV?$QList@VQString@@@@XZ 000000014005b800 f i httpdownloader.obj
 0001:0005a980       ?init@QtBreakpad@@SAXAEBVQString@@P6A_NPEAXPEAU_EXCEPTION_POINTERS@@PEAUMDRawAssertionInfo@@@ZP6A_NPEB_W5123_N@Z1@Z 000000014005b980 f   qt_breakpad.obj
 0001:0005aa10       ?init@QtBreakpad@@SAXAEBVQString@@P6A_NAEAVQFile@@PEAX@Z2@Z 000000014005ba10 f   qt_breakpad.obj
 0001:0005aa90       ?replaceInstance@QtBreakpad@@CAXPEAV1@@Z 000000014005ba90 f   qt_breakpad.obj
 0001:0005aaf0       ??0QtBreakpad@@AEAA@AEBVQString@@P6A_NPEAXPEAU_EXCEPTION_POINTERS@@PEAUMDRawAssertionInfo@@@ZP6A_NPEB_W5123_N@Z1@Z 000000014005baf0 f   qt_breakpad.obj
 0001:0005ab40       ??0QtBreakpad@@AEAA@AEBVQString@@P6A_NAEAVQFile@@PEAX@Z2@Z 000000014005bb40 f   qt_breakpad.obj
 0001:0005abf0       ??1QtBreakpad@@AEAA@XZ     000000014005bbf0 f   qt_breakpad.obj
 0001:0005ac70       ?buildBreakpadHandler@QtBreakpad@@AEAAXAEBVQString@@P6A_NPEAXPEAU_EXCEPTION_POINTERS@@PEAUMDRawAssertionInfo@@@ZP6A_NPEB_W5123_N@Z1@Z 000000014005bc70 f   qt_breakpad.obj
 0001:0005ad50       ?qMinidumpWrapper@QtBreakpad@@CA_NPEB_W0PEAVQMinidumpContextWrapper@1@PEAU_EXCEPTION_POINTERS@@PEAUMDRawAssertionInfo@@_N@Z 000000014005bd50 f   qt_breakpad.obj
 0001:0005af20       ??$_Construct@$00PEB_W@?$basic_string@_WU?$char_traits@_W@std@@V?$allocator@_W@2@@std@@AEAAXQEB_W_K@Z 000000014005bf20 f i qt_breakpad.obj
 0001:0005b0b0       ??$_Get_size_of_n@$01@std@@YA_K_K@Z 000000014005c0b0 f i qt_breakpad.obj
 0001:0005b0f0       ??0?$basic_string@_WU?$char_traits@_W@std@@V?$allocator@_W@2@@std@@QEAA@QEB_W@Z 000000014005c0f0 f i qt_breakpad.obj
 0001:0005b150       ??1?$basic_string@_WU?$char_traits@_W@std@@V?$allocator@_W@2@@std@@QEAA@XZ 000000014005c150 f i qt_breakpad.obj
 0001:0005b180       ??_GExceptionHandler@google_breakpad@@QEAAPEAXI@Z 000000014005c180 f i qt_breakpad.obj
 0001:0005b1c0       ??_GQMinidumpContextWrapper@QtBreakpad@@QEAAPEAXI@Z 000000014005c1c0 f i qt_breakpad.obj
 0001:0005b200       ??_GQtBreakpad@@AEAAPEAXI@Z 000000014005c200 f i qt_breakpad.obj
 0001:0005b240       ?_Calculate_growth@?$basic_string@_WU?$char_traits@_W@std@@V?$allocator@_W@2@@std@@AEBA_K_K@Z 000000014005c240 f i qt_breakpad.obj
 0001:0005b290       ?_Calculate_growth@?$basic_string@_WU?$char_traits@_W@std@@V?$allocator@_W@2@@std@@CA_K_K00@Z 000000014005c290 f i qt_breakpad.obj
 0001:0005b330       ?_Large_string_engaged@?$_String_val@U?$_Simple_types@_W@std@@@std@@QEBA_NXZ 000000014005c330 f i qt_breakpad.obj
 0001:0005b360       ?_Tidy_deallocate@?$basic_string@_WU?$char_traits@_W@std@@V?$allocator@_W@2@@std@@AEAAXXZ 000000014005c360 f i qt_breakpad.obj
 0001:0005b430       ?allocate@?$allocator@_W@std@@QEAAPEA_W_K@Z 000000014005c430 f i qt_breakpad.obj
 0001:0005b460       ?assign@?$_WChar_traits@_W@std@@SAXAEA_WAEB_W@Z 000000014005c460 f i qt_breakpad.obj
 0001:0005b480       ?copy@?$_Char_traits@_WG@std@@SAPEA_WQEA_WQEB_W_K@Z 000000014005c480 f i qt_breakpad.obj
 0001:0005b4c0       ?deallocate@?$allocator@_W@std@@QEAAXQEA_W_K@Z 000000014005c4c0 f i qt_breakpad.obj
 0001:0005b4f0       ?length@?$_WChar_traits@_W@std@@SA_KPEB_W@Z 000000014005c4f0 f i qt_breakpad.obj
 0001:0005b530       ?max_size@?$_Default_allocator_traits@V?$allocator@_W@std@@@std@@SA_KAEBV?$allocator@_W@2@@Z 000000014005c530 f i qt_breakpad.obj
 0001:0005b540       ?max_size@?$basic_string@_WU?$char_traits@_W@std@@V?$allocator@_W@2@@std@@QEBA_KXZ 000000014005c540 f i qt_breakpad.obj
 0001:0005b5b0       ?move@?$_Char_traits@_WG@std@@SAPEA_WQEA_WQEB_W_K@Z 000000014005c5b0 f i qt_breakpad.obj
 0001:0005b5f0       ??0ExceptionHandler@google_breakpad@@QEAA@AEBV?$basic_string@_WU?$char_traits@_W@std@@V?$allocator@_W@2@@std@@P6A_NPEAXPEAU_EXCEPTION_POINTERS@@PEAUMDRawAssertionInfo@@@ZP6A_NPEB_W5123_N@Z1H@Z 000000014005c5f0 f   exception_handler.obj
 0001:0005b700       ??0ExceptionHandler@google_breakpad@@QEAA@AEBV?$basic_string@_WU?$char_traits@_W@std@@V?$allocator@_W@2@@std@@P6A_NPEAXPEAU_EXCEPTION_POINTERS@@PEAUMDRawAssertionInfo@@@ZP6A_NPEB_W5123_N@Z1HW4_MINIDUMP_TYPE@@5PEBUCustomClientInfo@1@@Z 000000014005c700 f   exception_handler.obj
 0001:0005b820       ??0ExceptionHandler@google_breakpad@@QEAA@AEBV?$basic_string@_WU?$char_traits@_W@std@@V?$allocator@_W@2@@std@@P6A_NPEAXPEAU_EXCEPTION_POINTERS@@PEAUMDRawAssertionInfo@@@ZP6A_NPEB_W5123_N@Z1HW4_MINIDUMP_TYPE@@1PEBUCustomClientInfo@1@@Z 000000014005c820 f   exception_handler.obj
 0001:0005b940       ??0ExceptionHandler@google_breakpad@@QEAA@AEBV?$basic_string@_WU?$char_traits@_W@std@@V?$allocator@_W@2@@std@@P6A_NPEAXPEAU_EXCEPTION_POINTERS@@PEAUMDRawAssertionInfo@@@ZP6A_NPEB_W5123_N@Z1HPEAVCrashGenerationClient@1@@Z 000000014005c940 f   exception_handler.obj
 0001:0005ba50       ??1ExceptionHandler@google_breakpad@@QEAA@XZ 000000014005ca50 f   exception_handler.obj
 0001:0005bd50       ?RequestUpload@ExceptionHandler@google_breakpad@@QEAA_NK@Z 000000014005cd50 f   exception_handler.obj
 0001:0005bd90       ?WriteMinidump@ExceptionHandler@google_breakpad@@QEAA_NXZ 000000014005cd90 f   exception_handler.obj
 0001:0005be40       ?WriteMinidumpForException@ExceptionHandler@google_breakpad@@QEAA_NPEAU_EXCEPTION_POINTERS@@@Z 000000014005ce40 f   exception_handler.obj
 0001:0005beb0       ?WriteMinidump@ExceptionHandler@google_breakpad@@SA_NAEBV?$basic_string@_WU?$char_traits@_W@std@@V?$allocator@_W@2@@std@@P6A_NPEB_W1PEAXPEAU_EXCEPTION_POINTERS@@PEAUMDRawAssertionInfo@@_N@Z2W4_MINIDUMP_TYPE@@@Z 000000014005ceb0 f   exception_handler.obj
 0001:0005bf70       ?WriteMinidumpForChild@ExceptionHandler@google_breakpad@@SA_NPEAXKAEBV?$basic_string@_WU?$char_traits@_W@std@@V?$allocator@_W@2@@std@@P6A_NPEB_W20PEAU_EXCEPTION_POINTERS@@PEAUMDRawAssertionInfo@@_N@Z0W4_MINIDUMP_TYPE@@@Z 000000014005cf70 f   exception_handler.obj
 0001:0005c1c0       ?RegisterAppMemory@ExceptionHandler@google_breakpad@@QEAAXPEAX_K@Z 000000014005d1c0 f   exception_handler.obj
 0001:0005c2f0       ?UnregisterAppMemory@ExceptionHandler@google_breakpad@@QEAAXPEAX@Z 000000014005d2f0 f   exception_handler.obj
 0001:0005c3f0       ?Initialize@ExceptionHandler@google_breakpad@@AEAAXAEBV?$basic_string@_WU?$char_traits@_W@std@@V?$allocator@_W@2@@std@@P6A_NPEAXPEAU_EXCEPTION_POINTERS@@PEAUMDRawAssertionInfo@@@ZP6A_NPEB_W5123_N@Z1HW4_MINIDUMP_TYPE@@51PEAVCrashGenerationClient@2@PEBUCustomClientInfo@2@@Z 000000014005d3f0 f   exception_handler.obj
 0001:0005cab0       ?ExceptionHandlerThreadMain@ExceptionHandler@google_breakpad@@CAKPEAX@Z 000000014005dab0 f   exception_handler.obj
 0001:0005cb60       ?HandleException@ExceptionHandler@google_breakpad@@CAJPEAU_EXCEPTION_POINTERS@@@Z 000000014005db60 f   exception_handler.obj
 0001:0005cce0       ?HandleInvalidParameter@ExceptionHandler@google_breakpad@@CAXPEB_W00I_K@Z 000000014005dce0 f   exception_handler.obj
 0001:0005cf70       ?HandlePureVirtualCall@ExceptionHandler@google_breakpad@@CAXXZ 000000014005df70 f   exception_handler.obj
 0001:0005d120       ?WriteMinidumpOnHandlerThread@ExceptionHandler@google_breakpad@@AEAA_NPEAU_EXCEPTION_POINTERS@@PEAUMDRawAssertionInfo@@@Z 000000014005e120 f   exception_handler.obj
 0001:0005d240       ?WriteMinidumpWithException@ExceptionHandler@google_breakpad@@AEAA_NKPEAU_EXCEPTION_POINTERS@@PEAUMDRawAssertionInfo@@@Z 000000014005e240 f   exception_handler.obj
 0001:0005d380       ?MinidumpWriteDumpCallback@ExceptionHandler@google_breakpad@@CAHPEAXQEAU_MINIDUMP_CALLBACK_INPUT@@PEAU_MINIDUMP_CALLBACK_OUTPUT@@@Z 000000014005e380 f   exception_handler.obj
 0001:0005d4b0       ?WriteMinidumpWithExceptionForProcess@ExceptionHandler@google_breakpad@@AEAA_NKPEAU_EXCEPTION_POINTERS@@PEAUMDRawAssertionInfo@@PEAX_N@Z 000000014005e4b0 f   exception_handler.obj
 0001:0005d980       ?UpdateNextID@ExceptionHandler@google_breakpad@@AEAAXXZ 000000014005e980 f   exception_handler.obj
 0001:0005db00       ??$?0AEBUAppMemory@google_breakpad@@@?$_List_node_emplace_op2@V?$allocator@U?$_List_node@UAppMemory@google_breakpad@@PEAX@std@@@std@@@std@@QEAA@AEAV?$allocator@U?$_List_node@UAppMemory@google_breakpad@@PEAX@std@@@1@AEBUAppMemory@google_breakpad@@@Z 000000014005eb00 f i exception_handler.obj
 0001:0005db90       ??$_Emplace@AEBUAppMemory@google_breakpad@@@?$list@UAppMemory@google_breakpad@@V?$allocator@UAppMemory@google_breakpad@@@std@@@std@@QEAAPEAU?$_List_node@UAppMemory@google_breakpad@@PEAX@1@QEAU21@AEBUAppMemory@google_breakpad@@@Z 000000014005eb90 f i exception_handler.obj
 0001:0005dc40       ??$_Find_unchecked@V?$_List_unchecked_iterator@V?$_List_val@U?$_List_simple_types@UAppMemory@google_breakpad@@@std@@@std@@@std@@PEAX@std@@YA?AV?$_List_unchecked_iterator@V?$_List_val@U?$_List_simple_types@UAppMemory@google_breakpad@@@std@@@std@@@0@V10@V10@AEBQEAX@Z 000000014005ec40 f i exception_handler.obj
